---
triple:          'arm64-apple-darwin'
binary-path:     "/Users/ha/Documents/study/OS大作业/OS_project/main"
relocations:
  - { offsetInCU: 0x5E, offset: 0x5E, size: 0x8, addend: 0x0, symName: __ZL12magic_number, symObjAddr: 0x58AE8, symBinAddr: 0x10005A29A, symSize: 0x0 }
  - { offsetInCU: 0x1AF, offset: 0x1AF, size: 0x8, addend: 0x0, symName: __ZNSt3__115regex_constantsorB8ue170006ENS0_15match_flag_typeES1_, symObjAddr: 0x18324, symBinAddr: 0x10001BA2C, symSize: 0x20 }
  - { offsetInCU: 0x1EC, offset: 0x1EC, size: 0x8, addend: 0x0, symName: __ZNSt3__115regex_constantsanB8ue170006ENS0_15match_flag_typeES1_, symObjAddr: 0x18A74, symBinAddr: 0x10001C17C, symSize: 0x20 }
  - { offsetInCU: 0x229, offset: 0x229, size: 0x8, addend: 0x0, symName: __ZNSt3__115regex_constantsaNB8ue170006ERNS0_15match_flag_typeES1_, symObjAddr: 0x192B8, symBinAddr: 0x10001C9C0, symSize: 0x3C }
  - { offsetInCU: 0x266, offset: 0x266, size: 0x8, addend: 0x0, symName: __ZNSt3__115regex_constantscoB8ue170006ENS0_15match_flag_typeE, symObjAddr: 0x192F4, symBinAddr: 0x10001C9FC, symSize: 0x1C }
  - { offsetInCU: 0x294, offset: 0x294, size: 0x8, addend: 0x0, symName: __ZNSt3__115regex_constantsoRB8ue170006ERNS0_15match_flag_typeES1_, symObjAddr: 0x19550, symBinAddr: 0x10001CC58, symSize: 0x3C }
  - { offsetInCU: 0x2D1, offset: 0x2D1, size: 0x8, addend: 0x0, symName: __ZNSt3__115regex_constants13__get_grammarB8ue170006ENS0_18syntax_option_typeE, symObjAddr: 0x19778, symBinAddr: 0x10001CE80, symSize: 0x18 }
  - { offsetInCU: 0x2FF, offset: 0x2FF, size: 0x8, addend: 0x0, symName: __ZNSt3__115regex_constantsoRB8ue170006ERNS0_18syntax_option_typeES1_, symObjAddr: 0x29280, symBinAddr: 0x10002C988, symSize: 0x3C }
  - { offsetInCU: 0x33C, offset: 0x33C, size: 0x8, addend: 0x0, symName: __ZNSt3__115regex_constantsorB8ue170006ENS0_18syntax_option_typeES1_, symObjAddr: 0x29538, symBinAddr: 0x10002CC40, symSize: 0x20 }
  - { offsetInCU: 0x379, offset: 0x379, size: 0x8, addend: 0x0, symName: __ZNSt3__115regex_constantsanB8ue170006ENS0_18syntax_option_typeES1_, symObjAddr: 0x2C648, symBinAddr: 0x10002FD50, symSize: 0x20 }
  - { offsetInCU: 0x1A992, offset: 0x1A992, size: 0x8, addend: 0x0, symName: __ZNSt3__124__put_character_sequenceB8ue170006IcNS_11char_traitsIcEEEERNS_13basic_ostreamIT_T0_EES7_PKS4_m, symObjAddr: 0x171CC, symBinAddr: 0x10001A8D4, symSize: 0x1EC }
  - { offsetInCU: 0x1DAA9, offset: 0x1DAA9, size: 0x8, addend: 0x0, symName: __ZNSt3__17advanceB8ue170006IPKcllvEEvRT_T0_, symObjAddr: 0x202A4, symBinAddr: 0x1000239AC, symSize: 0x38 }
  - { offsetInCU: 0x1E7F4, offset: 0x1E7F4, size: 0x8, addend: 0x0, symName: __ZNSt3__17advanceB8ue170006IPNS_9sub_matchIPKcEEllvEEvRT_T0_, symObjAddr: 0x26954, symBinAddr: 0x10002A05C, symSize: 0x38 }
  - { offsetInCU: 0x1E85F, offset: 0x1E85F, size: 0x8, addend: 0x0, symName: __ZNSt3__17advanceB8ue170006IPNS_4pairImPKcEEllvEEvRT_T0_, symObjAddr: 0x26F08, symBinAddr: 0x10002A610, symSize: 0x38 }
  - { offsetInCU: 0x1EDFF, offset: 0x1EDFF, size: 0x8, addend: 0x0, symName: __ZNSt3__17advanceB8ue170006INS_11__wrap_iterIPKcEEllvEEvRT_T0_, symObjAddr: 0x28AE8, symBinAddr: 0x10002C1F0, symSize: 0x38 }
  - { offsetInCU: 0x23FE7, offset: 0x23FE7, size: 0x8, addend: 0x0, symName: __ZNSt3__1lsB8ue170006INS_11char_traitsIcEEEERNS_13basic_ostreamIcT_EES6_PKc, symObjAddr: 0x3318, symBinAddr: 0x100006A20, symSize: 0x48 }
  - { offsetInCU: 0x2402D, offset: 0x2402D, size: 0x8, addend: 0x0, symName: __ZNSt3__14endlB8ue170006IcNS_11char_traitsIcEEEERNS_13basic_ostreamIT_T0_EES7_, symObjAddr: 0x338C, symBinAddr: 0x100006A94, symSize: 0x58 }
  - { offsetInCU: 0x2406D, offset: 0x2406D, size: 0x8, addend: 0x0, symName: __ZNSt3__111regex_matchB8ue170006INS_11char_traitsIcEENS_9allocatorIcEEcNS_12regex_traitsIcEEEEbRKNS_12basic_stringIT1_T_T0_EERKNS_11basic_regexIS8_T2_EENS_15regex_constants15match_flag_typeE, symObjAddr: 0x33E4, symBinAddr: 0x100006AEC, symSize: 0x54 }
  - { offsetInCU: 0x240DD, offset: 0x240DD, size: 0x8, addend: 0x0, symName: __ZNSt3__13minB8ue170006IiEERKT_S3_S3_, symObjAddr: 0x82BC, symBinAddr: 0x10000B9C4, symSize: 0x2C }
  - { offsetInCU: 0x24120, offset: 0x24120, size: 0x8, addend: 0x0, symName: __ZNSt3__13maxB8ue170006IiEERKT_S3_S3_, symObjAddr: 0x82E8, symBinAddr: 0x10000B9F0, symSize: 0x2C }
  - { offsetInCU: 0x24331, offset: 0x24331, size: 0x8, addend: 0x0, symName: __ZNSt3__1plB8ue170006IcNS_11char_traitsIcEENS_9allocatorIcEEEENS_12basic_stringIT_T0_T1_EERKS9_OS9_, symObjAddr: 0xBEE4, symBinAddr: 0x10000F5EC, symSize: 0x44 }
  - { offsetInCU: 0x24389, offset: 0x24389, size: 0x8, addend: 0x0, symName: __ZNSt3__1plB8ue170006IcNS_11char_traitsIcEENS_9allocatorIcEEEENS_12basic_stringIT_T0_T1_EEPKS6_OS9_, symObjAddr: 0xBFC0, symBinAddr: 0x10000F6C8, symSize: 0x44 }
  - { offsetInCU: 0x24B85, offset: 0x24B85, size: 0x8, addend: 0x0, symName: __ZNSt3__1neB8ue170006IPNS_12basic_stringIcNS_11char_traitsIcEENS_9allocatorIcEEEEEEbRKNS_11__wrap_iterIT_EESC_, symObjAddr: 0xC318, symBinAddr: 0x10000FA20, symSize: 0x34 }
  - { offsetInCU: 0x24BC8, offset: 0x24BC8, size: 0x8, addend: 0x0, symName: __ZNSt3__1eqB8ue170006IcNS_11char_traitsIcEENS_9allocatorIcEEEEbRKNS_12basic_stringIT_T0_T1_EEPKS6_, symObjAddr: 0xC37C, symBinAddr: 0x10000FA84, symSize: 0xAC }
  - { offsetInCU: 0x24C4B, offset: 0x24C4B, size: 0x8, addend: 0x0, symName: __ZNSt3__14copyB8ue170006IPK7AddressPS1_EET0_T_S6_S5_, symObjAddr: 0xCD20, symBinAddr: 0x100010428, symSize: 0x40 }
  - { offsetInCU: 0x24CA5, offset: 0x24CA5, size: 0x8, addend: 0x0, symName: __ZNSt3__15beginB8ue170006IK7AddressLm10EEEPT_RAT0__S3_, symObjAddr: 0xCD60, symBinAddr: 0x100010468, symSize: 0x14 }
  - { offsetInCU: 0x24CE4, offset: 0x24CE4, size: 0x8, addend: 0x0, symName: __ZNSt3__13endB8ue170006IK7AddressLm10EEEPT_RAT0__S3_, symObjAddr: 0xCD74, symBinAddr: 0x10001047C, symSize: 0x18 }
  - { offsetInCU: 0x24D23, offset: 0x24D23, size: 0x8, addend: 0x0, symName: __ZNSt3__15beginB8ue170006I7AddressLm10EEEPT_RAT0__S2_, symObjAddr: 0xCD8C, symBinAddr: 0x100010494, symSize: 0x14 }
  - { offsetInCU: 0x24D62, offset: 0x24D62, size: 0x8, addend: 0x0, symName: __ZNSt3__14copyB8ue170006IP7AddressS2_EET0_T_S4_S3_, symObjAddr: 0xCEF8, symBinAddr: 0x100010600, symSize: 0x40 }
  - { offsetInCU: 0x24DBC, offset: 0x24DBC, size: 0x8, addend: 0x0, symName: __ZNSt3__13endB8ue170006I7AddressLm10EEEPT_RAT0__S2_, symObjAddr: 0xCF38, symBinAddr: 0x100010640, symSize: 0x18 }
  - { offsetInCU: 0x24DFB, offset: 0x24DFB, size: 0x8, addend: 0x0, symName: __ZNSt3__1lsB8ue170006IcNS_11char_traitsIcEENS_9allocatorIcEEEERNS_13basic_ostreamIT_T0_EES9_RKNS_12basic_stringIS6_S7_T1_EE, symObjAddr: 0xF3AC, symBinAddr: 0x100012AB4, symSize: 0x4C }
  - { offsetInCU: 0x25269, offset: 0x25269, size: 0x8, addend: 0x0, symName: __ZNSt3__112__to_addressB8ue170006I9fileEntryEEPT_S3_, symObjAddr: 0x10D34, symBinAddr: 0x10001443C, symSize: 0x14 }
  - { offsetInCU: 0x2529E, offset: 0x2529E, size: 0x8, addend: 0x0, symName: __ZNSt3__119__libcpp_deallocateB8ue170006EPvmm, symObjAddr: 0x10DE4, symBinAddr: 0x1000144EC, symSize: 0x30 }
  - { offsetInCU: 0x252E6, offset: 0x252E6, size: 0x8, addend: 0x0, symName: __ZNSt3__127__do_deallocate_handle_sizeB8ue170006IJEEEvPvmDpT_, symObjAddr: 0x10E14, symBinAddr: 0x10001451C, symSize: 0x28 }
  - { offsetInCU: 0x25324, offset: 0x25324, size: 0x8, addend: 0x0, symName: __ZNSt3__124__libcpp_operator_deleteB8ue170006IJPvEEEvDpT_, symObjAddr: 0x10E3C, symBinAddr: 0x100014544, symSize: 0x24 }
  - { offsetInCU: 0x25359, offset: 0x25359, size: 0x8, addend: 0x0, symName: __ZNSt3__13minB8ue170006IiNS_6__lessIvvEEEERKT_S5_S5_T0_, symObjAddr: 0x10EF8, symBinAddr: 0x100014600, symSize: 0x54 }
  - { offsetInCU: 0x25429, offset: 0x25429, size: 0x8, addend: 0x0, symName: __ZNSt3__13maxB8ue170006IiNS_6__lessIvvEEEERKT_S5_S5_T0_, symObjAddr: 0x10F80, symBinAddr: 0x100014688, symSize: 0x54 }
  - { offsetInCU: 0x25483, offset: 0x25483, size: 0x8, addend: 0x0, symName: __ZNSt3__14swapB8ue170006IPNS_13__empty_stateIcEEEENS_9enable_ifIXaasr21is_move_constructibleIT_EE5valuesr18is_move_assignableIS5_EE5valueEvE4typeERS5_S8_, symObjAddr: 0x11208, symBinAddr: 0x100014910, symSize: 0x3C }
  - { offsetInCU: 0x254D4, offset: 0x254D4, size: 0x8, addend: 0x0, symName: __ZNSt3__14swapB8ue170006IPNS_19__shared_weak_countEEENS_9enable_ifIXaasr21is_move_constructibleIT_EE5valuesr18is_move_assignableIS4_EE5valueEvE4typeERS4_S7_, symObjAddr: 0x11244, symBinAddr: 0x10001494C, symSize: 0x3C }
  - { offsetInCU: 0x25525, offset: 0x25525, size: 0x8, addend: 0x0, symName: __ZNSt3__134__libcpp_atomic_refcount_decrementB8ue170006IlEET_RS1_, symObjAddr: 0x1138C, symBinAddr: 0x100014A94, symSize: 0x30 }
  - { offsetInCU: 0x2555A, offset: 0x2555A, size: 0x8, addend: 0x0, symName: __ZNSt3__122__make_exception_guardB8ue170006INS_6vectorI9fileEntryNS_9allocatorIS2_EEE16__destroy_vectorEEENS_28__exception_guard_exceptionsIT_EES8_, symObjAddr: 0x118E4, symBinAddr: 0x100014FEC, symSize: 0x40 }
  - { offsetInCU: 0x2558F, offset: 0x2558F, size: 0x8, addend: 0x0, symName: __ZNSt3__119__allocate_at_leastB8ue170006INS_9allocatorI9fileEntryEEEENS_19__allocation_resultINS_16allocator_traitsIT_E7pointerEEERS6_m, symObjAddr: 0x11B78, symBinAddr: 0x100015280, symSize: 0x40 }
  - { offsetInCU: 0x255D2, offset: 0x255D2, size: 0x8, addend: 0x0, symName: __ZNSt3__13minB8ue170006ImEERKT_S3_S3_, symObjAddr: 0x11C8C, symBinAddr: 0x100015394, symSize: 0x2C }
  - { offsetInCU: 0x25816, offset: 0x25816, size: 0x8, addend: 0x0, symName: __ZNSt3__13minB8ue170006ImNS_6__lessIvvEEEERKT_S5_S5_T0_, symObjAddr: 0x11CF0, symBinAddr: 0x1000153F8, symSize: 0x54 }
  - { offsetInCU: 0x25870, offset: 0x25870, size: 0x8, addend: 0x0, symName: __ZNSt3__120__throw_length_errorB8ue170006EPKc, symObjAddr: 0x11D94, symBinAddr: 0x10001549C, symSize: 0x64 }
  - { offsetInCU: 0x2589A, offset: 0x2589A, size: 0x8, addend: 0x0, symName: __ZNSt3__117__libcpp_allocateB8ue170006Emm, symObjAddr: 0x11F04, symBinAddr: 0x10001560C, symSize: 0x28 }
  - { offsetInCU: 0x258D7, offset: 0x258D7, size: 0x8, addend: 0x0, symName: __ZNSt3__121__libcpp_operator_newB8ue170006IJmEEEPvDpT_, symObjAddr: 0x11F2C, symBinAddr: 0x100015634, symSize: 0x24 }
  - { offsetInCU: 0x25910, offset: 0x25910, size: 0x8, addend: 0x0, symName: __ZNSt3__130__uninitialized_allocator_copyB8ue170006INS_9allocatorI9fileEntryEEPS2_S4_S4_EET2_RT_T0_T1_S5_, symObjAddr: 0x11FC4, symBinAddr: 0x1000156CC, symSize: 0x80 }
  - { offsetInCU: 0x259AD, offset: 0x259AD, size: 0x8, addend: 0x0, symName: __ZNSt3__114__unwrap_rangeB8ue170006IP9fileEntryS2_EENS_4pairIT0_S4_EET_S6_, symObjAddr: 0x120B4, symBinAddr: 0x1000157BC, symSize: 0x60 }
  - { offsetInCU: 0x259F9, offset: 0x259F9, size: 0x8, addend: 0x0, symName: __ZNSt3__135__uninitialized_allocator_copy_implB8ue170006INS_9allocatorI9fileEntryEEPS2_S4_S4_EET2_RT_T0_T1_S5_, symObjAddr: 0x12114, symBinAddr: 0x10001581C, symSize: 0xF4 }
  - { offsetInCU: 0x25A97, offset: 0x25A97, size: 0x8, addend: 0x0, symName: __ZNSt3__113__unwrap_iterB8ue170006IP9fileEntryNS_18__unwrap_iter_implIS2_Lb1EEELi0EEEDTclsrT0_8__unwrapclsr3stdE7declvalIT_EEEES6_, symObjAddr: 0x12208, symBinAddr: 0x100015910, symSize: 0x24 }
  - { offsetInCU: 0x25ADB, offset: 0x25ADB, size: 0x8, addend: 0x0, symName: __ZNSt3__113__rewrap_iterB8ue170006IP9fileEntryS2_NS_18__unwrap_iter_implIS2_Lb1EEEEET_S5_T0_, symObjAddr: 0x1222C, symBinAddr: 0x100015934, symSize: 0x3C }
  - { offsetInCU: 0x25B30, offset: 0x25B30, size: 0x8, addend: 0x0, symName: __ZNSt3__19make_pairB8ue170006IP9fileEntryS2_EENS_4pairINS_18__unwrap_ref_decayIT_E4typeENS4_IT0_E4typeEEEOS5_OS8_, symObjAddr: 0x12268, symBinAddr: 0x100015970, symSize: 0x38 }
  - { offsetInCU: 0x25C53, offset: 0x25C53, size: 0x8, addend: 0x0, symName: __ZNSt3__122__make_exception_guardB8ue170006INS_29_AllocatorDestroyRangeReverseINS_9allocatorI9fileEntryEEPS3_EEEENS_28__exception_guard_exceptionsIT_EES8_, symObjAddr: 0x12310, symBinAddr: 0x100015A18, symSize: 0x4C }
  - { offsetInCU: 0x25C89, offset: 0x25C89, size: 0x8, addend: 0x0, symName: __ZNSt3__119__allocator_destroyB8ue170006INS_9allocatorI9fileEntryEENS_16reverse_iteratorIPS2_EES6_EEvRT_T0_T1_, symObjAddr: 0x125A4, symBinAddr: 0x100015CAC, symSize: 0x70 }
  - { offsetInCU: 0x25CEC, offset: 0x25CEC, size: 0x8, addend: 0x0, symName: __ZNSt3__1neB8ue170006IP9fileEntryS2_EEbRKNS_16reverse_iteratorIT_EERKNS3_IT0_EE, symObjAddr: 0x12648, symBinAddr: 0x100015D50, symSize: 0x48 }
  - { offsetInCU: 0x25D38, offset: 0x25D38, size: 0x8, addend: 0x0, symName: __ZNSt3__112__to_addressB8ue170006INS_16reverse_iteratorIP9fileEntryEEvEEu7__decayIDTclsr19__to_address_helperIT_EE6__callclsr3stdE7declvalIRKS5_EEEEES7_, symObjAddr: 0x12690, symBinAddr: 0x100015D98, symSize: 0x24 }
  - { offsetInCU: 0x25DEA, offset: 0x25DEA, size: 0x8, addend: 0x0, symName: __ZNSt3__1neB8ue170006ERKNS_16__deque_iteratorINS_12basic_stringIcNS_11char_traitsIcEENS_9allocatorIcEEEEPS6_RS6_PS7_lLl170EEESC_, symObjAddr: 0x12E48, symBinAddr: 0x100016550, symSize: 0x34 }
  - { offsetInCU: 0x25E27, offset: 0x25E27, size: 0x8, addend: 0x0, symName: __ZNSt3__1eqB8ue170006ERKNS_16__deque_iteratorINS_12basic_stringIcNS_11char_traitsIcEENS_9allocatorIcEEEEPS6_RS6_PS7_lLl170EEESC_, symObjAddr: 0x1319C, symBinAddr: 0x1000168A4, symSize: 0x30 }
  - { offsetInCU: 0x25E64, offset: 0x25E64, size: 0x8, addend: 0x0, symName: __ZNSt3__112__to_addressB8ue170006INS_12basic_stringIcNS_11char_traitsIcEENS_9allocatorIcEEEEEEPT_S8_, symObjAddr: 0x13858, symBinAddr: 0x100016F60, symSize: 0x14 }
  - { offsetInCU: 0x25E99, offset: 0x25E99, size: 0x8, addend: 0x0, symName: __ZNSt3__112__to_addressB8ue170006IPNS_12basic_stringIcNS_11char_traitsIcEENS_9allocatorIcEEEEEEPT_S9_, symObjAddr: 0x13C28, symBinAddr: 0x100017330, symSize: 0x14 }
  - { offsetInCU: 0x25ECE, offset: 0x25ECE, size: 0x8, addend: 0x0, symName: __ZNSt3__112__to_addressB8ue170006IiEEPT_S2_, symObjAddr: 0x14114, symBinAddr: 0x10001781C, symSize: 0x14 }
  - { offsetInCU: 0x25F03, offset: 0x25F03, size: 0x8, addend: 0x0, symName: __ZNSt3__112__to_addressB8ue170006INS_9sub_matchINS_11__wrap_iterIPKcEEEEEEPT_S8_, symObjAddr: 0x146B0, symBinAddr: 0x100017DB8, symSize: 0x14 }
  - { offsetInCU: 0x25F38, offset: 0x25F38, size: 0x8, addend: 0x0, symName: __ZNSt3__1eqB8ue170006IPNS_12basic_stringIcNS_11char_traitsIcEENS_9allocatorIcEEEEEEbRKNS_11__wrap_iterIT_EESC_, symObjAddr: 0x14824, symBinAddr: 0x100017F2C, symSize: 0x48 }
  - { offsetInCU: 0x25F7B, offset: 0x25F7B, size: 0x8, addend: 0x0, symName: __ZNSt3__1neB8ue170006ERKNS_16__deque_iteratorIiPiRiPS1_lLl1024EEES6_, symObjAddr: 0x14ED4, symBinAddr: 0x1000185DC, symSize: 0x34 }
  - { offsetInCU: 0x25FB8, offset: 0x25FB8, size: 0x8, addend: 0x0, symName: __ZNSt3__1eqB8ue170006ERKNS_16__deque_iteratorIiPiRiPS1_lLl1024EEES6_, symObjAddr: 0x151E0, symBinAddr: 0x1000188E8, symSize: 0x30 }
  - { offsetInCU: 0x25FF5, offset: 0x25FF5, size: 0x8, addend: 0x0, symName: __ZNSt3__112__to_addressB8ue170006IPiEEPT_S3_, symObjAddr: 0x15BAC, symBinAddr: 0x1000192B4, symSize: 0x14 }
  - { offsetInCU: 0x2602A, offset: 0x2602A, size: 0x8, addend: 0x0, symName: __ZNSt3__1neB8ue170006ERKNS_16__deque_iteratorIP4NodePS2_RS2_PS3_lLl512EEES8_, symObjAddr: 0x16250, symBinAddr: 0x100019958, symSize: 0x34 }
  - { offsetInCU: 0x26067, offset: 0x26067, size: 0x8, addend: 0x0, symName: __ZNSt3__1eqB8ue170006ERKNS_16__deque_iteratorIP4NodePS2_RS2_PS3_lLl512EEES8_, symObjAddr: 0x16588, symBinAddr: 0x100019C90, symSize: 0x30 }
  - { offsetInCU: 0x260A4, offset: 0x260A4, size: 0x8, addend: 0x0, symName: __ZNSt3__112__to_addressB8ue170006IP4NodeEEPT_S4_, symObjAddr: 0x16C04, symBinAddr: 0x10001A30C, symSize: 0x14 }
  - { offsetInCU: 0x260D9, offset: 0x260D9, size: 0x8, addend: 0x0, symName: __ZNSt3__112__to_addressB8ue170006IPP4NodeEEPT_S5_, symObjAddr: 0x16FD0, symBinAddr: 0x10001A6D8, symSize: 0x14 }
  - { offsetInCU: 0x2610E, offset: 0x2610E, size: 0x8, addend: 0x0, symName: __ZNSt3__116__pad_and_outputB8ue170006IcNS_11char_traitsIcEEEENS_19ostreambuf_iteratorIT_T0_EES6_PKS4_S8_S8_RNS_8ios_baseES4_, symObjAddr: 0x17408, symBinAddr: 0x10001AB10, symSize: 0x240 }
  - { offsetInCU: 0x261DD, offset: 0x261DD, size: 0x8, addend: 0x0, symName: __ZNSt3__112__to_addressB8ue170006IKcEEPT_S3_, symObjAddr: 0x17970, symBinAddr: 0x10001B078, symSize: 0x14 }
  - { offsetInCU: 0x26250, offset: 0x26250, size: 0x8, addend: 0x0, symName: __ZNSt3__19use_facetB8ue170006INS_5ctypeIcEEEERKT_RKNS_6localeE, symObjAddr: 0x17BF0, symBinAddr: 0x10001B2F8, symSize: 0x2C }
  - { offsetInCU: 0x26285, offset: 0x26285, size: 0x8, addend: 0x0, symName: __ZNSt3__118__constexpr_strlenB8ue170006EPKc, symObjAddr: 0x17C88, symBinAddr: 0x10001B390, symSize: 0x24 }
  - { offsetInCU: 0x262B1, offset: 0x262B1, size: 0x8, addend: 0x0, symName: __ZNSt3__111regex_matchB8ue170006INS_11__wrap_iterIPKcEEcNS_12regex_traitsIcEEEEbT_S7_RKNS_11basic_regexIT0_T1_EENS_15regex_constants15match_flag_typeE, symObjAddr: 0x17D04, symBinAddr: 0x10001B40C, symSize: 0xA0 }
  - { offsetInCU: 0x26336, offset: 0x26336, size: 0x8, addend: 0x0, symName: __ZNSt3__111regex_matchB8ue170006INS_11__wrap_iterIPKcEENS_9allocatorINS_9sub_matchIS4_EEEEcNS_12regex_traitsIcEEEEbT_SB_RNS_13match_resultsISB_T0_EERKNS_11basic_regexIT1_T2_EENS_15regex_constants15match_flag_typeE, symObjAddr: 0x17DE4, symBinAddr: 0x10001B4EC, symSize: 0xD0 }
  - { offsetInCU: 0x263D3, offset: 0x263D3, size: 0x8, addend: 0x0, symName: __ZNSt3__112regex_searchB8ue170006IPKcNS_9allocatorINS_9sub_matchINS_11__wrap_iterIS2_EEEEEEcNS_12regex_traitsIcEEEEbNS5_IT_EESC_RNS_13match_resultsISC_T0_EERKNS_11basic_regexIT1_T2_EENS_15regex_constants15match_flag_typeE, symObjAddr: 0x181FC, symBinAddr: 0x10001B904, symSize: 0x128 }
  - { offsetInCU: 0x26768, offset: 0x26768, size: 0x8, addend: 0x0, symName: __ZNSt3__112__to_addressB8ue170006INS_9sub_matchIPKcEEEEPT_S6_, symObjAddr: 0x19144, symBinAddr: 0x10001C84C, symSize: 0x14 }
  - { offsetInCU: 0x2679D, offset: 0x2679D, size: 0x8, addend: 0x0, symName: __ZNSt3__119__throw_regex_errorB8ue170006ILNS_15regex_constants10error_typeE12EEEvv, symObjAddr: 0x1ACAC, symBinAddr: 0x10001E3B4, symSize: 0x60 }
  - { offsetInCU: 0x267C2, offset: 0x267C2, size: 0x8, addend: 0x0, symName: __ZNSt3__14nextB8ue170006IPKcEENS_9enable_ifIXsr29__has_input_iterator_categoryIT_EE5valueES4_E4typeES4_NS_15iterator_traitsIS4_E15difference_typeE, symObjAddr: 0x1AD64, symBinAddr: 0x10001E46C, symSize: 0x34 }
  - { offsetInCU: 0x26805, offset: 0x26805, size: 0x8, addend: 0x0, symName: __ZNSt3__119__throw_regex_errorB8ue170006ILNS_15regex_constants10error_typeE16EEEvv, symObjAddr: 0x1ADCC, symBinAddr: 0x10001E4D4, symSize: 0x60 }
  - { offsetInCU: 0x2682A, offset: 0x2682A, size: 0x8, addend: 0x0, symName: __ZNSt3__112__to_addressB8ue170006INS_7__stateIcEEEEPT_S4_, symObjAddr: 0x1B230, symBinAddr: 0x10001E938, symSize: 0x14 }
  - { offsetInCU: 0x2685F, offset: 0x2685F, size: 0x8, addend: 0x0, symName: __ZNSt3__13maxB8ue170006ImEERKT_S3_S3_, symObjAddr: 0x1BB64, symBinAddr: 0x10001F26C, symSize: 0x2C }
  - { offsetInCU: 0x268A2, offset: 0x268A2, size: 0x8, addend: 0x0, symName: __ZNSt3__13maxB8ue170006ImNS_6__lessIvvEEEERKT_S5_S5_T0_, symObjAddr: 0x1BC8C, symBinAddr: 0x10001F394, symSize: 0x54 }
  - { offsetInCU: 0x268FC, offset: 0x268FC, size: 0x8, addend: 0x0, symName: __ZNSt3__119__allocate_at_leastB8ue170006INS_9allocatorINS_7__stateIcEEEEEENS_19__allocation_resultINS_16allocator_traitsIT_E7pointerEEERS7_m, symObjAddr: 0x1BDFC, symBinAddr: 0x10001F504, symSize: 0x40 }
  - { offsetInCU: 0x2693F, offset: 0x2693F, size: 0x8, addend: 0x0, symName: __ZNSt3__142__uninitialized_allocator_move_if_noexceptB8ue170006INS_9allocatorINS_7__stateIcEEEENS_16reverse_iteratorIPS3_EES7_S7_EET2_RT_T0_T1_S8_, symObjAddr: 0x1C088, symBinAddr: 0x10001F790, symSize: 0x12C }
  - { offsetInCU: 0x269DF, offset: 0x269DF, size: 0x8, addend: 0x0, symName: __ZNSt3__14swapB8ue170006IPNS_7__stateIcEEEENS_9enable_ifIXaasr21is_move_constructibleIT_EE5valuesr18is_move_assignableIS5_EE5valueEvE4typeERS5_S8_, symObjAddr: 0x1C200, symBinAddr: 0x10001F908, symSize: 0x3C }
  - { offsetInCU: 0x26A30, offset: 0x26A30, size: 0x8, addend: 0x0, symName: __ZNSt3__122__make_exception_guardB8ue170006INS_29_AllocatorDestroyRangeReverseINS_9allocatorINS_7__stateIcEEEENS_16reverse_iteratorIPS4_EEEEEENS_28__exception_guard_exceptionsIT_EESB_, symObjAddr: 0x1C34C, symBinAddr: 0x10001FA54, symSize: 0x4C }
  - { offsetInCU: 0x26A66, offset: 0x26A66, size: 0x8, addend: 0x0, symName: __ZNSt3__1neB8ue170006IPNS_7__stateIcEES3_EEbRKNS_16reverse_iteratorIT_EERKNS4_IT0_EE, symObjAddr: 0x1C3DC, symBinAddr: 0x10001FAE4, symSize: 0x48 }
  - { offsetInCU: 0x26AB2, offset: 0x26AB2, size: 0x8, addend: 0x0, symName: __ZNSt3__112__to_addressB8ue170006INS_16reverse_iteratorIPNS_7__stateIcEEEEvEEu7__decayIDTclsr19__to_address_helperIT_EE6__callclsr3stdE7declvalIRKS6_EEEEES8_, symObjAddr: 0x1C424, symBinAddr: 0x10001FB2C, symSize: 0x24 }
  - { offsetInCU: 0x26B11, offset: 0x26B11, size: 0x8, addend: 0x0, symName: __ZNSt3__119__allocator_destroyB8ue170006INS_9allocatorINS_7__stateIcEEEENS_16reverse_iteratorINS5_IPS3_EEEES8_EEvRT_T0_T1_, symObjAddr: 0x1C6D4, symBinAddr: 0x10001FDDC, symSize: 0x70 }
  - { offsetInCU: 0x26B76, offset: 0x26B76, size: 0x8, addend: 0x0, symName: __ZNSt3__1neB8ue170006INS_16reverse_iteratorIPNS_7__stateIcEEEES5_EEbRKNS1_IT_EERKNS1_IT0_EE, symObjAddr: 0x1C780, symBinAddr: 0x10001FE88, symSize: 0x60 }
  - { offsetInCU: 0x26BC2, offset: 0x26BC2, size: 0x8, addend: 0x0, symName: __ZNSt3__112__to_addressB8ue170006INS_16reverse_iteratorINS1_IPNS_7__stateIcEEEEEEvEEu7__decayIDTclsr19__to_address_helperIT_EE6__callclsr3stdE7declvalIRKS7_EEEEES9_, symObjAddr: 0x1C80C, symBinAddr: 0x10001FF14, symSize: 0x24 }
  - { offsetInCU: 0x26C21, offset: 0x26C21, size: 0x8, addend: 0x0, symName: __ZNSt3__112__to_addressB8ue170006INS_4pairImPKcEEEEPT_S6_, symObjAddr: 0x1D284, symBinAddr: 0x10002098C, symSize: 0x14 }
  - { offsetInCU: 0x26C56, offset: 0x26C56, size: 0x8, addend: 0x0, symName: __ZNSt3__119__allocate_at_leastB8ue170006INS_9allocatorINS_9sub_matchIPKcEEEEEENS_19__allocation_resultINS_16allocator_traitsIT_E7pointerEEERS9_m, symObjAddr: 0x1DC48, symBinAddr: 0x100021350, symSize: 0x40 }
  - { offsetInCU: 0x26C99, offset: 0x26C99, size: 0x8, addend: 0x0, symName: __ZNSt3__142__uninitialized_allocator_move_if_noexceptB8ue170006INS_9allocatorINS_9sub_matchIPKcEEEENS_16reverse_iteratorIPS5_EES9_S9_EET2_RT_T0_T1_SA_, symObjAddr: 0x1DED4, symBinAddr: 0x1000215DC, symSize: 0x12C }
  - { offsetInCU: 0x26D39, offset: 0x26D39, size: 0x8, addend: 0x0, symName: __ZNSt3__14swapB8ue170006IPNS_9sub_matchIPKcEEEENS_9enable_ifIXaasr21is_move_constructibleIT_EE5valuesr18is_move_assignableIS7_EE5valueEvE4typeERS7_SA_, symObjAddr: 0x1E04C, symBinAddr: 0x100021754, symSize: 0x3C }
  - { offsetInCU: 0x26D8A, offset: 0x26D8A, size: 0x8, addend: 0x0, symName: __ZNSt3__122__make_exception_guardB8ue170006INS_29_AllocatorDestroyRangeReverseINS_9allocatorINS_9sub_matchIPKcEEEENS_16reverse_iteratorIPS6_EEEEEENS_28__exception_guard_exceptionsIT_EESD_, symObjAddr: 0x1E150, symBinAddr: 0x100021858, symSize: 0x4C }
  - { offsetInCU: 0x26DC0, offset: 0x26DC0, size: 0x8, addend: 0x0, symName: __ZNSt3__1neB8ue170006IPNS_9sub_matchIPKcEES5_EEbRKNS_16reverse_iteratorIT_EERKNS6_IT0_EE, symObjAddr: 0x1E1E0, symBinAddr: 0x1000218E8, symSize: 0x48 }
  - { offsetInCU: 0x26E0C, offset: 0x26E0C, size: 0x8, addend: 0x0, symName: __ZNSt3__112__to_addressB8ue170006INS_16reverse_iteratorIPNS_9sub_matchIPKcEEEEvEEu7__decayIDTclsr19__to_address_helperIT_EE6__callclsr3stdE7declvalIRKS8_EEEEESA_, symObjAddr: 0x1E25C, symBinAddr: 0x100021964, symSize: 0x24 }
  - { offsetInCU: 0x26E6B, offset: 0x26E6B, size: 0x8, addend: 0x0, symName: __ZNSt3__119__allocator_destroyB8ue170006INS_9allocatorINS_9sub_matchIPKcEEEENS_16reverse_iteratorINS7_IPS5_EEEESA_EEvRT_T0_T1_, symObjAddr: 0x1E53C, symBinAddr: 0x100021C44, symSize: 0x70 }
  - { offsetInCU: 0x26ED0, offset: 0x26ED0, size: 0x8, addend: 0x0, symName: __ZNSt3__1neB8ue170006INS_16reverse_iteratorIPNS_9sub_matchIPKcEEEES7_EEbRKNS1_IT_EERKNS1_IT0_EE, symObjAddr: 0x1E5E8, symBinAddr: 0x100021CF0, symSize: 0x60 }
  - { offsetInCU: 0x26F1C, offset: 0x26F1C, size: 0x8, addend: 0x0, symName: __ZNSt3__112__to_addressB8ue170006INS_16reverse_iteratorINS1_IPNS_9sub_matchIPKcEEEEEEvEEu7__decayIDTclsr19__to_address_helperIT_EE6__callclsr3stdE7declvalIRKS9_EEEEESB_, symObjAddr: 0x1E648, symBinAddr: 0x100021D50, symSize: 0x24 }
  - { offsetInCU: 0x26F7B, offset: 0x26F7B, size: 0x8, addend: 0x0, symName: __ZNSt3__119__allocate_at_leastB8ue170006INS_9allocatorINS_4pairImPKcEEEEEENS_19__allocation_resultINS_16allocator_traitsIT_E7pointerEEERS9_m, symObjAddr: 0x1F310, symBinAddr: 0x100022A18, symSize: 0x40 }
  - { offsetInCU: 0x26FBE, offset: 0x26FBE, size: 0x8, addend: 0x0, symName: __ZNSt3__142__uninitialized_allocator_move_if_noexceptB8ue170006INS_9allocatorINS_4pairImPKcEEEENS_16reverse_iteratorIPS5_EES9_S9_EET2_RT_T0_T1_SA_, symObjAddr: 0x1F590, symBinAddr: 0x100022C98, symSize: 0x12C }
  - { offsetInCU: 0x2705E, offset: 0x2705E, size: 0x8, addend: 0x0, symName: __ZNSt3__14swapB8ue170006IPNS_4pairImPKcEEEENS_9enable_ifIXaasr21is_move_constructibleIT_EE5valuesr18is_move_assignableIS7_EE5valueEvE4typeERS7_SA_, symObjAddr: 0x1F708, symBinAddr: 0x100022E10, symSize: 0x3C }
  - { offsetInCU: 0x270AF, offset: 0x270AF, size: 0x8, addend: 0x0, symName: __ZNSt3__122__make_exception_guardB8ue170006INS_29_AllocatorDestroyRangeReverseINS_9allocatorINS_4pairImPKcEEEENS_16reverse_iteratorIPS6_EEEEEENS_28__exception_guard_exceptionsIT_EESD_, symObjAddr: 0x1F7F0, symBinAddr: 0x100022EF8, symSize: 0x4C }
  - { offsetInCU: 0x270E5, offset: 0x270E5, size: 0x8, addend: 0x0, symName: __ZNSt3__1neB8ue170006IPNS_4pairImPKcEES5_EEbRKNS_16reverse_iteratorIT_EERKNS6_IT0_EE, symObjAddr: 0x1F880, symBinAddr: 0x100022F88, symSize: 0x48 }
  - { offsetInCU: 0x27131, offset: 0x27131, size: 0x8, addend: 0x0, symName: __ZNSt3__112__to_addressB8ue170006INS_16reverse_iteratorIPNS_4pairImPKcEEEEvEEu7__decayIDTclsr19__to_address_helperIT_EE6__callclsr3stdE7declvalIRKS8_EEEEESA_, symObjAddr: 0x1F8FC, symBinAddr: 0x100023004, symSize: 0x24 }
  - { offsetInCU: 0x27190, offset: 0x27190, size: 0x8, addend: 0x0, symName: __ZNSt3__119__allocator_destroyB8ue170006INS_9allocatorINS_4pairImPKcEEEENS_16reverse_iteratorINS7_IPS5_EEEESA_EEvRT_T0_T1_, symObjAddr: 0x1FBD4, symBinAddr: 0x1000232DC, symSize: 0x70 }
  - { offsetInCU: 0x271F5, offset: 0x271F5, size: 0x8, addend: 0x0, symName: __ZNSt3__1neB8ue170006INS_16reverse_iteratorIPNS_4pairImPKcEEEES7_EEbRKNS1_IT_EERKNS1_IT0_EE, symObjAddr: 0x1FC80, symBinAddr: 0x100023388, symSize: 0x60 }
  - { offsetInCU: 0x27241, offset: 0x27241, size: 0x8, addend: 0x0, symName: __ZNSt3__112__to_addressB8ue170006INS_16reverse_iteratorINS1_IPNS_4pairImPKcEEEEEEvEEu7__decayIDTclsr19__to_address_helperIT_EE6__callclsr3stdE7declvalIRKS9_EEEEESB_, symObjAddr: 0x1FCE0, symBinAddr: 0x1000233E8, symSize: 0x24 }
  - { offsetInCU: 0x272A0, offset: 0x272A0, size: 0x8, addend: 0x0, symName: __ZNSt3__121__convert_to_integralB8ue170006El, symObjAddr: 0x202DC, symBinAddr: 0x1000239E4, symSize: 0x14 }
  - { offsetInCU: 0x272CC, offset: 0x272CC, size: 0x8, addend: 0x0, symName: __ZNSt3__19__advanceB8ue170006IPKcEEvRT_NS_15iterator_traitsIS3_E15difference_typeENS_26random_access_iterator_tagE, symObjAddr: 0x202F0, symBinAddr: 0x1000239F8, symSize: 0x28 }
  - { offsetInCU: 0x27315, offset: 0x27315, size: 0x8, addend: 0x0, symName: __ZNSt3__122__make_exception_guardB8ue170006INS_6vectorINS_9sub_matchIPKcEENS_9allocatorIS5_EEE16__destroy_vectorEEENS_28__exception_guard_exceptionsIT_EESB_, symObjAddr: 0x20580, symBinAddr: 0x100023C88, symSize: 0x40 }
  - { offsetInCU: 0x2734A, offset: 0x2734A, size: 0x8, addend: 0x0, symName: __ZNSt3__130__uninitialized_allocator_copyB8ue170006INS_9allocatorINS_9sub_matchIPKcEEEEPS5_S7_S7_EET2_RT_T0_T1_S8_, symObjAddr: 0x207A0, symBinAddr: 0x100023EA8, symSize: 0x80 }
  - { offsetInCU: 0x273E7, offset: 0x273E7, size: 0x8, addend: 0x0, symName: __ZNSt3__114__unwrap_rangeB8ue170006IPNS_9sub_matchIPKcEES5_EENS_4pairIT0_S7_EET_S9_, symObjAddr: 0x20820, symBinAddr: 0x100023F28, symSize: 0x60 }
  - { offsetInCU: 0x27433, offset: 0x27433, size: 0x8, addend: 0x0, symName: __ZNSt3__135__uninitialized_allocator_copy_implB8ue170006INS_9allocatorINS_9sub_matchIPKcEEEEPS5_S7_S7_EET2_RT_T0_T1_S8_, symObjAddr: 0x20880, symBinAddr: 0x100023F88, symSize: 0xF4 }
  - { offsetInCU: 0x274D1, offset: 0x274D1, size: 0x8, addend: 0x0, symName: __ZNSt3__113__unwrap_iterB8ue170006IPNS_9sub_matchIPKcEENS_18__unwrap_iter_implIS5_Lb1EEELi0EEEDTclsrT0_8__unwrapclsr3stdE7declvalIT_EEEES9_, symObjAddr: 0x20974, symBinAddr: 0x10002407C, symSize: 0x24 }
  - { offsetInCU: 0x27515, offset: 0x27515, size: 0x8, addend: 0x0, symName: __ZNSt3__113__rewrap_iterB8ue170006IPNS_9sub_matchIPKcEES5_NS_18__unwrap_iter_implIS5_Lb1EEEEET_S8_T0_, symObjAddr: 0x20998, symBinAddr: 0x1000240A0, symSize: 0x3C }
  - { offsetInCU: 0x2756A, offset: 0x2756A, size: 0x8, addend: 0x0, symName: __ZNSt3__19make_pairB8ue170006IPNS_9sub_matchIPKcEES5_EENS_4pairINS_18__unwrap_ref_decayIT_E4typeENS7_IT0_E4typeEEEOS8_OSB_, symObjAddr: 0x209D4, symBinAddr: 0x1000240DC, symSize: 0x38 }
  - { offsetInCU: 0x2768D, offset: 0x2768D, size: 0x8, addend: 0x0, symName: __ZNSt3__122__make_exception_guardB8ue170006INS_29_AllocatorDestroyRangeReverseINS_9allocatorINS_9sub_matchIPKcEEEEPS6_EEEENS_28__exception_guard_exceptionsIT_EESB_, symObjAddr: 0x20A7C, symBinAddr: 0x100024184, symSize: 0x4C }
  - { offsetInCU: 0x276C3, offset: 0x276C3, size: 0x8, addend: 0x0, symName: __ZNSt3__119__allocator_destroyB8ue170006INS_9allocatorINS_9sub_matchIPKcEEEENS_16reverse_iteratorIPS5_EES9_EEvRT_T0_T1_, symObjAddr: 0x20D0C, symBinAddr: 0x100024414, symSize: 0x70 }
  - { offsetInCU: 0x27779, offset: 0x27779, size: 0x8, addend: 0x0, symName: __ZNSt3__122__make_exception_guardB8ue170006INS_6vectorINS_4pairImPKcEENS_9allocatorIS5_EEE16__destroy_vectorEEENS_28__exception_guard_exceptionsIT_EESB_, symObjAddr: 0x20F9C, symBinAddr: 0x1000246A4, symSize: 0x40 }
  - { offsetInCU: 0x277AE, offset: 0x277AE, size: 0x8, addend: 0x0, symName: __ZNSt3__130__uninitialized_allocator_copyB8ue170006INS_9allocatorINS_4pairImPKcEEEEPS5_S7_S7_EET2_RT_T0_T1_S8_, symObjAddr: 0x211B4, symBinAddr: 0x1000248BC, symSize: 0x80 }
  - { offsetInCU: 0x2784B, offset: 0x2784B, size: 0x8, addend: 0x0, symName: __ZNSt3__114__unwrap_rangeB8ue170006IPNS_4pairImPKcEES5_EENS1_IT0_S6_EET_S8_, symObjAddr: 0x21234, symBinAddr: 0x10002493C, symSize: 0x60 }
  - { offsetInCU: 0x27897, offset: 0x27897, size: 0x8, addend: 0x0, symName: __ZNSt3__135__uninitialized_allocator_copy_implB8ue170006INS_9allocatorINS_4pairImPKcEEEEPS5_S7_S7_EET2_RT_T0_T1_S8_, symObjAddr: 0x21294, symBinAddr: 0x10002499C, symSize: 0xF4 }
  - { offsetInCU: 0x27935, offset: 0x27935, size: 0x8, addend: 0x0, symName: __ZNSt3__113__unwrap_iterB8ue170006IPNS_4pairImPKcEENS_18__unwrap_iter_implIS5_Lb1EEELi0EEEDTclsrT0_8__unwrapclsr3stdE7declvalIT_EEEES9_, symObjAddr: 0x21388, symBinAddr: 0x100024A90, symSize: 0x24 }
  - { offsetInCU: 0x27979, offset: 0x27979, size: 0x8, addend: 0x0, symName: __ZNSt3__113__rewrap_iterB8ue170006IPNS_4pairImPKcEES5_NS_18__unwrap_iter_implIS5_Lb1EEEEET_S8_T0_, symObjAddr: 0x213AC, symBinAddr: 0x100024AB4, symSize: 0x3C }
  - { offsetInCU: 0x279CE, offset: 0x279CE, size: 0x8, addend: 0x0, symName: __ZNSt3__19make_pairB8ue170006IPNS_4pairImPKcEES5_EENS1_INS_18__unwrap_ref_decayIT_E4typeENS6_IT0_E4typeEEEOS7_OSA_, symObjAddr: 0x213E8, symBinAddr: 0x100024AF0, symSize: 0x38 }
  - { offsetInCU: 0x27AF1, offset: 0x27AF1, size: 0x8, addend: 0x0, symName: __ZNSt3__122__make_exception_guardB8ue170006INS_29_AllocatorDestroyRangeReverseINS_9allocatorINS_4pairImPKcEEEEPS6_EEEENS_28__exception_guard_exceptionsIT_EESB_, symObjAddr: 0x21490, symBinAddr: 0x100024B98, symSize: 0x4C }
  - { offsetInCU: 0x27B27, offset: 0x27B27, size: 0x8, addend: 0x0, symName: __ZNSt3__119__allocator_destroyB8ue170006INS_9allocatorINS_4pairImPKcEEEENS_16reverse_iteratorIPS5_EES9_EEvRT_T0_T1_, symObjAddr: 0x21718, symBinAddr: 0x100024E20, symSize: 0x70 }
  - { offsetInCU: 0x27BDD, offset: 0x27BDD, size: 0x8, addend: 0x0, symName: __ZNSt3__18distanceB8ue170006IPKcEENS_15iterator_traitsIT_E15difference_typeES4_S4_, symObjAddr: 0x219C0, symBinAddr: 0x1000250C8, symSize: 0x2C }
  - { offsetInCU: 0x27C20, offset: 0x27C20, size: 0x8, addend: 0x0, symName: __ZNSt3__110__distanceB8ue170006IPKcEENS_15iterator_traitsIT_E15difference_typeES4_S4_NS_26random_access_iterator_tagE, symObjAddr: 0x22838, symBinAddr: 0x100025F40, symSize: 0x20 }
  - { offsetInCU: 0x28012, offset: 0x28012, size: 0x8, addend: 0x0, symName: __ZNSt3__14swapB8ue170006IPPNS_7__stateIcEEEENS_9enable_ifIXaasr21is_move_constructibleIT_EE5valuesr18is_move_assignableIS6_EE5valueEvE4typeERS6_S9_, symObjAddr: 0x23D44, symBinAddr: 0x10002744C, symSize: 0x3C }
  - { offsetInCU: 0x28063, offset: 0x28063, size: 0x8, addend: 0x0, symName: __ZNSt3__14moveB8ue170006IPPNS_7__stateIcEES4_EET0_T_S6_S5_, symObjAddr: 0x23E74, symBinAddr: 0x10002757C, symSize: 0x40 }
  - { offsetInCU: 0x280BD, offset: 0x280BD, size: 0x8, addend: 0x0, symName: __ZNSt3__112__to_addressB8ue170006IPNS_7__stateIcEEEEPT_S5_, symObjAddr: 0x23F7C, symBinAddr: 0x100027684, symSize: 0x14 }
  - { offsetInCU: 0x280F2, offset: 0x280F2, size: 0x8, addend: 0x0, symName: __ZNSt3__16__moveB8ue170006INS_17_ClassicAlgPolicyEPPNS_7__stateIcEES5_S5_EENS_4pairIT0_T2_EES7_T1_S8_, symObjAddr: 0x23F90, symBinAddr: 0x100027698, symSize: 0x44 }
  - { offsetInCU: 0x2815E, offset: 0x2815E, size: 0x8, addend: 0x0, symName: __ZNSt3__123__dispatch_copy_or_moveB8ue170006INS_17_ClassicAlgPolicyENS_11__move_loopIS1_EENS_14__move_trivialEPPNS_7__stateIcEES8_S8_EENS_4pairIT2_T4_EESA_T3_SB_, symObjAddr: 0x23FD4, symBinAddr: 0x1000276DC, symSize: 0x44 }
  - { offsetInCU: 0x281DC, offset: 0x281DC, size: 0x8, addend: 0x0, symName: __ZNSt3__121__unwrap_and_dispatchB8ue170006INS_10__overloadINS_11__move_loopINS_17_ClassicAlgPolicyEEENS_14__move_trivialEEEPPNS_7__stateIcEESA_SA_Li0EEENS_4pairIT0_T2_EESC_T1_SD_, symObjAddr: 0x24018, symBinAddr: 0x100027720, symSize: 0xB4 }
  - { offsetInCU: 0x2826A, offset: 0x2826A, size: 0x8, addend: 0x0, symName: __ZNSt3__114__unwrap_rangeB8ue170006IPPNS_7__stateIcEES4_EENS_4pairIT0_S6_EET_S8_, symObjAddr: 0x240CC, symBinAddr: 0x1000277D4, symSize: 0x60 }
  - { offsetInCU: 0x284E2, offset: 0x284E2, size: 0x8, addend: 0x0, symName: __ZNSt3__113__unwrap_iterB8ue170006IPPNS_7__stateIcEENS_18__unwrap_iter_implIS4_Lb1EEELi0EEEDTclsrT0_8__unwrapclsr3stdE7declvalIT_EEEES8_, symObjAddr: 0x24174, symBinAddr: 0x10002787C, symSize: 0x24 }
  - { offsetInCU: 0x28526, offset: 0x28526, size: 0x8, addend: 0x0, symName: __ZNSt3__19make_pairB8ue170006IPPNS_7__stateIcEES4_EENS_4pairINS_18__unwrap_ref_decayIT_E4typeENS6_IT0_E4typeEEEOS7_OSA_, symObjAddr: 0x24198, symBinAddr: 0x1000278A0, symSize: 0x38 }
  - { offsetInCU: 0x28575, offset: 0x28575, size: 0x8, addend: 0x0, symName: __ZNSt3__114__rewrap_rangeB8ue170006IPPNS_7__stateIcEES4_EET_S5_T0_, symObjAddr: 0x241D0, symBinAddr: 0x1000278D8, symSize: 0x2C }
  - { offsetInCU: 0x285C1, offset: 0x285C1, size: 0x8, addend: 0x0, symName: __ZNSt3__113__rewrap_iterB8ue170006IPPNS_7__stateIcEES4_NS_18__unwrap_iter_implIS4_Lb1EEEEET_S7_T0_, symObjAddr: 0x241FC, symBinAddr: 0x100027904, symSize: 0x3C }
  - { offsetInCU: 0x28616, offset: 0x28616, size: 0x8, addend: 0x0, symName: __ZNSt3__119__copy_trivial_implB8ue170006IPNS_7__stateIcEES3_EENS_4pairIPT_PT0_EES6_S6_S8_, symObjAddr: 0x24238, symBinAddr: 0x100027940, symSize: 0x80 }
  - { offsetInCU: 0x2867E, offset: 0x2867E, size: 0x8, addend: 0x0, symName: __ZNSt3__119__constexpr_memmoveB8ue170006IPNS_7__stateIcEES3_Li0EEEPT_S5_PT0_NS_15__element_countE, symObjAddr: 0x242B8, symBinAddr: 0x1000279C0, symSize: 0x64 }
  - { offsetInCU: 0x286EC, offset: 0x286EC, size: 0x8, addend: 0x0, symName: __ZNSt3__19make_pairB8ue170006IRPPNS_7__stateIcEES4_EENS_4pairINS_18__unwrap_ref_decayIT_E4typeENS7_IT0_E4typeEEEOS8_OSB_, symObjAddr: 0x2431C, symBinAddr: 0x100027A24, symSize: 0x38 }
  - { offsetInCU: 0x2878E, offset: 0x2878E, size: 0x8, addend: 0x0, symName: __ZNSt3__18distanceB8ue170006INS_13move_iteratorIPPNS_7__stateIcEEEEEENS_15iterator_traitsIT_E15difference_typeES8_S8_, symObjAddr: 0x24584, symBinAddr: 0x100027C8C, symSize: 0x3C }
  - { offsetInCU: 0x287D1, offset: 0x287D1, size: 0x8, addend: 0x0, symName: __ZNSt3__110__distanceB8ue170006INS_13move_iteratorIPPNS_7__stateIcEEEEEENS_15iterator_traitsIT_E15difference_typeES8_S8_NS_26random_access_iterator_tagE, symObjAddr: 0x24788, symBinAddr: 0x100027E90, symSize: 0x30 }
  - { offsetInCU: 0x2881E, offset: 0x2881E, size: 0x8, addend: 0x0, symName: __ZNSt3__1miB8ue170006IPPNS_7__stateIcEES4_EEDTmicldtfp_4baseEcldtfp0_4baseEERKNS_13move_iteratorIT_EERKNS6_IT0_EE, symObjAddr: 0x247B8, symBinAddr: 0x100027EC0, symSize: 0x48 }
  - { offsetInCU: 0x2886D, offset: 0x2886D, size: 0x8, addend: 0x0, symName: __ZNSt3__113move_backwardB8ue170006IPPNS_7__stateIcEES4_EET0_T_S6_S5_, symObjAddr: 0x248C0, symBinAddr: 0x100027FC8, symSize: 0x40 }
  - { offsetInCU: 0x288C7, offset: 0x288C7, size: 0x8, addend: 0x0, symName: __ZNSt3__115__move_backwardB8ue170006INS_17_ClassicAlgPolicyEPPNS_7__stateIcEES5_S5_EENS_4pairIT0_T2_EES7_T1_S8_, symObjAddr: 0x24900, symBinAddr: 0x100028008, symSize: 0x44 }
  - { offsetInCU: 0x28933, offset: 0x28933, size: 0x8, addend: 0x0, symName: __ZNSt3__123__dispatch_copy_or_moveB8ue170006INS_17_ClassicAlgPolicyENS_20__move_backward_loopIS1_EENS_23__move_backward_trivialEPPNS_7__stateIcEES8_S8_EENS_4pairIT2_T4_EESA_T3_SB_, symObjAddr: 0x24944, symBinAddr: 0x10002804C, symSize: 0x44 }
  - { offsetInCU: 0x289B1, offset: 0x289B1, size: 0x8, addend: 0x0, symName: __ZNSt3__121__unwrap_and_dispatchB8ue170006INS_10__overloadINS_20__move_backward_loopINS_17_ClassicAlgPolicyEEENS_23__move_backward_trivialEEEPPNS_7__stateIcEESA_SA_Li0EEENS_4pairIT0_T2_EESC_T1_SD_, symObjAddr: 0x24988, symBinAddr: 0x100028090, symSize: 0xB4 }
  - { offsetInCU: 0x28B39, offset: 0x28B39, size: 0x8, addend: 0x0, symName: __ZNSt3__128__copy_backward_trivial_implB8ue170006IPNS_7__stateIcEES3_EENS_4pairIPT_PT0_EES6_S6_S8_, symObjAddr: 0x24A84, symBinAddr: 0x10002818C, symSize: 0x90 }
  - { offsetInCU: 0x28BA1, offset: 0x28BA1, size: 0x8, addend: 0x0, symName: __ZNSt3__19make_pairB8ue170006IRPPNS_7__stateIcEES5_EENS_4pairINS_18__unwrap_ref_decayIT_E4typeENS7_IT0_E4typeEEEOS8_OSB_, symObjAddr: 0x24B14, symBinAddr: 0x10002821C, symSize: 0x38 }
  - { offsetInCU: 0x28BF0, offset: 0x28BF0, size: 0x8, addend: 0x0, symName: __ZNSt3__119__allocate_at_leastB8ue170006INS_9allocatorIPNS_7__stateIcEEEEEENS_19__allocation_resultINS_16allocator_traitsIT_E7pointerEEERS8_m, symObjAddr: 0x24D48, symBinAddr: 0x100028450, symSize: 0x40 }
  - { offsetInCU: 0x28C33, offset: 0x28C33, size: 0x8, addend: 0x0, symName: __ZNSt3__1neB8ue170006ERKNS_16__deque_iteratorINS_7__stateIcEEPS2_RS2_PS3_lLl42EEES8_, symObjAddr: 0x258D4, symBinAddr: 0x100028FDC, symSize: 0x34 }
  - { offsetInCU: 0x28C70, offset: 0x28C70, size: 0x8, addend: 0x0, symName: __ZNSt3__1eqB8ue170006ERKNS_16__deque_iteratorINS_7__stateIcEEPS2_RS2_PS3_lLl42EEES8_, symObjAddr: 0x25978, symBinAddr: 0x100029080, symSize: 0x30 }
  - { offsetInCU: 0x28CAD, offset: 0x28CAD, size: 0x8, addend: 0x0, symName: __ZNSt3__18distanceB8ue170006IPNS_9sub_matchIPKcEEEENS_15iterator_traitsIT_E15difference_typeES7_S7_, symObjAddr: 0x267DC, symBinAddr: 0x100029EE4, symSize: 0x2C }
  - { offsetInCU: 0x28CF0, offset: 0x28CF0, size: 0x8, addend: 0x0, symName: __ZNSt3__14nextB8ue170006IPNS_9sub_matchIPKcEEEENS_9enable_ifIXsr29__has_input_iterator_categoryIT_EE5valueES7_E4typeES7_NS_15iterator_traitsIS7_E15difference_typeE, symObjAddr: 0x26808, symBinAddr: 0x100029F10, symSize: 0x34 }
  - { offsetInCU: 0x28D33, offset: 0x28D33, size: 0x8, addend: 0x0, symName: __ZNSt3__14copyB8ue170006IPNS_9sub_matchIPKcEES5_EET0_T_S7_S6_, symObjAddr: 0x2683C, symBinAddr: 0x100029F44, symSize: 0x40 }
  - { offsetInCU: 0x28D8D, offset: 0x28D8D, size: 0x8, addend: 0x0, symName: __ZNSt3__16__copyB8ue170006INS_17_ClassicAlgPolicyEPNS_9sub_matchIPKcEES6_S6_EENS_4pairIT0_T2_EES8_T1_S9_, symObjAddr: 0x2687C, symBinAddr: 0x100029F84, symSize: 0x44 }
  - { offsetInCU: 0x28DF9, offset: 0x28DF9, size: 0x8, addend: 0x0, symName: __ZNSt3__19__advanceB8ue170006IPNS_9sub_matchIPKcEEEEvRT_NS_15iterator_traitsIS6_E15difference_typeENS_26random_access_iterator_tagE, symObjAddr: 0x2698C, symBinAddr: 0x10002A094, symSize: 0x30 }
  - { offsetInCU: 0x28E42, offset: 0x28E42, size: 0x8, addend: 0x0, symName: __ZNSt3__123__dispatch_copy_or_moveB8ue170006INS_17_ClassicAlgPolicyENS_11__copy_loopIS1_EENS_14__copy_trivialEPNS_9sub_matchIPKcEES9_S9_EENS_4pairIT2_T4_EESB_T3_SC_, symObjAddr: 0x269BC, symBinAddr: 0x10002A0C4, symSize: 0x44 }
  - { offsetInCU: 0x28EC0, offset: 0x28EC0, size: 0x8, addend: 0x0, symName: __ZNSt3__121__unwrap_and_dispatchB8ue170006INS_10__overloadINS_11__copy_loopINS_17_ClassicAlgPolicyEEENS_14__copy_trivialEEEPNS_9sub_matchIPKcEESB_SB_Li0EEENS_4pairIT0_T2_EESD_T1_SE_, symObjAddr: 0x26A00, symBinAddr: 0x10002A108, symSize: 0xB4 }
  - { offsetInCU: 0x28FE8, offset: 0x28FE8, size: 0x8, addend: 0x0, symName: __ZNSt3__114__rewrap_rangeB8ue170006IPNS_9sub_matchIPKcEES5_EET_S6_T0_, symObjAddr: 0x26B3C, symBinAddr: 0x10002A244, symSize: 0x2C }
  - { offsetInCU: 0x29034, offset: 0x29034, size: 0x8, addend: 0x0, symName: __ZNSt3__110__distanceB8ue170006IPNS_9sub_matchIPKcEEEENS_15iterator_traitsIT_E15difference_typeES7_S7_NS_26random_access_iterator_tagE, symObjAddr: 0x26B68, symBinAddr: 0x10002A270, symSize: 0x28 }
  - { offsetInCU: 0x29081, offset: 0x29081, size: 0x8, addend: 0x0, symName: __ZNSt3__18distanceB8ue170006IPNS_4pairImPKcEEEENS_15iterator_traitsIT_E15difference_typeES7_S7_, symObjAddr: 0x26D90, symBinAddr: 0x10002A498, symSize: 0x2C }
  - { offsetInCU: 0x290C4, offset: 0x290C4, size: 0x8, addend: 0x0, symName: __ZNSt3__14nextB8ue170006IPNS_4pairImPKcEEEENS_9enable_ifIXsr29__has_input_iterator_categoryIT_EE5valueES7_E4typeES7_NS_15iterator_traitsIS7_E15difference_typeE, symObjAddr: 0x26DBC, symBinAddr: 0x10002A4C4, symSize: 0x34 }
  - { offsetInCU: 0x29107, offset: 0x29107, size: 0x8, addend: 0x0, symName: __ZNSt3__14copyB8ue170006IPNS_4pairImPKcEES5_EET0_T_S7_S6_, symObjAddr: 0x26DF0, symBinAddr: 0x10002A4F8, symSize: 0x40 }
  - { offsetInCU: 0x29161, offset: 0x29161, size: 0x8, addend: 0x0, symName: __ZNSt3__16__copyB8ue170006INS_17_ClassicAlgPolicyEPNS_4pairImPKcEES6_S6_EENS2_IT0_T2_EES7_T1_S8_, symObjAddr: 0x26E30, symBinAddr: 0x10002A538, symSize: 0x44 }
  - { offsetInCU: 0x291CD, offset: 0x291CD, size: 0x8, addend: 0x0, symName: __ZNSt3__19__advanceB8ue170006IPNS_4pairImPKcEEEEvRT_NS_15iterator_traitsIS6_E15difference_typeENS_26random_access_iterator_tagE, symObjAddr: 0x26F40, symBinAddr: 0x10002A648, symSize: 0x28 }
  - { offsetInCU: 0x29216, offset: 0x29216, size: 0x8, addend: 0x0, symName: __ZNSt3__123__dispatch_copy_or_moveB8ue170006INS_17_ClassicAlgPolicyENS_11__copy_loopIS1_EENS_14__copy_trivialEPNS_4pairImPKcEES9_S9_EENS5_IT2_T4_EESA_T3_SB_, symObjAddr: 0x26F68, symBinAddr: 0x10002A670, symSize: 0x44 }
  - { offsetInCU: 0x29294, offset: 0x29294, size: 0x8, addend: 0x0, symName: __ZNSt3__121__unwrap_and_dispatchB8ue170006INS_10__overloadINS_11__copy_loopINS_17_ClassicAlgPolicyEEENS_14__copy_trivialEEEPNS_4pairImPKcEESB_SB_Li0EEENS7_IT0_T2_EESC_T1_SD_, symObjAddr: 0x26FAC, symBinAddr: 0x10002A6B4, symSize: 0xB4 }
  - { offsetInCU: 0x29322, offset: 0x29322, size: 0x8, addend: 0x0, symName: __ZNSt3__114__rewrap_rangeB8ue170006IPNS_4pairImPKcEES5_EET_S6_T0_, symObjAddr: 0x270E8, symBinAddr: 0x10002A7F0, symSize: 0x2C }
  - { offsetInCU: 0x2936E, offset: 0x2936E, size: 0x8, addend: 0x0, symName: __ZNSt3__110__distanceB8ue170006IPNS_4pairImPKcEEEENS_15iterator_traitsIT_E15difference_typeES7_S7_NS_26random_access_iterator_tagE, symObjAddr: 0x27188, symBinAddr: 0x10002A890, symSize: 0x28 }
  - { offsetInCU: 0x293BB, offset: 0x293BB, size: 0x8, addend: 0x0, symName: __ZNSt3__16fill_nB8ue170006IPNS_9sub_matchIPKcEEmS4_EET_S6_T0_RKT1_, symObjAddr: 0x271DC, symBinAddr: 0x10002A8E4, symSize: 0x44 }
  - { offsetInCU: 0x2941E, offset: 0x2941E, size: 0x8, addend: 0x0, symName: __ZNSt3__18__fill_nB8ue170006IPNS_9sub_matchIPKcEEmS4_EET_S6_T0_RKT1_, symObjAddr: 0x27220, symBinAddr: 0x10002A928, symSize: 0x6C }
  - { offsetInCU: 0x29481, offset: 0x29481, size: 0x8, addend: 0x0, symName: __ZNSt3__121__convert_to_integralB8ue170006Em, symObjAddr: 0x2728C, symBinAddr: 0x10002A994, symSize: 0x14 }
  - { offsetInCU: 0x294AD, offset: 0x294AD, size: 0x8, addend: 0x0, symName: __ZNSt3__14nextB8ue170006INS_11__wrap_iterIPKcEEEENS_9enable_ifIXsr29__has_input_iterator_categoryIT_EE5valueES6_E4typeES6_NS_15iterator_traitsIS6_E15difference_typeE, symObjAddr: 0x27354, symBinAddr: 0x10002AA5C, symSize: 0x3C }
  - { offsetInCU: 0x294F0, offset: 0x294F0, size: 0x8, addend: 0x0, symName: __ZNSt3__119__allocate_at_leastB8ue170006INS_9allocatorINS_9sub_matchINS_11__wrap_iterIPKcEEEEEEEENS_19__allocation_resultINS_16allocator_traitsIT_E7pointerEEERSB_m, symObjAddr: 0x27CB0, symBinAddr: 0x10002B3B8, symSize: 0x40 }
  - { offsetInCU: 0x29533, offset: 0x29533, size: 0x8, addend: 0x0, symName: __ZNSt3__142__uninitialized_allocator_move_if_noexceptB8ue170006INS_9allocatorINS_9sub_matchINS_11__wrap_iterIPKcEEEEEENS_16reverse_iteratorIPS7_EESB_SB_EET2_RT_T0_T1_SC_, symObjAddr: 0x27F3C, symBinAddr: 0x10002B644, symSize: 0x12C }
  - { offsetInCU: 0x295D3, offset: 0x295D3, size: 0x8, addend: 0x0, symName: __ZNSt3__14swapB8ue170006IPNS_9sub_matchINS_11__wrap_iterIPKcEEEEEENS_9enable_ifIXaasr21is_move_constructibleIT_EE5valuesr18is_move_assignableIS9_EE5valueEvE4typeERS9_SC_, symObjAddr: 0x280B4, symBinAddr: 0x10002B7BC, symSize: 0x3C }
  - { offsetInCU: 0x29624, offset: 0x29624, size: 0x8, addend: 0x0, symName: __ZNSt3__122__make_exception_guardB8ue170006INS_29_AllocatorDestroyRangeReverseINS_9allocatorINS_9sub_matchINS_11__wrap_iterIPKcEEEEEENS_16reverse_iteratorIPS8_EEEEEENS_28__exception_guard_exceptionsIT_EESF_, symObjAddr: 0x281B8, symBinAddr: 0x10002B8C0, symSize: 0x4C }
  - { offsetInCU: 0x2965A, offset: 0x2965A, size: 0x8, addend: 0x0, symName: __ZNSt3__1neB8ue170006IPNS_9sub_matchINS_11__wrap_iterIPKcEEEES7_EEbRKNS_16reverse_iteratorIT_EERKNS8_IT0_EE, symObjAddr: 0x28248, symBinAddr: 0x10002B950, symSize: 0x48 }
  - { offsetInCU: 0x296A6, offset: 0x296A6, size: 0x8, addend: 0x0, symName: __ZNSt3__112__to_addressB8ue170006INS_16reverse_iteratorIPNS_9sub_matchINS_11__wrap_iterIPKcEEEEEEvEEu7__decayIDTclsr19__to_address_helperIT_EE6__callclsr3stdE7declvalIRKSA_EEEEESC_, symObjAddr: 0x282C4, symBinAddr: 0x10002B9CC, symSize: 0x24 }
  - { offsetInCU: 0x29705, offset: 0x29705, size: 0x8, addend: 0x0, symName: __ZNSt3__119__allocator_destroyB8ue170006INS_9allocatorINS_9sub_matchINS_11__wrap_iterIPKcEEEEEENS_16reverse_iteratorINS9_IPS7_EEEESC_EEvRT_T0_T1_, symObjAddr: 0x285A4, symBinAddr: 0x10002BCAC, symSize: 0x70 }
  - { offsetInCU: 0x2976A, offset: 0x2976A, size: 0x8, addend: 0x0, symName: __ZNSt3__1neB8ue170006INS_16reverse_iteratorIPNS_9sub_matchINS_11__wrap_iterIPKcEEEEEES9_EEbRKNS1_IT_EERKNS1_IT0_EE, symObjAddr: 0x28650, symBinAddr: 0x10002BD58, symSize: 0x60 }
  - { offsetInCU: 0x297B6, offset: 0x297B6, size: 0x8, addend: 0x0, symName: __ZNSt3__112__to_addressB8ue170006INS_16reverse_iteratorINS1_IPNS_9sub_matchINS_11__wrap_iterIPKcEEEEEEEEvEEu7__decayIDTclsr19__to_address_helperIT_EE6__callclsr3stdE7declvalIRKSB_EEEEESD_, symObjAddr: 0x286B0, symBinAddr: 0x10002BDB8, symSize: 0x24 }
  - { offsetInCU: 0x29815, offset: 0x29815, size: 0x8, addend: 0x0, symName: __ZNSt3__19__advanceB8ue170006INS_11__wrap_iterIPKcEEEEvRT_NS_15iterator_traitsIS5_E15difference_typeENS_26random_access_iterator_tagE, symObjAddr: 0x28B20, symBinAddr: 0x10002C228, symSize: 0x2C }
  - { offsetInCU: 0x2985E, offset: 0x2985E, size: 0x8, addend: 0x0, symName: __ZNSt3__19use_facetB8ue170006INS_7collateIcEEEERKT_RKNS_6localeE, symObjAddr: 0x290C4, symBinAddr: 0x10002C7CC, symSize: 0x2C }
  - { offsetInCU: 0x29893, offset: 0x29893, size: 0x8, addend: 0x0, symName: __ZNSt3__119__throw_regex_errorB8ue170006ILNS_15regex_constants10error_typeE17EEEvv, symObjAddr: 0x294D8, symBinAddr: 0x10002CBE0, symSize: 0x60 }
  - { offsetInCU: 0x29D24, offset: 0x29D24, size: 0x8, addend: 0x0, symName: __ZNSt3__119__throw_regex_errorB8ue170006ILNS_15regex_constants10error_typeE14EEEvv, symObjAddr: 0x29D3C, symBinAddr: 0x10002D444, symSize: 0x60 }
  - { offsetInCU: 0x2A8EF, offset: 0x2A8EF, size: 0x8, addend: 0x0, symName: __ZNSt3__119__throw_regex_errorB8ue170006ILNS_15regex_constants10error_typeE6EEEvv, symObjAddr: 0x2C534, symBinAddr: 0x10002FC3C, symSize: 0x60 }
  - { offsetInCU: 0x2A99A, offset: 0x2A99A, size: 0x8, addend: 0x0, symName: __ZNSt3__18__is_eolB8ue170006IcEEbT_, symObjAddr: 0x2C868, symBinAddr: 0x10002FF70, symSize: 0x48 }
  - { offsetInCU: 0x2A9D1, offset: 0x2A9D1, size: 0x8, addend: 0x0, symName: __ZNSt3__14prevB8ue170006IPKcEENS_9enable_ifIXsr29__has_input_iterator_categoryIT_EE5valueES4_E4typeES4_NS_15iterator_traitsIS4_E15difference_typeE, symObjAddr: 0x2C8B0, symBinAddr: 0x10002FFB8, symSize: 0x3C }
  - { offsetInCU: 0x2AC1C, offset: 0x2AC1C, size: 0x8, addend: 0x0, symName: __ZNSt3__134__libcpp_atomic_refcount_incrementB8ue170006IlEET_RS1_, symObjAddr: 0x2D630, symBinAddr: 0x100030D38, symSize: 0x30 }
  - { offsetInCU: 0x2AC51, offset: 0x2AC51, size: 0x8, addend: 0x0, symName: __ZNSt3__119__throw_regex_errorB8ue170006ILNS_15regex_constants10error_typeE11EEEvv, symObjAddr: 0x2DC18, symBinAddr: 0x100031320, symSize: 0x60 }
  - { offsetInCU: 0x2ACEA, offset: 0x2ACEA, size: 0x8, addend: 0x0, symName: __ZNSt3__119__throw_regex_errorB8ue170006ILNS_15regex_constants10error_typeE3EEEvv, symObjAddr: 0x2DF90, symBinAddr: 0x100031698, symSize: 0x60 }
  - { offsetInCU: 0x2AF10, offset: 0x2AF10, size: 0x8, addend: 0x0, symName: __ZNSt3__119__throw_regex_errorB8ue170006ILNS_15regex_constants10error_typeE4EEEvv, symObjAddr: 0x2ED48, symBinAddr: 0x100032450, symSize: 0x60 }
  - { offsetInCU: 0x2B34F, offset: 0x2B34F, size: 0x8, addend: 0x0, symName: __ZNSt3__15equalB8ue170006IPKcS2_EEbT_S3_T0_, symObjAddr: 0x2FECC, symBinAddr: 0x1000335D4, symSize: 0x38 }
  - { offsetInCU: 0x2B3A9, offset: 0x2B3A9, size: 0x8, addend: 0x0, symName: __ZNSt3__15equalB8ue170006IPKcS2_NS_10__equal_toEEEbT_S4_T0_T1_, symObjAddr: 0x2FF04, symBinAddr: 0x10003360C, symSize: 0x5C }
  - { offsetInCU: 0x2B41A, offset: 0x2B41A, size: 0x8, addend: 0x0, symName: __ZNSt3__117__equal_iter_implB8ue170006IKcS1_NS_10__equal_toELi0EEEbPT_S4_PT0_RT1_, symObjAddr: 0x2FF60, symBinAddr: 0x100033668, symSize: 0x44 }
  - { offsetInCU: 0x2B48D, offset: 0x2B48D, size: 0x8, addend: 0x0, symName: __ZNSt3__113__unwrap_iterB8ue170006IPKcNS_18__unwrap_iter_implIS2_Lb1EEELi0EEEDTclsrT0_8__unwrapclsr3stdE7declvalIT_EEEES6_, symObjAddr: 0x2FFA4, symBinAddr: 0x1000336AC, symSize: 0x24 }
  - { offsetInCU: 0x2B4D1, offset: 0x2B4D1, size: 0x8, addend: 0x0, symName: __ZNSt3__124__constexpr_memcmp_equalB8ue170006IccEEbPKT_PKT0_NS_15__element_countE, symObjAddr: 0x2FFC8, symBinAddr: 0x1000336D0, symSize: 0x4C }
  - { offsetInCU: 0x2B58C, offset: 0x2B58C, size: 0x8, addend: 0x0, symName: __ZNSt3__1neB8ue170006IcNS_11char_traitsIcEENS_9allocatorIcEEEEbRKNS_12basic_stringIT_T0_T1_EEPKS6_, symObjAddr: 0x3051C, symBinAddr: 0x100033C24, symSize: 0x34 }
  - { offsetInCU: 0x2B5E4, offset: 0x2B5E4, size: 0x8, addend: 0x0, symName: __ZNSt3__112__to_addressB8ue170006INS_4pairIccEEEEPT_S4_, symObjAddr: 0x3176C, symBinAddr: 0x100034E74, symSize: 0x14 }
  - { offsetInCU: 0x2B619, offset: 0x2B619, size: 0x8, addend: 0x0, symName: __ZNSt3__112__to_addressB8ue170006INS_4pairINS_12basic_stringIcNS_11char_traitsIcEENS_9allocatorIcEEEES7_EEEEPT_SA_, symObjAddr: 0x31C54, symBinAddr: 0x10003535C, symSize: 0x14 }
  - { offsetInCU: 0x2B64E, offset: 0x2B64E, size: 0x8, addend: 0x0, symName: __ZNSt3__112__to_addressB8ue170006IcEEPT_S2_, symObjAddr: 0x32194, symBinAddr: 0x10003589C, symSize: 0x14 }
  - { offsetInCU: 0x2B683, offset: 0x2B683, size: 0x8, addend: 0x0, symName: __ZNSt3__1eqB8ue170006IccccEEbRKNS_4pairIT_T0_EERKNS1_IT1_T2_EE, symObjAddr: 0x3242C, symBinAddr: 0x100035B34, symSize: 0x64 }
  - { offsetInCU: 0x2B6E4, offset: 0x2B6E4, size: 0x8, addend: 0x0, symName: __ZNSt3__1leB8ue170006IcNS_11char_traitsIcEENS_9allocatorIcEEEEbRKNS_12basic_stringIT_T0_T1_EESB_, symObjAddr: 0x325CC, symBinAddr: 0x100035CD4, symSize: 0x34 }
  - { offsetInCU: 0x2B73C, offset: 0x2B73C, size: 0x8, addend: 0x0, symName: __ZNSt3__1eqB8ue170006INS_9allocatorIcEEEEbRKNS_12basic_stringIcNS_11char_traitsIcEET_EES9_, symObjAddr: 0x32694, symBinAddr: 0x100035D9C, symSize: 0x148 }
  - { offsetInCU: 0x2B7AF, offset: 0x2B7AF, size: 0x8, addend: 0x0, symName: __ZNSt3__1neB8ue170006IPKcEEbRKNS_11__wrap_iterIT_EES7_, symObjAddr: 0x32854, symBinAddr: 0x100035F5C, symSize: 0x34 }
  - { offsetInCU: 0x2B7F2, offset: 0x2B7F2, size: 0x8, addend: 0x0, symName: __ZNSt3__14findB8ue170006INS_11__wrap_iterIPKcEEcEET_S5_S5_RKT0_, symObjAddr: 0x32888, symBinAddr: 0x100035F90, symSize: 0x78 }
  - { offsetInCU: 0x2B85A, offset: 0x2B85A, size: 0x8, addend: 0x0, symName: __ZNSt3__18distanceB8ue170006IPcEENS_15iterator_traitsIT_E15difference_typeES3_S3_, symObjAddr: 0x32D08, symBinAddr: 0x100036410, symSize: 0x2C }
  - { offsetInCU: 0x2B89D, offset: 0x2B89D, size: 0x8, addend: 0x0, symName: __ZNSt3__110__distanceB8ue170006IPcEENS_15iterator_traitsIT_E15difference_typeES3_S3_NS_26random_access_iterator_tagE, symObjAddr: 0x32E78, symBinAddr: 0x100036580, symSize: 0x20 }
  - { offsetInCU: 0x2B8EA, offset: 0x2B8EA, size: 0x8, addend: 0x0, symName: __ZNSt3__119__allocate_at_leastB8ue170006INS_9allocatorIcEEEENS_19__allocation_resultINS_16allocator_traitsIT_E7pointerEEERS5_m, symObjAddr: 0x33020, symBinAddr: 0x100036728, symSize: 0x40 }
  - { offsetInCU: 0x2BB62, offset: 0x2BB62, size: 0x8, addend: 0x0, symName: __ZNSt3__1ltB8ue170006IcNS_11char_traitsIcEENS_9allocatorIcEEEEbRKNS_12basic_stringIT_T0_T1_EESB_, symObjAddr: 0x333DC, symBinAddr: 0x100036AE4, symSize: 0x38 }
  - { offsetInCU: 0x2BBBA, offset: 0x2BBBA, size: 0x8, addend: 0x0, symName: __ZNSt3__1eqB8ue170006IPKcEEbRKNS_11__wrap_iterIT_EES7_, symObjAddr: 0x338C8, symBinAddr: 0x100036FD0, symSize: 0x48 }
  - { offsetInCU: 0x2BBFD, offset: 0x2BBFD, size: 0x8, addend: 0x0, symName: __ZNSt3__113__rewrap_iterB8ue170006INS_11__wrap_iterIPKcEES3_NS_18__unwrap_iter_implIS4_Lb1EEEEET_S7_T0_, symObjAddr: 0x33910, symBinAddr: 0x100037018, symSize: 0x4C }
  - { offsetInCU: 0x2BC52, offset: 0x2BC52, size: 0x8, addend: 0x0, symName: __ZNSt3__111__find_implB8ue170006IKccNS_10__identityELi0EEEPT_S4_S4_RKT0_RT1_, symObjAddr: 0x3395C, symBinAddr: 0x100037064, symSize: 0x78 }
  - { offsetInCU: 0x2BCD9, offset: 0x2BCD9, size: 0x8, addend: 0x0, symName: __ZNSt3__113__unwrap_iterB8ue170006INS_11__wrap_iterIPKcEENS_18__unwrap_iter_implIS4_Lb1EEELi0EEEDTclsrT0_8__unwrapclsr3stdE7declvalIT_EEEES8_, symObjAddr: 0x339D4, symBinAddr: 0x1000370DC, symSize: 0x2C }
  - { offsetInCU: 0x2BD70, offset: 0x2BD70, size: 0x8, addend: 0x0, symName: __ZNSt3__112__to_addressB8ue170006INS_11__wrap_iterIPKcEEvEEu7__decayIDTclsr19__to_address_helperIT_EE6__callclsr3stdE7declvalIRKS5_EEEEES7_, symObjAddr: 0x33A90, symBinAddr: 0x100037198, symSize: 0x24 }
  - { offsetInCU: 0x2BE0D, offset: 0x2BE0D, size: 0x8, addend: 0x0, symName: __ZNSt3__118__constexpr_memchrB8ue170006IKccEEPT_S3_T0_m, symObjAddr: 0x33B10, symBinAddr: 0x100037218, symSize: 0x40 }
  - { offsetInCU: 0x2BE83, offset: 0x2BE83, size: 0x8, addend: 0x0, symName: __ZNSt3__142__uninitialized_allocator_move_if_noexceptB8ue170006INS_9allocatorIcEENS_16reverse_iteratorIPcEES5_cvEET1_RT_T0_S9_S6_, symObjAddr: 0x344EC, symBinAddr: 0x100037BF4, symSize: 0x78 }
  - { offsetInCU: 0x2BF01, offset: 0x2BF01, size: 0x8, addend: 0x0, symName: __ZNSt3__14swapB8ue170006IPcEENS_9enable_ifIXaasr21is_move_constructibleIT_EE5valuesr18is_move_assignableIS3_EE5valueEvE4typeERS3_S6_, symObjAddr: 0x345B0, symBinAddr: 0x100037CB8, symSize: 0x3C }
  - { offsetInCU: 0x2BF52, offset: 0x2BF52, size: 0x8, addend: 0x0, symName: __ZNSt3__14moveB8ue170006INS_16reverse_iteratorIPcEES3_EET0_T_S5_S4_, symObjAddr: 0x34698, symBinAddr: 0x100037DA0, symSize: 0x78 }
  - { offsetInCU: 0x2BFAC, offset: 0x2BFAC, size: 0x8, addend: 0x0, symName: __ZNSt3__16__moveB8ue170006INS_17_ClassicAlgPolicyENS_16reverse_iteratorIPcEES4_S4_EENS_4pairIT0_T2_EES6_T1_S7_, symObjAddr: 0x34710, symBinAddr: 0x100037E18, symSize: 0x64 }
  - { offsetInCU: 0x2C018, offset: 0x2C018, size: 0x8, addend: 0x0, symName: __ZNSt3__123__dispatch_copy_or_moveB8ue170006INS_17_ClassicAlgPolicyENS_11__move_loopIS1_EENS_14__move_trivialENS_16reverse_iteratorIPcEES7_S7_EENS_4pairIT2_T4_EES9_T3_SA_, symObjAddr: 0x34774, symBinAddr: 0x100037E7C, symSize: 0x64 }
  - { offsetInCU: 0x2C096, offset: 0x2C096, size: 0x8, addend: 0x0, symName: __ZNSt3__121__unwrap_and_dispatchB8ue170006INS_10__overloadINS_11__move_loopINS_17_ClassicAlgPolicyEEENS_14__move_trivialEEENS_16reverse_iteratorIPcEES9_S9_Li0EEENS_4pairIT0_T2_EESB_T1_SC_, symObjAddr: 0x347D8, symBinAddr: 0x100037EE0, symSize: 0x12C }
  - { offsetInCU: 0x2C126, offset: 0x2C126, size: 0x8, addend: 0x0, symName: __ZNSt3__114__unwrap_rangeB8ue170006INS_16reverse_iteratorIPcEES3_EENS_4pairIT0_S5_EET_S7_, symObjAddr: 0x34904, symBinAddr: 0x10003800C, symSize: 0x84 }
  - { offsetInCU: 0x2C316, offset: 0x2C316, size: 0x8, addend: 0x0, symName: __ZNSt3__113__unwrap_iterB8ue170006INS_16reverse_iteratorIPcEENS_18__unwrap_iter_implIS3_Lb0EEELi0EEEDTclsrT0_8__unwrapclsr3stdE7declvalIT_EEEES7_, symObjAddr: 0x34A28, symBinAddr: 0x100038130, symSize: 0x44 }
  - { offsetInCU: 0x2C35A, offset: 0x2C35A, size: 0x8, addend: 0x0, symName: __ZNSt3__19make_pairB8ue170006INS_16reverse_iteratorIPcEES3_EENS_4pairINS_18__unwrap_ref_decayIT_E4typeENS5_IT0_E4typeEEEOS6_OS9_, symObjAddr: 0x34A6C, symBinAddr: 0x100038174, symSize: 0x38 }
  - { offsetInCU: 0x2C3A9, offset: 0x2C3A9, size: 0x8, addend: 0x0, symName: __ZNSt3__114__rewrap_rangeB8ue170006INS_16reverse_iteratorIPcEES3_EET_S4_T0_, symObjAddr: 0x34AA4, symBinAddr: 0x1000381AC, symSize: 0x5C }
  - { offsetInCU: 0x2C3F5, offset: 0x2C3F5, size: 0x8, addend: 0x0, symName: __ZNSt3__113__rewrap_iterB8ue170006INS_16reverse_iteratorIPcEES3_NS_18__unwrap_iter_implIS3_Lb0EEEEET_S6_T0_, symObjAddr: 0x34B00, symBinAddr: 0x100038208, symSize: 0x74 }
  - { offsetInCU: 0x2C44A, offset: 0x2C44A, size: 0x8, addend: 0x0, symName: __ZNSt3__1neB8ue170006IPcS1_EEbRKNS_16reverse_iteratorIT_EERKNS2_IT0_EE, symObjAddr: 0x34B74, symBinAddr: 0x10003827C, symSize: 0x48 }
  - { offsetInCU: 0x2C5EC, offset: 0x2C5EC, size: 0x8, addend: 0x0, symName: __ZNSt3__17__is_07B8ue170006Eh, symObjAddr: 0x3520C, symBinAddr: 0x100038914, symSize: 0x24 }
  - { offsetInCU: 0x2C61A, offset: 0x2C61A, size: 0x8, addend: 0x0, symName: __ZNSt3__17__is_89B8ue170006Eh, symObjAddr: 0x35230, symBinAddr: 0x100038938, symSize: 0x24 }
  - { offsetInCU: 0x2C648, offset: 0x2C648, size: 0x8, addend: 0x0, symName: __ZNSt3__110__to_lowerB8ue170006Eh, symObjAddr: 0x35254, symBinAddr: 0x10003895C, symSize: 0x1C }
  - { offsetInCU: 0x2C676, offset: 0x2C676, size: 0x8, addend: 0x0, symName: __ZNSt3__119__throw_regex_errorB8ue170006ILNS_15regex_constants10error_typeE5EEEvv, symObjAddr: 0x35270, symBinAddr: 0x100038978, symSize: 0x60 }
  - { offsetInCU: 0x2C69B, offset: 0x2C69B, size: 0x8, addend: 0x0, symName: __ZNSt3__16searchB8ue170006IPKcPcEET_S4_S4_T0_S5_, symObjAddr: 0x36D00, symBinAddr: 0x10003A408, symSize: 0x3C }
  - { offsetInCU: 0x2C703, offset: 0x2C703, size: 0x8, addend: 0x0, symName: __ZNSt3__119__throw_regex_errorB8ue170006ILNS_15regex_constants10error_typeE1EEEvv, symObjAddr: 0x36D7C, symBinAddr: 0x10003A484, symSize: 0x60 }
  - { offsetInCU: 0x2C728, offset: 0x2C728, size: 0x8, addend: 0x0, symName: __ZNSt3__16searchB8ue170006IPKcPcNS_10__equal_toEEET_S5_S5_T0_S6_T1_, symObjAddr: 0x36EFC, symBinAddr: 0x10003A604, symSize: 0x64 }
  - { offsetInCU: 0x2C7B5, offset: 0x2C7B5, size: 0x8, addend: 0x0, symName: __ZNSt3__113__search_implB8ue170006IPKcS2_PcS3_NS_10__equal_toENS_10__identityES5_EENS_4pairIT_S7_EES7_T0_T1_T2_RT3_RT4_RT5_PNS_9enable_ifIXaasr37__has_random_access_iterator_categoryIS7_EE5valuesr37__has_random_access_iterator_categoryISA_EE5valueEvE4typeE, symObjAddr: 0x36F60, symBinAddr: 0x10003A668, symSize: 0xF8 }
  - { offsetInCU: 0x2C89A, offset: 0x2C89A, size: 0x8, addend: 0x0, symName: __ZNSt3__19make_pairB8ue170006IRPKcS3_EENS_4pairINS_18__unwrap_ref_decayIT_E4typeENS5_IT0_E4typeEEEOS6_OS9_, symObjAddr: 0x37058, symBinAddr: 0x10003A760, symSize: 0x38 }
  - { offsetInCU: 0x2C8E9, offset: 0x2C8E9, size: 0x8, addend: 0x0, symName: __ZNSt3__127__search_random_access_implB8ue170006INS_17_ClassicAlgPolicyEPKcS3_PcS4_NS_10__equal_toENS_10__identityES6_llEENS_4pairIT0_S8_EES8_T1_T2_T3_RT4_RT5_RT6_T7_T8_, symObjAddr: 0x37090, symBinAddr: 0x10003A798, symSize: 0x1BC }
  - { offsetInCU: 0x2CA1B, offset: 0x2CA1B, size: 0x8, addend: 0x0, symName: __ZNSt3__18__invokeB8ue170006IRNS_10__equal_toEJRKcRcEEEDTclclsr3stdE7declvalIT_EEspclsr3stdE7declvalIT0_EEEEOS6_DpOS7_, symObjAddr: 0x372DC, symBinAddr: 0x10003A9E4, symSize: 0x38 }
  - { offsetInCU: 0x2CA80, offset: 0x2CA80, size: 0x8, addend: 0x0, symName: __ZNSt3__18__invokeB8ue170006IRNS_10__identityEJRKcEEEDTclclsr3stdE7declvalIT_EEspclsr3stdE7declvalIT0_EEEEOS5_DpOS6_, symObjAddr: 0x37314, symBinAddr: 0x10003AA1C, symSize: 0x2C }
  - { offsetInCU: 0x2CAD1, offset: 0x2CAD1, size: 0x8, addend: 0x0, symName: __ZNSt3__18__invokeB8ue170006IRNS_10__identityEJRcEEEDTclclsr3stdE7declvalIT_EEspclsr3stdE7declvalIT0_EEEEOS4_DpOS5_, symObjAddr: 0x37340, symBinAddr: 0x10003AA48, symSize: 0x2C }
  - { offsetInCU: 0x2CB22, offset: 0x2CB22, size: 0x8, addend: 0x0, symName: __ZNSt3__19make_pairB8ue170006IRPKcS2_EENS_4pairINS_18__unwrap_ref_decayIT_E4typeENS5_IT0_E4typeEEEOS6_OS9_, symObjAddr: 0x3736C, symBinAddr: 0x10003AA74, symSize: 0x38 }
  - { offsetInCU: 0x2CC1F, offset: 0x2CC1F, size: 0x8, addend: 0x0, symName: __ZNSt3__18distanceB8ue170006INS_11__wrap_iterIPcEEEENS_15iterator_traitsIT_E15difference_typeES5_S5_, symObjAddr: 0x37B70, symBinAddr: 0x10003B278, symSize: 0x3C }
  - { offsetInCU: 0x2CC62, offset: 0x2CC62, size: 0x8, addend: 0x0, symName: __ZNSt3__110__distanceB8ue170006INS_11__wrap_iterIPcEEEENS_15iterator_traitsIT_E15difference_typeES5_S5_NS_26random_access_iterator_tagE, symObjAddr: 0x37CF8, symBinAddr: 0x10003B400, symSize: 0x30 }
  - { offsetInCU: 0x2CCAF, offset: 0x2CCAF, size: 0x8, addend: 0x0, symName: __ZNSt3__1miB8ue170006IPcS1_EEDTmicldtfp_4baseEcldtfp0_4baseEERKNS_11__wrap_iterIT_EERKNS3_IT0_EE, symObjAddr: 0x37D28, symBinAddr: 0x10003B430, symSize: 0x40 }
  - { offsetInCU: 0x2CCFB, offset: 0x2CCFB, size: 0x8, addend: 0x0, symName: __ZNSt3__1neB8ue170006IPcEEbRKNS_11__wrap_iterIT_EES6_, symObjAddr: 0x37D80, symBinAddr: 0x10003B488, symSize: 0x34 }
  - { offsetInCU: 0x2CD3E, offset: 0x2CD3E, size: 0x8, addend: 0x0, symName: __ZNSt3__1eqB8ue170006IPcEEbRKNS_11__wrap_iterIT_EES6_, symObjAddr: 0x37DEC, symBinAddr: 0x10003B4F4, symSize: 0x48 }
  - { offsetInCU: 0x2CD81, offset: 0x2CD81, size: 0x8, addend: 0x0, symName: __ZNSt3__119__allocate_at_leastB8ue170006INS_9allocatorINS_12basic_stringIcNS_11char_traitsIcEENS1_IcEEEEEEEENS_19__allocation_resultINS_16allocator_traitsIT_E7pointerEEERSA_m, symObjAddr: 0x3868C, symBinAddr: 0x10003BD94, symSize: 0x40 }
  - { offsetInCU: 0x2CDC4, offset: 0x2CDC4, size: 0x8, addend: 0x0, symName: __ZNSt3__142__uninitialized_allocator_move_if_noexceptB8ue170006INS_9allocatorINS_12basic_stringIcNS_11char_traitsIcEENS1_IcEEEEEENS_16reverse_iteratorIPS6_EESA_SA_EET2_RT_T0_T1_SB_, symObjAddr: 0x38844, symBinAddr: 0x10003BF4C, symSize: 0x12C }
  - { offsetInCU: 0x2CE64, offset: 0x2CE64, size: 0x8, addend: 0x0, symName: __ZNSt3__14swapB8ue170006IPNS_12basic_stringIcNS_11char_traitsIcEENS_9allocatorIcEEEEEENS_9enable_ifIXaasr21is_move_constructibleIT_EE5valuesr18is_move_assignableIS9_EE5valueEvE4typeERS9_SC_, symObjAddr: 0x389BC, symBinAddr: 0x10003C0C4, symSize: 0x3C }
  - { offsetInCU: 0x2CEB5, offset: 0x2CEB5, size: 0x8, addend: 0x0, symName: __ZNSt3__122__make_exception_guardB8ue170006INS_29_AllocatorDestroyRangeReverseINS_9allocatorINS_12basic_stringIcNS_11char_traitsIcEENS2_IcEEEEEENS_16reverse_iteratorIPS7_EEEEEENS_28__exception_guard_exceptionsIT_EESE_, symObjAddr: 0x38AC0, symBinAddr: 0x10003C1C8, symSize: 0x4C }
  - { offsetInCU: 0x2CEEB, offset: 0x2CEEB, size: 0x8, addend: 0x0, symName: __ZNSt3__1neB8ue170006IPNS_12basic_stringIcNS_11char_traitsIcEENS_9allocatorIcEEEES7_EEbRKNS_16reverse_iteratorIT_EERKNS8_IT0_EE, symObjAddr: 0x38B50, symBinAddr: 0x10003C258, symSize: 0x48 }
  - { offsetInCU: 0x2CF37, offset: 0x2CF37, size: 0x8, addend: 0x0, symName: __ZNSt3__112__to_addressB8ue170006INS_16reverse_iteratorIPNS_12basic_stringIcNS_11char_traitsIcEENS_9allocatorIcEEEEEEvEEu7__decayIDTclsr19__to_address_helperIT_EE6__callclsr3stdE7declvalIRKSA_EEEEESC_, symObjAddr: 0x38BCC, symBinAddr: 0x10003C2D4, symSize: 0x24 }
  - { offsetInCU: 0x2CF96, offset: 0x2CF96, size: 0x8, addend: 0x0, symName: __ZNSt3__119__allocator_destroyB8ue170006INS_9allocatorINS_12basic_stringIcNS_11char_traitsIcEENS1_IcEEEEEENS_16reverse_iteratorINS8_IPS6_EEEESB_EEvRT_T0_T1_, symObjAddr: 0x38EAC, symBinAddr: 0x10003C5B4, symSize: 0x70 }
  - { offsetInCU: 0x2CFFB, offset: 0x2CFFB, size: 0x8, addend: 0x0, symName: __ZNSt3__1neB8ue170006INS_16reverse_iteratorIPNS_12basic_stringIcNS_11char_traitsIcEENS_9allocatorIcEEEEEES9_EEbRKNS1_IT_EERKNS1_IT0_EE, symObjAddr: 0x38F58, symBinAddr: 0x10003C660, symSize: 0x60 }
  - { offsetInCU: 0x2D047, offset: 0x2D047, size: 0x8, addend: 0x0, symName: __ZNSt3__112__to_addressB8ue170006INS_16reverse_iteratorINS1_IPNS_12basic_stringIcNS_11char_traitsIcEENS_9allocatorIcEEEEEEEEvEEu7__decayIDTclsr19__to_address_helperIT_EE6__callclsr3stdE7declvalIRKSB_EEEEESD_, symObjAddr: 0x38FB8, symBinAddr: 0x10003C6C0, symSize: 0x24 }
  - { offsetInCU: 0x2D0A6, offset: 0x2D0A6, size: 0x8, addend: 0x0, symName: __ZNSt3__119__throw_regex_errorB8ue170006ILNS_15regex_constants10error_typeE2EEEvv, symObjAddr: 0x3936C, symBinAddr: 0x10003CA74, symSize: 0x60 }
  - { offsetInCU: 0x2D0CB, offset: 0x2D0CB, size: 0x8, addend: 0x0, symName: __ZNSt3__19make_pairB8ue170006INS_12basic_stringIcNS_11char_traitsIcEENS_9allocatorIcEEEES6_EENS_4pairINS_18__unwrap_ref_decayIT_E4typeENS8_IT0_E4typeEEEOS9_OSC_, symObjAddr: 0x39648, symBinAddr: 0x10003CD50, symSize: 0x40 }
  - { offsetInCU: 0x2D11A, offset: 0x2D11A, size: 0x8, addend: 0x0, symName: __ZNSt3__119__throw_regex_errorB8ue170006ILNS_15regex_constants10error_typeE9EEEvv, symObjAddr: 0x39788, symBinAddr: 0x10003CE90, symSize: 0x60 }
  - { offsetInCU: 0x2D13F, offset: 0x2D13F, size: 0x8, addend: 0x0, symName: __ZNSt3__119__allocate_at_leastB8ue170006INS_9allocatorINS_4pairINS_12basic_stringIcNS_11char_traitsIcEENS1_IcEEEES7_EEEEEENS_19__allocation_resultINS_16allocator_traitsIT_E7pointerEEERSC_m, symObjAddr: 0x39FCC, symBinAddr: 0x10003D6D4, symSize: 0x40 }
  - { offsetInCU: 0x2D182, offset: 0x2D182, size: 0x8, addend: 0x0, symName: __ZNSt3__142__uninitialized_allocator_move_if_noexceptB8ue170006INS_9allocatorINS_4pairINS_12basic_stringIcNS_11char_traitsIcEENS1_IcEEEES7_EEEENS_16reverse_iteratorIPS8_EESC_SC_EET2_RT_T0_T1_SD_, symObjAddr: 0x3A184, symBinAddr: 0x10003D88C, symSize: 0x12C }
  - { offsetInCU: 0x2D222, offset: 0x2D222, size: 0x8, addend: 0x0, symName: __ZNSt3__14swapB8ue170006IPNS_4pairINS_12basic_stringIcNS_11char_traitsIcEENS_9allocatorIcEEEES7_EEEENS_9enable_ifIXaasr21is_move_constructibleIT_EE5valuesr18is_move_assignableISB_EE5valueEvE4typeERSB_SE_, symObjAddr: 0x3A2FC, symBinAddr: 0x10003DA04, symSize: 0x3C }
  - { offsetInCU: 0x2D273, offset: 0x2D273, size: 0x8, addend: 0x0, symName: __ZNSt3__122__make_exception_guardB8ue170006INS_29_AllocatorDestroyRangeReverseINS_9allocatorINS_4pairINS_12basic_stringIcNS_11char_traitsIcEENS2_IcEEEES8_EEEENS_16reverse_iteratorIPS9_EEEEEENS_28__exception_guard_exceptionsIT_EESG_, symObjAddr: 0x3A400, symBinAddr: 0x10003DB08, symSize: 0x4C }
  - { offsetInCU: 0x2D2A9, offset: 0x2D2A9, size: 0x8, addend: 0x0, symName: __ZNSt3__1neB8ue170006IPNS_4pairINS_12basic_stringIcNS_11char_traitsIcEENS_9allocatorIcEEEES7_EES9_EEbRKNS_16reverse_iteratorIT_EERKNSA_IT0_EE, symObjAddr: 0x3A490, symBinAddr: 0x10003DB98, symSize: 0x48 }
  - { offsetInCU: 0x2D2F5, offset: 0x2D2F5, size: 0x8, addend: 0x0, symName: __ZNSt3__112__to_addressB8ue170006INS_16reverse_iteratorIPNS_4pairINS_12basic_stringIcNS_11char_traitsIcEENS_9allocatorIcEEEES8_EEEEvEEu7__decayIDTclsr19__to_address_helperIT_EE6__callclsr3stdE7declvalIRKSC_EEEEESE_, symObjAddr: 0x3A4D8, symBinAddr: 0x10003DBE0, symSize: 0x24 }
  - { offsetInCU: 0x2D354, offset: 0x2D354, size: 0x8, addend: 0x0, symName: __ZNSt3__119__allocator_destroyB8ue170006INS_9allocatorINS_4pairINS_12basic_stringIcNS_11char_traitsIcEENS1_IcEEEES7_EEEENS_16reverse_iteratorINSA_IPS8_EEEESD_EEvRT_T0_T1_, symObjAddr: 0x3A788, symBinAddr: 0x10003DE90, symSize: 0x70 }
  - { offsetInCU: 0x2D3B9, offset: 0x2D3B9, size: 0x8, addend: 0x0, symName: __ZNSt3__1neB8ue170006INS_16reverse_iteratorIPNS_4pairINS_12basic_stringIcNS_11char_traitsIcEENS_9allocatorIcEEEES8_EEEESB_EEbRKNS1_IT_EERKNS1_IT0_EE, symObjAddr: 0x3A834, symBinAddr: 0x10003DF3C, symSize: 0x60 }
  - { offsetInCU: 0x2D405, offset: 0x2D405, size: 0x8, addend: 0x0, symName: __ZNSt3__112__to_addressB8ue170006INS_16reverse_iteratorINS1_IPNS_4pairINS_12basic_stringIcNS_11char_traitsIcEENS_9allocatorIcEEEES8_EEEEEEvEEu7__decayIDTclsr19__to_address_helperIT_EE6__callclsr3stdE7declvalIRKSD_EEEEESF_, symObjAddr: 0x3A894, symBinAddr: 0x10003DF9C, symSize: 0x24 }
  - { offsetInCU: 0x2D464, offset: 0x2D464, size: 0x8, addend: 0x0, symName: __ZNSt3__19make_pairB8ue170006IccEENS_4pairINS_18__unwrap_ref_decayIT_E4typeENS2_IT0_E4typeEEEOS3_OS6_, symObjAddr: 0x3AD7C, symBinAddr: 0x10003E484, symSize: 0x34 }
  - { offsetInCU: 0x2D4B3, offset: 0x2D4B3, size: 0x8, addend: 0x0, symName: __ZNSt3__19make_pairB8ue170006IRcS1_EENS_4pairINS_18__unwrap_ref_decayIT_E4typeENS3_IT0_E4typeEEEOS4_OS7_, symObjAddr: 0x3ADB0, symBinAddr: 0x10003E4B8, symSize: 0x34 }
  - { offsetInCU: 0x2D502, offset: 0x2D502, size: 0x8, addend: 0x0, symName: __ZNSt3__119__allocate_at_leastB8ue170006INS_9allocatorINS_4pairIccEEEEEENS_19__allocation_resultINS_16allocator_traitsIT_E7pointerEEERS7_m, symObjAddr: 0x3B52C, symBinAddr: 0x10003EC34, symSize: 0x40 }
  - { offsetInCU: 0x2D545, offset: 0x2D545, size: 0x8, addend: 0x0, symName: __ZNSt3__142__uninitialized_allocator_move_if_noexceptB8ue170006INS_9allocatorINS_4pairIccEEEENS_16reverse_iteratorIPS3_EES7_S7_EET2_RT_T0_T1_S8_, symObjAddr: 0x3B6E0, symBinAddr: 0x10003EDE8, symSize: 0x12C }
  - { offsetInCU: 0x2D5E5, offset: 0x2D5E5, size: 0x8, addend: 0x0, symName: __ZNSt3__14swapB8ue170006IPNS_4pairIccEEEENS_9enable_ifIXaasr21is_move_constructibleIT_EE5valuesr18is_move_assignableIS5_EE5valueEvE4typeERS5_S8_, symObjAddr: 0x3B858, symBinAddr: 0x10003EF60, symSize: 0x3C }
  - { offsetInCU: 0x2D636, offset: 0x2D636, size: 0x8, addend: 0x0, symName: __ZNSt3__122__make_exception_guardB8ue170006INS_29_AllocatorDestroyRangeReverseINS_9allocatorINS_4pairIccEEEENS_16reverse_iteratorIPS4_EEEEEENS_28__exception_guard_exceptionsIT_EESB_, symObjAddr: 0x3B940, symBinAddr: 0x10003F048, symSize: 0x4C }
  - { offsetInCU: 0x2D66C, offset: 0x2D66C, size: 0x8, addend: 0x0, symName: __ZNSt3__1neB8ue170006IPNS_4pairIccEES3_EEbRKNS_16reverse_iteratorIT_EERKNS4_IT0_EE, symObjAddr: 0x3B9D0, symBinAddr: 0x10003F0D8, symSize: 0x48 }
  - { offsetInCU: 0x2D6B8, offset: 0x2D6B8, size: 0x8, addend: 0x0, symName: __ZNSt3__112__to_addressB8ue170006INS_16reverse_iteratorIPNS_4pairIccEEEEvEEu7__decayIDTclsr19__to_address_helperIT_EE6__callclsr3stdE7declvalIRKS6_EEEEES8_, symObjAddr: 0x3BA18, symBinAddr: 0x10003F120, symSize: 0x24 }
  - { offsetInCU: 0x2D717, offset: 0x2D717, size: 0x8, addend: 0x0, symName: __ZNSt3__119__allocator_destroyB8ue170006INS_9allocatorINS_4pairIccEEEENS_16reverse_iteratorINS5_IPS3_EEEES8_EEvRT_T0_T1_, symObjAddr: 0x3BCC8, symBinAddr: 0x10003F3D0, symSize: 0x70 }
  - { offsetInCU: 0x2D77C, offset: 0x2D77C, size: 0x8, addend: 0x0, symName: __ZNSt3__1neB8ue170006INS_16reverse_iteratorIPNS_4pairIccEEEES5_EEbRKNS1_IT_EERKNS1_IT0_EE, symObjAddr: 0x3BD74, symBinAddr: 0x10003F47C, symSize: 0x60 }
  - { offsetInCU: 0x2D7C8, offset: 0x2D7C8, size: 0x8, addend: 0x0, symName: __ZNSt3__112__to_addressB8ue170006INS_16reverse_iteratorINS1_IPNS_4pairIccEEEEEEvEEu7__decayIDTclsr19__to_address_helperIT_EE6__callclsr3stdE7declvalIRKS7_EEEEES9_, symObjAddr: 0x3BDD4, symBinAddr: 0x10003F4DC, symSize: 0x24 }
  - { offsetInCU: 0x2D933, offset: 0x2D933, size: 0x8, addend: 0x0, symName: __ZNSt3__119__throw_regex_errorB8ue170006ILNS_15regex_constants10error_typeE8EEEvv, symObjAddr: 0x3C9EC, symBinAddr: 0x1000400F4, symSize: 0x60 }
  - { offsetInCU: 0x2D958, offset: 0x2D958, size: 0x8, addend: 0x0, symName: __ZNSt3__119__throw_regex_errorB8ue170006ILNS_15regex_constants10error_typeE7EEEvv, symObjAddr: 0x3CA4C, symBinAddr: 0x100040154, symSize: 0x60 }
  - { offsetInCU: 0x2E2B8, offset: 0x2E2B8, size: 0x8, addend: 0x0, symName: __ZNSt3__119__throw_regex_errorB8ue170006ILNS_15regex_constants10error_typeE15EEEvv, symObjAddr: 0x3DA88, symBinAddr: 0x100041190, symSize: 0x60 }
  - { offsetInCU: 0x2E351, offset: 0x2E351, size: 0x8, addend: 0x0, symName: __ZNSt3__14findB8ue170006IPKccEET_S3_S3_RKT0_, symObjAddr: 0x3F1C0, symBinAddr: 0x1000428C8, symSize: 0x60 }
  - { offsetInCU: 0x2E3B9, offset: 0x2E3B9, size: 0x8, addend: 0x0, symName: __ZNSt3__113__rewrap_iterB8ue170006IPKcS2_NS_18__unwrap_iter_implIS2_Lb1EEEEET_S5_T0_, symObjAddr: 0x3F220, symBinAddr: 0x100042928, symSize: 0x3C }
  - { offsetInCU: 0x2E40E, offset: 0x2E40E, size: 0x8, addend: 0x0, symName: __ZNSt3__142__uninitialized_allocator_move_if_noexceptB8ue170006INS_9allocatorI9fileEntryEENS_16reverse_iteratorIPS2_EES6_S6_EET2_RT_T0_T1_S7_, symObjAddr: 0x3F8D4, symBinAddr: 0x100042FDC, symSize: 0x11C }
  - { offsetInCU: 0x2E4AE, offset: 0x2E4AE, size: 0x8, addend: 0x0, symName: __ZNSt3__14swapB8ue170006IP9fileEntryEENS_9enable_ifIXaasr21is_move_constructibleIT_EE5valuesr18is_move_assignableIS4_EE5valueEvE4typeERS4_S7_, symObjAddr: 0x3F9F0, symBinAddr: 0x1000430F8, symSize: 0x3C }
  - { offsetInCU: 0x2E4FF, offset: 0x2E4FF, size: 0x8, addend: 0x0, symName: __ZNSt3__122__make_exception_guardB8ue170006INS_29_AllocatorDestroyRangeReverseINS_9allocatorI9fileEntryEENS_16reverse_iteratorIPS3_EEEEEENS_28__exception_guard_exceptionsIT_EESA_, symObjAddr: 0x3FA2C, symBinAddr: 0x100043134, symSize: 0x4C }
  - { offsetInCU: 0x2E535, offset: 0x2E535, size: 0x8, addend: 0x0, symName: __ZNSt3__119__allocator_destroyB8ue170006INS_9allocatorI9fileEntryEENS_16reverse_iteratorINS4_IPS2_EEEES7_EEvRT_T0_T1_, symObjAddr: 0x3FCA4, symBinAddr: 0x1000433AC, symSize: 0x70 }
  - { offsetInCU: 0x2E59A, offset: 0x2E59A, size: 0x8, addend: 0x0, symName: __ZNSt3__1neB8ue170006INS_16reverse_iteratorIP9fileEntryEES4_EEbRKNS1_IT_EERKNS1_IT0_EE, symObjAddr: 0x3FD50, symBinAddr: 0x100043458, symSize: 0x60 }
  - { offsetInCU: 0x2E5E6, offset: 0x2E5E6, size: 0x8, addend: 0x0, symName: __ZNSt3__112__to_addressB8ue170006INS_16reverse_iteratorINS1_IP9fileEntryEEEEvEEu7__decayIDTclsr19__to_address_helperIT_EE6__callclsr3stdE7declvalIRKS6_EEEEES8_, symObjAddr: 0x3FDB0, symBinAddr: 0x1000434B8, symSize: 0x24 }
  - { offsetInCU: 0x2E9EA, offset: 0x2E9EA, size: 0x8, addend: 0x0, symName: __ZNSt3__14swapB8ue170006IPPNS_12basic_stringIcNS_11char_traitsIcEENS_9allocatorIcEEEEEENS_9enable_ifIXaasr21is_move_constructibleIT_EE5valuesr18is_move_assignableISA_EE5valueEvE4typeERSA_SD_, symObjAddr: 0x41A48, symBinAddr: 0x100045150, symSize: 0x3C }
  - { offsetInCU: 0x2EA3B, offset: 0x2EA3B, size: 0x8, addend: 0x0, symName: __ZNSt3__14moveB8ue170006IPPNS_12basic_stringIcNS_11char_traitsIcEENS_9allocatorIcEEEES8_EET0_T_SA_S9_, symObjAddr: 0x41B2C, symBinAddr: 0x100045234, symSize: 0x40 }
  - { offsetInCU: 0x2EA95, offset: 0x2EA95, size: 0x8, addend: 0x0, symName: __ZNSt3__16__moveB8ue170006INS_17_ClassicAlgPolicyEPPNS_12basic_stringIcNS_11char_traitsIcEENS_9allocatorIcEEEES9_S9_EENS_4pairIT0_T2_EESB_T1_SC_, symObjAddr: 0x41C34, symBinAddr: 0x10004533C, symSize: 0x44 }
  - { offsetInCU: 0x2EB01, offset: 0x2EB01, size: 0x8, addend: 0x0, symName: __ZNSt3__123__dispatch_copy_or_moveB8ue170006INS_17_ClassicAlgPolicyENS_11__move_loopIS1_EENS_14__move_trivialEPPNS_12basic_stringIcNS_11char_traitsIcEENS_9allocatorIcEEEESC_SC_EENS_4pairIT2_T4_EESE_T3_SF_, symObjAddr: 0x41C78, symBinAddr: 0x100045380, symSize: 0x44 }
  - { offsetInCU: 0x2EB7F, offset: 0x2EB7F, size: 0x8, addend: 0x0, symName: __ZNSt3__121__unwrap_and_dispatchB8ue170006INS_10__overloadINS_11__move_loopINS_17_ClassicAlgPolicyEEENS_14__move_trivialEEEPPNS_12basic_stringIcNS_11char_traitsIcEENS_9allocatorIcEEEESE_SE_Li0EEENS_4pairIT0_T2_EESG_T1_SH_, symObjAddr: 0x41CBC, symBinAddr: 0x1000453C4, symSize: 0xB4 }
  - { offsetInCU: 0x2EC0D, offset: 0x2EC0D, size: 0x8, addend: 0x0, symName: __ZNSt3__114__unwrap_rangeB8ue170006IPPNS_12basic_stringIcNS_11char_traitsIcEENS_9allocatorIcEEEES8_EENS_4pairIT0_SA_EET_SC_, symObjAddr: 0x41D70, symBinAddr: 0x100045478, symSize: 0x60 }
  - { offsetInCU: 0x2ED8B, offset: 0x2ED8B, size: 0x8, addend: 0x0, symName: __ZNSt3__113__unwrap_iterB8ue170006IPPNS_12basic_stringIcNS_11char_traitsIcEENS_9allocatorIcEEEENS_18__unwrap_iter_implIS8_Lb1EEELi0EEEDTclsrT0_8__unwrapclsr3stdE7declvalIT_EEEESC_, symObjAddr: 0x41E18, symBinAddr: 0x100045520, symSize: 0x24 }
  - { offsetInCU: 0x2EDCF, offset: 0x2EDCF, size: 0x8, addend: 0x0, symName: __ZNSt3__19make_pairB8ue170006IPPNS_12basic_stringIcNS_11char_traitsIcEENS_9allocatorIcEEEES8_EENS_4pairINS_18__unwrap_ref_decayIT_E4typeENSA_IT0_E4typeEEEOSB_OSE_, symObjAddr: 0x41E3C, symBinAddr: 0x100045544, symSize: 0x38 }
  - { offsetInCU: 0x2EE1E, offset: 0x2EE1E, size: 0x8, addend: 0x0, symName: __ZNSt3__114__rewrap_rangeB8ue170006IPPNS_12basic_stringIcNS_11char_traitsIcEENS_9allocatorIcEEEES8_EET_S9_T0_, symObjAddr: 0x41E74, symBinAddr: 0x10004557C, symSize: 0x2C }
  - { offsetInCU: 0x2EE6A, offset: 0x2EE6A, size: 0x8, addend: 0x0, symName: __ZNSt3__113__rewrap_iterB8ue170006IPPNS_12basic_stringIcNS_11char_traitsIcEENS_9allocatorIcEEEES8_NS_18__unwrap_iter_implIS8_Lb1EEEEET_SB_T0_, symObjAddr: 0x41EA0, symBinAddr: 0x1000455A8, symSize: 0x3C }
  - { offsetInCU: 0x2EEBF, offset: 0x2EEBF, size: 0x8, addend: 0x0, symName: __ZNSt3__119__copy_trivial_implB8ue170006IPNS_12basic_stringIcNS_11char_traitsIcEENS_9allocatorIcEEEES7_EENS_4pairIPT_PT0_EESA_SA_SC_, symObjAddr: 0x41EDC, symBinAddr: 0x1000455E4, symSize: 0x80 }
  - { offsetInCU: 0x2EF27, offset: 0x2EF27, size: 0x8, addend: 0x0, symName: __ZNSt3__119__constexpr_memmoveB8ue170006IPNS_12basic_stringIcNS_11char_traitsIcEENS_9allocatorIcEEEES7_Li0EEEPT_S9_PT0_NS_15__element_countE, symObjAddr: 0x41F5C, symBinAddr: 0x100045664, symSize: 0x64 }
  - { offsetInCU: 0x2EF95, offset: 0x2EF95, size: 0x8, addend: 0x0, symName: __ZNSt3__19make_pairB8ue170006IRPPNS_12basic_stringIcNS_11char_traitsIcEENS_9allocatorIcEEEES8_EENS_4pairINS_18__unwrap_ref_decayIT_E4typeENSB_IT0_E4typeEEEOSC_OSF_, symObjAddr: 0x41FC0, symBinAddr: 0x1000456C8, symSize: 0x38 }
  - { offsetInCU: 0x2F037, offset: 0x2F037, size: 0x8, addend: 0x0, symName: __ZNSt3__18distanceB8ue170006INS_13move_iteratorIPPNS_12basic_stringIcNS_11char_traitsIcEENS_9allocatorIcEEEEEEEENS_15iterator_traitsIT_E15difference_typeESC_SC_, symObjAddr: 0x42228, symBinAddr: 0x100045930, symSize: 0x3C }
  - { offsetInCU: 0x2F07A, offset: 0x2F07A, size: 0x8, addend: 0x0, symName: __ZNSt3__110__distanceB8ue170006INS_13move_iteratorIPPNS_12basic_stringIcNS_11char_traitsIcEENS_9allocatorIcEEEEEEEENS_15iterator_traitsIT_E15difference_typeESC_SC_NS_26random_access_iterator_tagE, symObjAddr: 0x4242C, symBinAddr: 0x100045B34, symSize: 0x30 }
  - { offsetInCU: 0x2F0C7, offset: 0x2F0C7, size: 0x8, addend: 0x0, symName: __ZNSt3__1miB8ue170006IPPNS_12basic_stringIcNS_11char_traitsIcEENS_9allocatorIcEEEES8_EEDTmicldtfp_4baseEcldtfp0_4baseEERKNS_13move_iteratorIT_EERKNSA_IT0_EE, symObjAddr: 0x4245C, symBinAddr: 0x100045B64, symSize: 0x48 }
  - { offsetInCU: 0x2F116, offset: 0x2F116, size: 0x8, addend: 0x0, symName: __ZNSt3__113move_backwardB8ue170006IPPNS_12basic_stringIcNS_11char_traitsIcEENS_9allocatorIcEEEES8_EET0_T_SA_S9_, symObjAddr: 0x42504, symBinAddr: 0x100045C0C, symSize: 0x40 }
  - { offsetInCU: 0x2F170, offset: 0x2F170, size: 0x8, addend: 0x0, symName: __ZNSt3__115__move_backwardB8ue170006INS_17_ClassicAlgPolicyEPPNS_12basic_stringIcNS_11char_traitsIcEENS_9allocatorIcEEEES9_S9_EENS_4pairIT0_T2_EESB_T1_SC_, symObjAddr: 0x42544, symBinAddr: 0x100045C4C, symSize: 0x44 }
  - { offsetInCU: 0x2F1DC, offset: 0x2F1DC, size: 0x8, addend: 0x0, symName: __ZNSt3__123__dispatch_copy_or_moveB8ue170006INS_17_ClassicAlgPolicyENS_20__move_backward_loopIS1_EENS_23__move_backward_trivialEPPNS_12basic_stringIcNS_11char_traitsIcEENS_9allocatorIcEEEESC_SC_EENS_4pairIT2_T4_EESE_T3_SF_, symObjAddr: 0x42588, symBinAddr: 0x100045C90, symSize: 0x44 }
  - { offsetInCU: 0x2F25A, offset: 0x2F25A, size: 0x8, addend: 0x0, symName: __ZNSt3__121__unwrap_and_dispatchB8ue170006INS_10__overloadINS_20__move_backward_loopINS_17_ClassicAlgPolicyEEENS_23__move_backward_trivialEEEPPNS_12basic_stringIcNS_11char_traitsIcEENS_9allocatorIcEEEESE_SE_Li0EEENS_4pairIT0_T2_EESG_T1_SH_, symObjAddr: 0x425CC, symBinAddr: 0x100045CD4, symSize: 0xB4 }
  - { offsetInCU: 0x2F2E8, offset: 0x2F2E8, size: 0x8, addend: 0x0, symName: __ZNSt3__128__copy_backward_trivial_implB8ue170006IPNS_12basic_stringIcNS_11char_traitsIcEENS_9allocatorIcEEEES7_EENS_4pairIPT_PT0_EESA_SA_SC_, symObjAddr: 0x426C8, symBinAddr: 0x100045DD0, symSize: 0x90 }
  - { offsetInCU: 0x2F350, offset: 0x2F350, size: 0x8, addend: 0x0, symName: __ZNSt3__19make_pairB8ue170006IRPPNS_12basic_stringIcNS_11char_traitsIcEENS_9allocatorIcEEEES9_EENS_4pairINS_18__unwrap_ref_decayIT_E4typeENSB_IT0_E4typeEEEOSC_OSF_, symObjAddr: 0x42758, symBinAddr: 0x100045E60, symSize: 0x38 }
  - { offsetInCU: 0x2F39F, offset: 0x2F39F, size: 0x8, addend: 0x0, symName: __ZNSt3__119__allocate_at_leastB8ue170006INS_9allocatorIPNS_12basic_stringIcNS_11char_traitsIcEENS1_IcEEEEEEEENS_19__allocation_resultINS_16allocator_traitsIT_E7pointerEEERSB_m, symObjAddr: 0x42910, symBinAddr: 0x100046018, symSize: 0x40 }
  - { offsetInCU: 0x2F3E2, offset: 0x2F3E2, size: 0x8, addend: 0x0, symName: __ZNSt3__16searchB8ue170006INS_11__wrap_iterIPKcEEPcEET_S6_S6_T0_S7_, symObjAddr: 0x47658, symBinAddr: 0x10004AD60, symSize: 0x54 }
  - { offsetInCU: 0x2F44A, offset: 0x2F44A, size: 0x8, addend: 0x0, symName: __ZNSt3__16searchB8ue170006INS_11__wrap_iterIPKcEEPcNS_10__equal_toEEET_S7_S7_T0_S8_T1_, symObjAddr: 0x476FC, symBinAddr: 0x10004AE04, symSize: 0x7C }
  - { offsetInCU: 0x2F4D7, offset: 0x2F4D7, size: 0x8, addend: 0x0, symName: __ZNSt3__113__search_implB8ue170006INS_11__wrap_iterIPKcEES4_PcS5_NS_10__equal_toENS_10__identityES7_EENS_4pairIT_S9_EES9_T0_T1_T2_RT3_RT4_RT5_PNS_9enable_ifIXaasr37__has_random_access_iterator_categoryIS9_EE5valuesr37__has_random_access_iterator_categoryISC_EE5valueEvE4typeE, symObjAddr: 0x47778, symBinAddr: 0x10004AE80, symSize: 0x108 }
  - { offsetInCU: 0x2F5BD, offset: 0x2F5BD, size: 0x8, addend: 0x0, symName: __ZNSt3__19make_pairB8ue170006IRNS_11__wrap_iterIPKcEES5_EENS_4pairINS_18__unwrap_ref_decayIT_E4typeENS7_IT0_E4typeEEEOS8_OSB_, symObjAddr: 0x47880, symBinAddr: 0x10004AF88, symSize: 0x38 }
  - { offsetInCU: 0x2F60C, offset: 0x2F60C, size: 0x8, addend: 0x0, symName: __ZNSt3__1miB8ue170006IPKcS2_EEDTmicldtfp_4baseEcldtfp0_4baseEERKNS_11__wrap_iterIT_EERKNS4_IT0_EE, symObjAddr: 0x478B8, symBinAddr: 0x10004AFC0, symSize: 0x40 }
  - { offsetInCU: 0x2F658, offset: 0x2F658, size: 0x8, addend: 0x0, symName: __ZNSt3__127__search_random_access_implB8ue170006INS_17_ClassicAlgPolicyENS_11__wrap_iterIPKcEES5_PcS6_NS_10__equal_toENS_10__identityES8_llEENS_4pairIT0_SA_EESA_T1_T2_T3_RT4_RT5_RT6_T7_T8_, symObjAddr: 0x478F8, symBinAddr: 0x10004B000, symSize: 0x1F0 }
  - { offsetInCU: 0x2F78C, offset: 0x2F78C, size: 0x8, addend: 0x0, symName: __ZNSt3__19make_pairB8ue170006IRNS_11__wrap_iterIPKcEES4_EENS_4pairINS_18__unwrap_ref_decayIT_E4typeENS7_IT0_E4typeEEEOS8_OSB_, symObjAddr: 0x47BB4, symBinAddr: 0x10004B2BC, symSize: 0x38 }
  - { offsetInCU: 0x2F7DB, offset: 0x2F7DB, size: 0x8, addend: 0x0, symName: __ZNSt3__18distanceB8ue170006INS_11__wrap_iterIPKcEEEENS_15iterator_traitsIT_E15difference_typeES6_S6_, symObjAddr: 0x47F98, symBinAddr: 0x10004B6A0, symSize: 0x3C }
  - { offsetInCU: 0x2F81E, offset: 0x2F81E, size: 0x8, addend: 0x0, symName: __ZNSt3__110__distanceB8ue170006INS_11__wrap_iterIPKcEEEENS_15iterator_traitsIT_E15difference_typeES6_S6_NS_26random_access_iterator_tagE, symObjAddr: 0x48120, symBinAddr: 0x10004B828, symSize: 0x30 }
  - { offsetInCU: 0x2F86B, offset: 0x2F86B, size: 0x8, addend: 0x0, symName: __ZNSt3__122__make_exception_guardB8ue170006INS_6vectorIiNS_9allocatorIiEEE16__destroy_vectorEEENS_28__exception_guard_exceptionsIT_EES7_, symObjAddr: 0x4A0A4, symBinAddr: 0x10004D7AC, symSize: 0x40 }
  - { offsetInCU: 0x2F8A0, offset: 0x2F8A0, size: 0x8, addend: 0x0, symName: __ZNSt3__119__allocate_at_leastB8ue170006INS_9allocatorIiEEEENS_19__allocation_resultINS_16allocator_traitsIT_E7pointerEEERS5_m, symObjAddr: 0x4A444, symBinAddr: 0x10004DB4C, symSize: 0x40 }
  - { offsetInCU: 0x2F8E3, offset: 0x2F8E3, size: 0x8, addend: 0x0, symName: __ZNSt3__1eqB8ue170006INS_11__wrap_iterIPKcEEEEbRKNS_9sub_matchIT_EES9_, symObjAddr: 0x4AABC, symBinAddr: 0x10004E1C4, symSize: 0x38 }
  - { offsetInCU: 0x2F929, offset: 0x2F929, size: 0x8, addend: 0x0, symName: __ZNSt3__18distanceB8ue170006INS_20regex_token_iteratorINS_11__wrap_iterIPKcEEcNS_12regex_traitsIcEEEEEENS_15iterator_traitsIT_E15difference_typeESA_SA_, symObjAddr: 0x4AF84, symBinAddr: 0x10004E68C, symSize: 0xBC }
  - { offsetInCU: 0x2F96E, offset: 0x2F96E, size: 0x8, addend: 0x0, symName: __ZNSt3__110__distanceB8ue170006INS_20regex_token_iteratorINS_11__wrap_iterIPKcEEcNS_12regex_traitsIcEEEEEENS_15iterator_traitsIT_E15difference_typeESA_SA_NS_18input_iterator_tagE, symObjAddr: 0x4B1A4, symBinAddr: 0x10004E8AC, symSize: 0x64 }
  - { offsetInCU: 0x2F9CB, offset: 0x2F9CB, size: 0x8, addend: 0x0, symName: __ZNSt3__1eqB8ue170006IiNS_9allocatorIiEEEEbRKNS_6vectorIT_T0_EES8_, symObjAddr: 0x4B680, symBinAddr: 0x10004ED88, symSize: 0x9C }
  - { offsetInCU: 0x2FA29, offset: 0x2FA29, size: 0x8, addend: 0x0, symName: __ZNSt3__15equalB8ue170006INS_11__wrap_iterIPKiEES4_EEbT_S5_T0_, symObjAddr: 0x4B71C, symBinAddr: 0x10004EE24, symSize: 0x50 }
  - { offsetInCU: 0x2FA83, offset: 0x2FA83, size: 0x8, addend: 0x0, symName: __ZNSt3__15equalB8ue170006INS_11__wrap_iterIPKiEES4_NS_10__equal_toEEEbT_S6_T0_T1_, symObjAddr: 0x4B7CC, symBinAddr: 0x10004EED4, symSize: 0x74 }
  - { offsetInCU: 0x2FAF4, offset: 0x2FAF4, size: 0x8, addend: 0x0, symName: __ZNSt3__117__equal_iter_implB8ue170006IKiS1_NS_10__equal_toELi0EEEbPT_S4_PT0_RT1_, symObjAddr: 0x4B840, symBinAddr: 0x10004EF48, symSize: 0x4C }
  - { offsetInCU: 0x2FB67, offset: 0x2FB67, size: 0x8, addend: 0x0, symName: __ZNSt3__113__unwrap_iterB8ue170006INS_11__wrap_iterIPKiEENS_18__unwrap_iter_implIS4_Lb1EEELi0EEEDTclsrT0_8__unwrapclsr3stdE7declvalIT_EEEES8_, symObjAddr: 0x4B88C, symBinAddr: 0x10004EF94, symSize: 0x2C }
  - { offsetInCU: 0x2FBAB, offset: 0x2FBAB, size: 0x8, addend: 0x0, symName: __ZNSt3__124__constexpr_memcmp_equalB8ue170006IiiEEbPKT_PKT0_NS_15__element_countE, symObjAddr: 0x4B8B8, symBinAddr: 0x10004EFC0, symSize: 0x4C }
  - { offsetInCU: 0x2FC66, offset: 0x2FC66, size: 0x8, addend: 0x0, symName: __ZNSt3__112__to_addressB8ue170006INS_11__wrap_iterIPKiEEvEEu7__decayIDTclsr19__to_address_helperIT_EE6__callclsr3stdE7declvalIRKS5_EEEEES7_, symObjAddr: 0x4B92C, symBinAddr: 0x10004F034, symSize: 0x24 }
  - { offsetInCU: 0x2FD41, offset: 0x2FD41, size: 0x8, addend: 0x0, symName: __ZNSt3__112__to_addressB8ue170006IKiEEPT_S3_, symObjAddr: 0x4B9AC, symBinAddr: 0x10004F0B4, symSize: 0x14 }
  - { offsetInCU: 0x2FD76, offset: 0x2FD76, size: 0x8, addend: 0x0, symName: __ZNSt3__1neB8ue170006IPiEEbRKNS_11__wrap_iterIT_EES6_, symObjAddr: 0x4BC5C, symBinAddr: 0x10004F364, symSize: 0x34 }
  - { offsetInCU: 0x2FDB9, offset: 0x2FDB9, size: 0x8, addend: 0x0, symName: __ZNSt3__14findB8ue170006INS_11__wrap_iterIPiEEiEET_S4_S4_RKT0_, symObjAddr: 0x4BC90, symBinAddr: 0x10004F398, symSize: 0x78 }
  - { offsetInCU: 0x2FE21, offset: 0x2FE21, size: 0x8, addend: 0x0, symName: __ZNSt3__122__make_exception_guardB8ue170006INS_6vectorINS_9sub_matchINS_11__wrap_iterIPKcEEEENS_9allocatorIS7_EEE16__destroy_vectorEEENS_28__exception_guard_exceptionsIT_EESD_, symObjAddr: 0x4C0C8, symBinAddr: 0x10004F7D0, symSize: 0x40 }
  - { offsetInCU: 0x2FE56, offset: 0x2FE56, size: 0x8, addend: 0x0, symName: __ZNSt3__130__uninitialized_allocator_copyB8ue170006INS_9allocatorINS_9sub_matchINS_11__wrap_iterIPKcEEEEEEPS7_S9_S9_EET2_RT_T0_T1_SA_, symObjAddr: 0x4C2E8, symBinAddr: 0x10004F9F0, symSize: 0x80 }
  - { offsetInCU: 0x2FEF3, offset: 0x2FEF3, size: 0x8, addend: 0x0, symName: __ZNSt3__114__unwrap_rangeB8ue170006IPNS_9sub_matchINS_11__wrap_iterIPKcEEEES7_EENS_4pairIT0_S9_EET_SB_, symObjAddr: 0x4C368, symBinAddr: 0x10004FA70, symSize: 0x60 }
  - { offsetInCU: 0x2FF3F, offset: 0x2FF3F, size: 0x8, addend: 0x0, symName: __ZNSt3__135__uninitialized_allocator_copy_implB8ue170006INS_9allocatorINS_9sub_matchINS_11__wrap_iterIPKcEEEEEEPS7_S9_S9_EET2_RT_T0_T1_SA_, symObjAddr: 0x4C3C8, symBinAddr: 0x10004FAD0, symSize: 0xF4 }
  - { offsetInCU: 0x2FFDD, offset: 0x2FFDD, size: 0x8, addend: 0x0, symName: __ZNSt3__113__unwrap_iterB8ue170006IPNS_9sub_matchINS_11__wrap_iterIPKcEEEENS_18__unwrap_iter_implIS7_Lb1EEELi0EEEDTclsrT0_8__unwrapclsr3stdE7declvalIT_EEEESB_, symObjAddr: 0x4C4BC, symBinAddr: 0x10004FBC4, symSize: 0x24 }
  - { offsetInCU: 0x30021, offset: 0x30021, size: 0x8, addend: 0x0, symName: __ZNSt3__113__rewrap_iterB8ue170006IPNS_9sub_matchINS_11__wrap_iterIPKcEEEES7_NS_18__unwrap_iter_implIS7_Lb1EEEEET_SA_T0_, symObjAddr: 0x4C4E0, symBinAddr: 0x10004FBE8, symSize: 0x3C }
  - { offsetInCU: 0x30076, offset: 0x30076, size: 0x8, addend: 0x0, symName: __ZNSt3__19make_pairB8ue170006IPNS_9sub_matchINS_11__wrap_iterIPKcEEEES7_EENS_4pairINS_18__unwrap_ref_decayIT_E4typeENS9_IT0_E4typeEEEOSA_OSD_, symObjAddr: 0x4C51C, symBinAddr: 0x10004FC24, symSize: 0x38 }
  - { offsetInCU: 0x30199, offset: 0x30199, size: 0x8, addend: 0x0, symName: __ZNSt3__122__make_exception_guardB8ue170006INS_29_AllocatorDestroyRangeReverseINS_9allocatorINS_9sub_matchINS_11__wrap_iterIPKcEEEEEEPS8_EEEENS_28__exception_guard_exceptionsIT_EESD_, symObjAddr: 0x4C5C4, symBinAddr: 0x10004FCCC, symSize: 0x4C }
  - { offsetInCU: 0x301CF, offset: 0x301CF, size: 0x8, addend: 0x0, symName: __ZNSt3__119__allocator_destroyB8ue170006INS_9allocatorINS_9sub_matchINS_11__wrap_iterIPKcEEEEEENS_16reverse_iteratorIPS7_EESB_EEvRT_T0_T1_, symObjAddr: 0x4C854, symBinAddr: 0x10004FF5C, symSize: 0x70 }
  - { offsetInCU: 0x30285, offset: 0x30285, size: 0x8, addend: 0x0, symName: __ZNSt3__1eqB8ue170006IPiEEbRKNS_11__wrap_iterIT_EES6_, symObjAddr: 0x4CC38, symBinAddr: 0x100050340, symSize: 0x48 }
  - { offsetInCU: 0x302C8, offset: 0x302C8, size: 0x8, addend: 0x0, symName: __ZNSt3__113__rewrap_iterB8ue170006INS_11__wrap_iterIPiEES2_NS_18__unwrap_iter_implIS3_Lb1EEEEET_S6_T0_, symObjAddr: 0x4CC98, symBinAddr: 0x1000503A0, symSize: 0x4C }
  - { offsetInCU: 0x3031D, offset: 0x3031D, size: 0x8, addend: 0x0, symName: __ZNSt3__111__find_implB8ue170006IPiS1_iNS_10__identityEEET_S3_T0_RKT1_RT2_, symObjAddr: 0x4CCE4, symBinAddr: 0x1000503EC, symSize: 0x88 }
  - { offsetInCU: 0x30397, offset: 0x30397, size: 0x8, addend: 0x0, symName: __ZNSt3__113__unwrap_iterB8ue170006INS_11__wrap_iterIPiEENS_18__unwrap_iter_implIS3_Lb1EEELi0EEEDTclsrT0_8__unwrapclsr3stdE7declvalIT_EEEES7_, symObjAddr: 0x4CD6C, symBinAddr: 0x100050474, symSize: 0x2C }
  - { offsetInCU: 0x3042E, offset: 0x3042E, size: 0x8, addend: 0x0, symName: __ZNSt3__112__to_addressB8ue170006INS_11__wrap_iterIPiEEvEEu7__decayIDTclsr19__to_address_helperIT_EE6__callclsr3stdE7declvalIRKS4_EEEEES6_, symObjAddr: 0x4CE30, symBinAddr: 0x100050538, symSize: 0x24 }
  - { offsetInCU: 0x30509, offset: 0x30509, size: 0x8, addend: 0x0, symName: __ZNSt3__18__invokeB8ue170006IRNS_10__identityEJRiEEEDTclclsr3stdE7declvalIT_EEspclsr3stdE7declvalIT0_EEEEOS4_DpOS5_, symObjAddr: 0x4CED8, symBinAddr: 0x1000505E0, symSize: 0x2C }
  - { offsetInCU: 0x3055A, offset: 0x3055A, size: 0x8, addend: 0x0, symName: __ZNSt3__130__uninitialized_allocator_copyB8ue170006INS_9allocatorIiEEPiS3_S3_EET2_RT_T0_T1_S4_, symObjAddr: 0x4D39C, symBinAddr: 0x100050AA4, symSize: 0x80 }
  - { offsetInCU: 0x305F7, offset: 0x305F7, size: 0x8, addend: 0x0, symName: __ZNSt3__114__unwrap_rangeB8ue170006IPiS1_EENS_4pairIT0_S3_EET_S5_, symObjAddr: 0x4D41C, symBinAddr: 0x100050B24, symSize: 0x60 }
  - { offsetInCU: 0x30643, offset: 0x30643, size: 0x8, addend: 0x0, symName: __ZNSt3__135__uninitialized_allocator_copy_implB8ue170006INS_9allocatorIiEEiiiLPv0EEEPT2_RT_PT0_S9_S5_, symObjAddr: 0x4D47C, symBinAddr: 0x100050B84, symSize: 0x38 }
  - { offsetInCU: 0x306C5, offset: 0x306C5, size: 0x8, addend: 0x0, symName: __ZNSt3__113__unwrap_iterB8ue170006IPiNS_18__unwrap_iter_implIS1_Lb1EEELi0EEEDTclsrT0_8__unwrapclsr3stdE7declvalIT_EEEES5_, symObjAddr: 0x4D4B4, symBinAddr: 0x100050BBC, symSize: 0x24 }
  - { offsetInCU: 0x30709, offset: 0x30709, size: 0x8, addend: 0x0, symName: __ZNSt3__113__rewrap_iterB8ue170006IPiS1_NS_18__unwrap_iter_implIS1_Lb1EEEEET_S4_T0_, symObjAddr: 0x4D4D8, symBinAddr: 0x100050BE0, symSize: 0x3C }
  - { offsetInCU: 0x3075E, offset: 0x3075E, size: 0x8, addend: 0x0, symName: __ZNSt3__19make_pairB8ue170006IPiS1_EENS_4pairINS_18__unwrap_ref_decayIT_E4typeENS3_IT0_E4typeEEEOS4_OS7_, symObjAddr: 0x4D514, symBinAddr: 0x100050C1C, symSize: 0x38 }
  - { offsetInCU: 0x308B0, offset: 0x308B0, size: 0x8, addend: 0x0, symName: __ZNSt3__14copyB8ue170006IPiS1_EET0_T_S3_S2_, symObjAddr: 0x4D5BC, symBinAddr: 0x100050CC4, symSize: 0x40 }
  - { offsetInCU: 0x3090A, offset: 0x3090A, size: 0x8, addend: 0x0, symName: __ZNSt3__16__copyB8ue170006INS_17_ClassicAlgPolicyEPiS2_S2_EENS_4pairIT0_T2_EES4_T1_S5_, symObjAddr: 0x4D5FC, symBinAddr: 0x100050D04, symSize: 0x44 }
  - { offsetInCU: 0x30976, offset: 0x30976, size: 0x8, addend: 0x0, symName: __ZNSt3__123__dispatch_copy_or_moveB8ue170006INS_17_ClassicAlgPolicyENS_11__copy_loopIS1_EENS_14__copy_trivialEPiS5_S5_EENS_4pairIT2_T4_EES7_T3_S8_, symObjAddr: 0x4D640, symBinAddr: 0x100050D48, symSize: 0x44 }
  - { offsetInCU: 0x309F4, offset: 0x309F4, size: 0x8, addend: 0x0, symName: __ZNSt3__121__unwrap_and_dispatchB8ue170006INS_10__overloadINS_11__copy_loopINS_17_ClassicAlgPolicyEEENS_14__copy_trivialEEEPiS7_S7_Li0EEENS_4pairIT0_T2_EES9_T1_SA_, symObjAddr: 0x4D684, symBinAddr: 0x100050D8C, symSize: 0xB4 }
  - { offsetInCU: 0x30B40, offset: 0x30B40, size: 0x8, addend: 0x0, symName: __ZNSt3__114__rewrap_rangeB8ue170006IPiS1_EET_S2_T0_, symObjAddr: 0x4D780, symBinAddr: 0x100050E88, symSize: 0x2C }
  - { offsetInCU: 0x30B8C, offset: 0x30B8C, size: 0x8, addend: 0x0, symName: __ZNSt3__119__copy_trivial_implB8ue170006IiiEENS_4pairIPT_PT0_EES3_S3_S5_, symObjAddr: 0x4D7AC, symBinAddr: 0x100050EB4, symSize: 0x80 }
  - { offsetInCU: 0x30BF4, offset: 0x30BF4, size: 0x8, addend: 0x0, symName: __ZNSt3__119__constexpr_memmoveB8ue170006IiiLi0EEEPT_S2_PT0_NS_15__element_countE, symObjAddr: 0x4D82C, symBinAddr: 0x100050F34, symSize: 0x64 }
  - { offsetInCU: 0x30C62, offset: 0x30C62, size: 0x8, addend: 0x0, symName: __ZNSt3__19make_pairB8ue170006IRPiS1_EENS_4pairINS_18__unwrap_ref_decayIT_E4typeENS4_IT0_E4typeEEEOS5_OS8_, symObjAddr: 0x4D890, symBinAddr: 0x100050F98, symSize: 0x38 }
  - { offsetInCU: 0x30D04, offset: 0x30D04, size: 0x8, addend: 0x0, symName: __ZNSt3__122__make_exception_guardB8ue170006INS_6vectorINS_12basic_stringIcNS_11char_traitsIcEENS_9allocatorIcEEEENS5_IS7_EEE16__destroy_vectorEEENS_28__exception_guard_exceptionsIT_EESC_, symObjAddr: 0x4D9AC, symBinAddr: 0x1000510B4, symSize: 0x40 }
  - { offsetInCU: 0x30D39, offset: 0x30D39, size: 0x8, addend: 0x0, symName: __ZNSt3__130__uninitialized_allocator_copyB8ue170006INS_9allocatorINS_12basic_stringIcNS_11char_traitsIcEENS1_IcEEEEEENS_20regex_token_iteratorINS_11__wrap_iterIPKcEEcNS_12regex_traitsIcEEEESF_PS6_EET2_RT_T0_T1_SH_, symObjAddr: 0x4DC54, symBinAddr: 0x10005135C, symSize: 0x184 }
  - { offsetInCU: 0x30DDA, offset: 0x30DDA, size: 0x8, addend: 0x0, symName: __ZNSt3__114__unwrap_rangeB8ue170006INS_20regex_token_iteratorINS_11__wrap_iterIPKcEEcNS_12regex_traitsIcEEEES8_EENS_4pairIT0_SA_EET_SC_, symObjAddr: 0x4DDD8, symBinAddr: 0x1000514E0, symSize: 0x104 }
  - { offsetInCU: 0x30E28, offset: 0x30E28, size: 0x8, addend: 0x0, symName: __ZNSt3__135__uninitialized_allocator_copy_implB8ue170006INS_9allocatorINS_12basic_stringIcNS_11char_traitsIcEENS1_IcEEEEEENS_20regex_token_iteratorINS_11__wrap_iterIPKcEEcNS_12regex_traitsIcEEEESF_PS6_EET2_RT_T0_T1_SH_, symObjAddr: 0x4DEDC, symBinAddr: 0x1000515E4, symSize: 0x11C }
  - { offsetInCU: 0x30EC8, offset: 0x30EC8, size: 0x8, addend: 0x0, symName: __ZNSt3__113__unwrap_iterB8ue170006IPNS_12basic_stringIcNS_11char_traitsIcEENS_9allocatorIcEEEENS_18__unwrap_iter_implIS7_Lb1EEELi0EEEDTclsrT0_8__unwrapclsr3stdE7declvalIT_EEEESB_, symObjAddr: 0x4DFF8, symBinAddr: 0x100051700, symSize: 0x24 }
  - { offsetInCU: 0x30F0C, offset: 0x30F0C, size: 0x8, addend: 0x0, symName: __ZNSt3__113__rewrap_iterB8ue170006IPNS_12basic_stringIcNS_11char_traitsIcEENS_9allocatorIcEEEES7_NS_18__unwrap_iter_implIS7_Lb1EEEEET_SA_T0_, symObjAddr: 0x4E01C, symBinAddr: 0x100051724, symSize: 0x3C }
  - { offsetInCU: 0x31042, offset: 0x31042, size: 0x8, addend: 0x0, symName: __ZNSt3__19make_pairB8ue170006INS_20regex_token_iteratorINS_11__wrap_iterIPKcEEcNS_12regex_traitsIcEEEES8_EENS_4pairINS_18__unwrap_ref_decayIT_E4typeENSA_IT0_E4typeEEEOSB_OSE_, symObjAddr: 0x4E084, symBinAddr: 0x10005178C, symSize: 0x40 }
  - { offsetInCU: 0x31091, offset: 0x31091, size: 0x8, addend: 0x0, symName: __ZNSt3__113__unwrap_iterB8ue170006INS_20regex_token_iteratorINS_11__wrap_iterIPKcEEcNS_12regex_traitsIcEEEENS_18__unwrap_iter_implIS8_Lb0EEELi0EEEDTclsrT0_8__unwrapclsr3stdE7declvalIT_EEEESC_, symObjAddr: 0x4E0C4, symBinAddr: 0x1000517CC, symSize: 0x5C }
  - { offsetInCU: 0x3111E, offset: 0x3111E, size: 0x8, addend: 0x0, symName: __ZNSt3__122__make_exception_guardB8ue170006INS_29_AllocatorDestroyRangeReverseINS_9allocatorINS_12basic_stringIcNS_11char_traitsIcEENS2_IcEEEEEEPS7_EEEENS_28__exception_guard_exceptionsIT_EESC_, symObjAddr: 0x4E20C, symBinAddr: 0x100051914, symSize: 0x4C }
  - { offsetInCU: 0x31154, offset: 0x31154, size: 0x8, addend: 0x0, symName: __ZNSt3__119__allocator_destroyB8ue170006INS_9allocatorINS_12basic_stringIcNS_11char_traitsIcEENS1_IcEEEEEENS_16reverse_iteratorIPS6_EESA_EEvRT_T0_T1_, symObjAddr: 0x4E4E0, symBinAddr: 0x100051BE8, symSize: 0x70 }
  - { offsetInCU: 0x3120A, offset: 0x3120A, size: 0x8, addend: 0x0, symName: __ZNSt3__1miB8ue170006IPKNS_12basic_stringIcNS_11char_traitsIcEENS_9allocatorIcEEEES8_EEDTmicldtfp_4baseEcldtfp0_4baseEERKNS_11__wrap_iterIT_EERKNSA_IT0_EE, symObjAddr: 0x4E6D0, symBinAddr: 0x100051DD8, symSize: 0x48 }
  - { offsetInCU: 0x31256, offset: 0x31256, size: 0x8, addend: 0x0, symName: __ZNSt3__14moveB8ue170006IPNS_12basic_stringIcNS_11char_traitsIcEENS_9allocatorIcEEEES7_EET0_T_S9_S8_, symObjAddr: 0x4E790, symBinAddr: 0x100051E98, symSize: 0x40 }
  - { offsetInCU: 0x312B0, offset: 0x312B0, size: 0x8, addend: 0x0, symName: __ZNSt3__16__moveB8ue170006INS_17_ClassicAlgPolicyEPNS_12basic_stringIcNS_11char_traitsIcEENS_9allocatorIcEEEES8_S8_EENS_4pairIT0_T2_EESA_T1_SB_, symObjAddr: 0x4E96C, symBinAddr: 0x100052074, symSize: 0x44 }
  - { offsetInCU: 0x3131C, offset: 0x3131C, size: 0x8, addend: 0x0, symName: __ZNSt3__123__dispatch_copy_or_moveB8ue170006INS_17_ClassicAlgPolicyENS_11__move_loopIS1_EENS_14__move_trivialEPNS_12basic_stringIcNS_11char_traitsIcEENS_9allocatorIcEEEESB_SB_EENS_4pairIT2_T4_EESD_T3_SE_, symObjAddr: 0x4E9B0, symBinAddr: 0x1000520B8, symSize: 0x44 }
  - { offsetInCU: 0x3139A, offset: 0x3139A, size: 0x8, addend: 0x0, symName: __ZNSt3__121__unwrap_and_dispatchB8ue170006INS_10__overloadINS_11__move_loopINS_17_ClassicAlgPolicyEEENS_14__move_trivialEEEPNS_12basic_stringIcNS_11char_traitsIcEENS_9allocatorIcEEEESD_SD_Li0EEENS_4pairIT0_T2_EESF_T1_SG_, symObjAddr: 0x4E9F4, symBinAddr: 0x1000520FC, symSize: 0xB4 }
  - { offsetInCU: 0x31428, offset: 0x31428, size: 0x8, addend: 0x0, symName: __ZNSt3__114__unwrap_rangeB8ue170006IPNS_12basic_stringIcNS_11char_traitsIcEENS_9allocatorIcEEEES7_EENS_4pairIT0_S9_EET_SB_, symObjAddr: 0x4EAA8, symBinAddr: 0x1000521B0, symSize: 0x60 }
  - { offsetInCU: 0x31548, offset: 0x31548, size: 0x8, addend: 0x0, symName: __ZNSt3__19make_pairB8ue170006IPNS_12basic_stringIcNS_11char_traitsIcEENS_9allocatorIcEEEES7_EENS_4pairINS_18__unwrap_ref_decayIT_E4typeENS9_IT0_E4typeEEEOSA_OSD_, symObjAddr: 0x4EB98, symBinAddr: 0x1000522A0, symSize: 0x38 }
  - { offsetInCU: 0x31597, offset: 0x31597, size: 0x8, addend: 0x0, symName: __ZNSt3__114__rewrap_rangeB8ue170006IPNS_12basic_stringIcNS_11char_traitsIcEENS_9allocatorIcEEEES7_EET_S8_T0_, symObjAddr: 0x4EBD0, symBinAddr: 0x1000522D8, symSize: 0x2C }
  - { offsetInCU: 0x31607, offset: 0x31607, size: 0x8, addend: 0x0, symName: __ZNSt3__1miB8ue170006IPK9fileEntryS3_EEDTmicldtfp_4baseEcldtfp0_4baseEERKNS_11__wrap_iterIT_EERKNS5_IT0_EE, symObjAddr: 0x4ED1C, symBinAddr: 0x100052424, symSize: 0x48 }
  - { offsetInCU: 0x31653, offset: 0x31653, size: 0x8, addend: 0x0, symName: __ZNSt3__14moveB8ue170006IP9fileEntryS2_EET0_T_S4_S3_, symObjAddr: 0x4EDDC, symBinAddr: 0x1000524E4, symSize: 0x40 }
  - { offsetInCU: 0x316AD, offset: 0x316AD, size: 0x8, addend: 0x0, symName: __ZNSt3__16__moveB8ue170006INS_17_ClassicAlgPolicyEP9fileEntryS3_S3_EENS_4pairIT0_T2_EES5_T1_S6_, symObjAddr: 0x4EF9C, symBinAddr: 0x1000526A4, symSize: 0x44 }
  - { offsetInCU: 0x31719, offset: 0x31719, size: 0x8, addend: 0x0, symName: __ZNSt3__123__dispatch_copy_or_moveB8ue170006INS_17_ClassicAlgPolicyENS_11__move_loopIS1_EENS_14__move_trivialEP9fileEntryS6_S6_EENS_4pairIT2_T4_EES8_T3_S9_, symObjAddr: 0x4EFE0, symBinAddr: 0x1000526E8, symSize: 0x44 }
  - { offsetInCU: 0x31797, offset: 0x31797, size: 0x8, addend: 0x0, symName: __ZNSt3__121__unwrap_and_dispatchB8ue170006INS_10__overloadINS_11__move_loopINS_17_ClassicAlgPolicyEEENS_14__move_trivialEEEP9fileEntryS8_S8_Li0EEENS_4pairIT0_T2_EESA_T1_SB_, symObjAddr: 0x4F024, symBinAddr: 0x10005272C, symSize: 0xB4 }
  - { offsetInCU: 0x31825, offset: 0x31825, size: 0x8, addend: 0x0, symName: __ZNSt3__114__rewrap_rangeB8ue170006IP9fileEntryS2_EET_S3_T0_, symObjAddr: 0x4F168, symBinAddr: 0x100052870, symSize: 0x2C }
  - { offsetInCU: 0x31895, offset: 0x31895, size: 0x8, addend: 0x0, symName: __ZNSt3__16__copyB8ue170006INS_17_ClassicAlgPolicyEPK7AddressS4_PS2_EENS_4pairIT0_T2_EES7_T1_S8_, symObjAddr: 0x4F1C0, symBinAddr: 0x1000528C8, symSize: 0x44 }
  - { offsetInCU: 0x31901, offset: 0x31901, size: 0x8, addend: 0x0, symName: __ZNSt3__123__dispatch_copy_or_moveB8ue170006INS_17_ClassicAlgPolicyENS_11__copy_loopIS1_EENS_14__copy_trivialEPK7AddressS7_PS5_EENS_4pairIT2_T4_EESA_T3_SB_, symObjAddr: 0x4F204, symBinAddr: 0x10005290C, symSize: 0x44 }
  - { offsetInCU: 0x3197F, offset: 0x3197F, size: 0x8, addend: 0x0, symName: __ZNSt3__121__unwrap_and_dispatchB8ue170006INS_10__overloadINS_11__copy_loopINS_17_ClassicAlgPolicyEEENS_14__copy_trivialEEEPK7AddressS9_PS7_Li0EEENS_4pairIT0_T2_EESC_T1_SD_, symObjAddr: 0x4F248, symBinAddr: 0x100052950, symSize: 0xB4 }
  - { offsetInCU: 0x31A0D, offset: 0x31A0D, size: 0x8, addend: 0x0, symName: __ZNSt3__114__unwrap_rangeB8ue170006IPK7AddressS3_EENS_4pairIT0_S5_EET_S7_, symObjAddr: 0x4F2FC, symBinAddr: 0x100052A04, symSize: 0x60 }
  - { offsetInCU: 0x31B5C, offset: 0x31B5C, size: 0x8, addend: 0x0, symName: __ZNSt3__113__unwrap_iterB8ue170006IP7AddressNS_18__unwrap_iter_implIS2_Lb1EEELi0EEEDTclsrT0_8__unwrapclsr3stdE7declvalIT_EEEES6_, symObjAddr: 0x4F3A4, symBinAddr: 0x100052AAC, symSize: 0x24 }
  - { offsetInCU: 0x31BA0, offset: 0x31BA0, size: 0x8, addend: 0x0, symName: __ZNSt3__19make_pairB8ue170006IPK7AddressPS1_EENS_4pairINS_18__unwrap_ref_decayIT_E4typeENS6_IT0_E4typeEEEOS7_OSA_, symObjAddr: 0x4F3C8, symBinAddr: 0x100052AD0, symSize: 0x38 }
  - { offsetInCU: 0x31BEF, offset: 0x31BEF, size: 0x8, addend: 0x0, symName: __ZNSt3__114__rewrap_rangeB8ue170006IPK7AddressS3_EET_S4_T0_, symObjAddr: 0x4F400, symBinAddr: 0x100052B08, symSize: 0x2C }
  - { offsetInCU: 0x31C3B, offset: 0x31C3B, size: 0x8, addend: 0x0, symName: __ZNSt3__113__rewrap_iterB8ue170006IP7AddressS2_NS_18__unwrap_iter_implIS2_Lb1EEEEET_S5_T0_, symObjAddr: 0x4F42C, symBinAddr: 0x100052B34, symSize: 0x3C }
  - { offsetInCU: 0x31C90, offset: 0x31C90, size: 0x8, addend: 0x0, symName: __ZNSt3__19make_pairB8ue170006IPK7AddressS3_EENS_4pairINS_18__unwrap_ref_decayIT_E4typeENS5_IT0_E4typeEEEOS6_OS9_, symObjAddr: 0x4F468, symBinAddr: 0x100052B70, symSize: 0x38 }
  - { offsetInCU: 0x31CDF, offset: 0x31CDF, size: 0x8, addend: 0x0, symName: __ZNSt3__113__unwrap_iterB8ue170006IPK7AddressNS_18__unwrap_iter_implIS3_Lb1EEELi0EEEDTclsrT0_8__unwrapclsr3stdE7declvalIT_EEEES7_, symObjAddr: 0x4F4A0, symBinAddr: 0x100052BA8, symSize: 0x24 }
  - { offsetInCU: 0x31E4A, offset: 0x31E4A, size: 0x8, addend: 0x0, symName: __ZNSt3__112__to_addressB8ue170006IK7AddressEEPT_S4_, symObjAddr: 0x4F558, symBinAddr: 0x100052C60, symSize: 0x14 }
  - { offsetInCU: 0x31E7F, offset: 0x31E7F, size: 0x8, addend: 0x0, symName: __ZNSt3__119__copy_trivial_implB8ue170006IK7AddressS1_EENS_4pairIPT_PT0_EES5_S5_S7_, symObjAddr: 0x4F56C, symBinAddr: 0x100052C74, symSize: 0x88 }
  - { offsetInCU: 0x31EE7, offset: 0x31EE7, size: 0x8, addend: 0x0, symName: __ZNSt3__119__constexpr_memmoveB8ue170006I7AddressKS1_Li0EEEPT_S4_PT0_NS_15__element_countE, symObjAddr: 0x4F5F4, symBinAddr: 0x100052CFC, symSize: 0x68 }
  - { offsetInCU: 0x31F55, offset: 0x31F55, size: 0x8, addend: 0x0, symName: __ZNSt3__19make_pairB8ue170006IRPK7AddressPS1_EENS_4pairINS_18__unwrap_ref_decayIT_E4typeENS7_IT0_E4typeEEEOS8_OSB_, symObjAddr: 0x4F65C, symBinAddr: 0x100052D64, symSize: 0x38 }
  - { offsetInCU: 0x31FF7, offset: 0x31FF7, size: 0x8, addend: 0x0, symName: __ZNSt3__112__to_addressB8ue170006I7AddressEEPT_S3_, symObjAddr: 0x4F728, symBinAddr: 0x100052E30, symSize: 0x14 }
  - { offsetInCU: 0x3202C, offset: 0x3202C, size: 0x8, addend: 0x0, symName: __ZNSt3__113__rewrap_iterB8ue170006IPK7AddressS3_NS_18__unwrap_iter_implIS3_Lb1EEEEET_S6_T0_, symObjAddr: 0x4F7AC, symBinAddr: 0x100052EB4, symSize: 0x3C }
  - { offsetInCU: 0x32081, offset: 0x32081, size: 0x8, addend: 0x0, symName: __ZNSt3__16__copyB8ue170006INS_17_ClassicAlgPolicyEP7AddressS3_S3_EENS_4pairIT0_T2_EES5_T1_S6_, symObjAddr: 0x4F898, symBinAddr: 0x100052FA0, symSize: 0x44 }
  - { offsetInCU: 0x320ED, offset: 0x320ED, size: 0x8, addend: 0x0, symName: __ZNSt3__123__dispatch_copy_or_moveB8ue170006INS_17_ClassicAlgPolicyENS_11__copy_loopIS1_EENS_14__copy_trivialEP7AddressS6_S6_EENS_4pairIT2_T4_EES8_T3_S9_, symObjAddr: 0x4F8DC, symBinAddr: 0x100052FE4, symSize: 0x44 }
  - { offsetInCU: 0x3216B, offset: 0x3216B, size: 0x8, addend: 0x0, symName: __ZNSt3__121__unwrap_and_dispatchB8ue170006INS_10__overloadINS_11__copy_loopINS_17_ClassicAlgPolicyEEENS_14__copy_trivialEEEP7AddressS8_S8_Li0EEENS_4pairIT0_T2_EESA_T1_SB_, symObjAddr: 0x4F920, symBinAddr: 0x100053028, symSize: 0xB4 }
  - { offsetInCU: 0x321F9, offset: 0x321F9, size: 0x8, addend: 0x0, symName: __ZNSt3__114__unwrap_rangeB8ue170006IP7AddressS2_EENS_4pairIT0_S4_EET_S6_, symObjAddr: 0x4F9D4, symBinAddr: 0x1000530DC, symSize: 0x60 }
  - { offsetInCU: 0x32348, offset: 0x32348, size: 0x8, addend: 0x0, symName: __ZNSt3__19make_pairB8ue170006IP7AddressS2_EENS_4pairINS_18__unwrap_ref_decayIT_E4typeENS4_IT0_E4typeEEEOS5_OS8_, symObjAddr: 0x4FA7C, symBinAddr: 0x100053184, symSize: 0x38 }
  - { offsetInCU: 0x32397, offset: 0x32397, size: 0x8, addend: 0x0, symName: __ZNSt3__114__rewrap_rangeB8ue170006IP7AddressS2_EET_S3_T0_, symObjAddr: 0x4FAB4, symBinAddr: 0x1000531BC, symSize: 0x2C }
  - { offsetInCU: 0x323E3, offset: 0x323E3, size: 0x8, addend: 0x0, symName: __ZNSt3__119__copy_trivial_implB8ue170006I7AddressS1_EENS_4pairIPT_PT0_EES4_S4_S6_, symObjAddr: 0x4FAE0, symBinAddr: 0x1000531E8, symSize: 0x88 }
  - { offsetInCU: 0x3244B, offset: 0x3244B, size: 0x8, addend: 0x0, symName: __ZNSt3__119__constexpr_memmoveB8ue170006I7AddressS1_Li0EEEPT_S3_PT0_NS_15__element_countE, symObjAddr: 0x4FB68, symBinAddr: 0x100053270, symSize: 0x68 }
  - { offsetInCU: 0x324B9, offset: 0x324B9, size: 0x8, addend: 0x0, symName: __ZNSt3__19make_pairB8ue170006IRP7AddressS2_EENS_4pairINS_18__unwrap_ref_decayIT_E4typeENS5_IT0_E4typeEEEOS6_OS9_, symObjAddr: 0x4FBD0, symBinAddr: 0x1000532D8, symSize: 0x38 }
  - { offsetInCU: 0x32961, offset: 0x32961, size: 0x8, addend: 0x0, symName: __ZNSt3__14swapB8ue170006IPPP4NodeEENS_9enable_ifIXaasr21is_move_constructibleIT_EE5valuesr18is_move_assignableIS6_EE5valueEvE4typeERS6_S9_, symObjAddr: 0x51594, symBinAddr: 0x100054C9C, symSize: 0x3C }
  - { offsetInCU: 0x329B2, offset: 0x329B2, size: 0x8, addend: 0x0, symName: __ZNSt3__14moveB8ue170006IPPP4NodeS4_EET0_T_S6_S5_, symObjAddr: 0x51678, symBinAddr: 0x100054D80, symSize: 0x40 }
  - { offsetInCU: 0x32A0C, offset: 0x32A0C, size: 0x8, addend: 0x0, symName: __ZNSt3__16__moveB8ue170006INS_17_ClassicAlgPolicyEPPP4NodeS5_S5_EENS_4pairIT0_T2_EES7_T1_S8_, symObjAddr: 0x51780, symBinAddr: 0x100054E88, symSize: 0x44 }
  - { offsetInCU: 0x32A78, offset: 0x32A78, size: 0x8, addend: 0x0, symName: __ZNSt3__123__dispatch_copy_or_moveB8ue170006INS_17_ClassicAlgPolicyENS_11__move_loopIS1_EENS_14__move_trivialEPPP4NodeS8_S8_EENS_4pairIT2_T4_EESA_T3_SB_, symObjAddr: 0x517C4, symBinAddr: 0x100054ECC, symSize: 0x44 }
  - { offsetInCU: 0x32AF6, offset: 0x32AF6, size: 0x8, addend: 0x0, symName: __ZNSt3__121__unwrap_and_dispatchB8ue170006INS_10__overloadINS_11__move_loopINS_17_ClassicAlgPolicyEEENS_14__move_trivialEEEPPP4NodeSA_SA_Li0EEENS_4pairIT0_T2_EESC_T1_SD_, symObjAddr: 0x51808, symBinAddr: 0x100054F10, symSize: 0xB4 }
  - { offsetInCU: 0x32B84, offset: 0x32B84, size: 0x8, addend: 0x0, symName: __ZNSt3__114__unwrap_rangeB8ue170006IPPP4NodeS4_EENS_4pairIT0_S6_EET_S8_, symObjAddr: 0x518BC, symBinAddr: 0x100054FC4, symSize: 0x60 }
  - { offsetInCU: 0x32D02, offset: 0x32D02, size: 0x8, addend: 0x0, symName: __ZNSt3__113__unwrap_iterB8ue170006IPPP4NodeNS_18__unwrap_iter_implIS4_Lb1EEELi0EEEDTclsrT0_8__unwrapclsr3stdE7declvalIT_EEEES8_, symObjAddr: 0x51964, symBinAddr: 0x10005506C, symSize: 0x24 }
  - { offsetInCU: 0x32D46, offset: 0x32D46, size: 0x8, addend: 0x0, symName: __ZNSt3__19make_pairB8ue170006IPPP4NodeS4_EENS_4pairINS_18__unwrap_ref_decayIT_E4typeENS6_IT0_E4typeEEEOS7_OSA_, symObjAddr: 0x51988, symBinAddr: 0x100055090, symSize: 0x38 }
  - { offsetInCU: 0x32D95, offset: 0x32D95, size: 0x8, addend: 0x0, symName: __ZNSt3__114__rewrap_rangeB8ue170006IPPP4NodeS4_EET_S5_T0_, symObjAddr: 0x519C0, symBinAddr: 0x1000550C8, symSize: 0x2C }
  - { offsetInCU: 0x32DE1, offset: 0x32DE1, size: 0x8, addend: 0x0, symName: __ZNSt3__113__rewrap_iterB8ue170006IPPP4NodeS4_NS_18__unwrap_iter_implIS4_Lb1EEEEET_S7_T0_, symObjAddr: 0x519EC, symBinAddr: 0x1000550F4, symSize: 0x3C }
  - { offsetInCU: 0x32E36, offset: 0x32E36, size: 0x8, addend: 0x0, symName: __ZNSt3__119__copy_trivial_implB8ue170006IPP4NodeS3_EENS_4pairIPT_PT0_EES6_S6_S8_, symObjAddr: 0x51A28, symBinAddr: 0x100055130, symSize: 0x80 }
  - { offsetInCU: 0x32E9E, offset: 0x32E9E, size: 0x8, addend: 0x0, symName: __ZNSt3__119__constexpr_memmoveB8ue170006IPP4NodeS3_Li0EEEPT_S5_PT0_NS_15__element_countE, symObjAddr: 0x51AA8, symBinAddr: 0x1000551B0, symSize: 0x64 }
  - { offsetInCU: 0x32F0C, offset: 0x32F0C, size: 0x8, addend: 0x0, symName: __ZNSt3__19make_pairB8ue170006IRPPP4NodeS4_EENS_4pairINS_18__unwrap_ref_decayIT_E4typeENS7_IT0_E4typeEEEOS8_OSB_, symObjAddr: 0x51B0C, symBinAddr: 0x100055214, symSize: 0x38 }
  - { offsetInCU: 0x32FAE, offset: 0x32FAE, size: 0x8, addend: 0x0, symName: __ZNSt3__18distanceB8ue170006INS_13move_iteratorIPPP4NodeEEEENS_15iterator_traitsIT_E15difference_typeES8_S8_, symObjAddr: 0x51D74, symBinAddr: 0x10005547C, symSize: 0x3C }
  - { offsetInCU: 0x32FF1, offset: 0x32FF1, size: 0x8, addend: 0x0, symName: __ZNSt3__110__distanceB8ue170006INS_13move_iteratorIPPP4NodeEEEENS_15iterator_traitsIT_E15difference_typeES8_S8_NS_26random_access_iterator_tagE, symObjAddr: 0x51F78, symBinAddr: 0x100055680, symSize: 0x30 }
  - { offsetInCU: 0x3303E, offset: 0x3303E, size: 0x8, addend: 0x0, symName: __ZNSt3__1miB8ue170006IPPP4NodeS4_EEDTmicldtfp_4baseEcldtfp0_4baseEERKNS_13move_iteratorIT_EERKNS6_IT0_EE, symObjAddr: 0x51FA8, symBinAddr: 0x1000556B0, symSize: 0x48 }
  - { offsetInCU: 0x3308D, offset: 0x3308D, size: 0x8, addend: 0x0, symName: __ZNSt3__113move_backwardB8ue170006IPPP4NodeS4_EET0_T_S6_S5_, symObjAddr: 0x520E0, symBinAddr: 0x1000557E8, symSize: 0x40 }
  - { offsetInCU: 0x330E7, offset: 0x330E7, size: 0x8, addend: 0x0, symName: __ZNSt3__115__move_backwardB8ue170006INS_17_ClassicAlgPolicyEPPP4NodeS5_S5_EENS_4pairIT0_T2_EES7_T1_S8_, symObjAddr: 0x52120, symBinAddr: 0x100055828, symSize: 0x44 }
  - { offsetInCU: 0x33153, offset: 0x33153, size: 0x8, addend: 0x0, symName: __ZNSt3__123__dispatch_copy_or_moveB8ue170006INS_17_ClassicAlgPolicyENS_20__move_backward_loopIS1_EENS_23__move_backward_trivialEPPP4NodeS8_S8_EENS_4pairIT2_T4_EESA_T3_SB_, symObjAddr: 0x52164, symBinAddr: 0x10005586C, symSize: 0x44 }
  - { offsetInCU: 0x331D1, offset: 0x331D1, size: 0x8, addend: 0x0, symName: __ZNSt3__121__unwrap_and_dispatchB8ue170006INS_10__overloadINS_20__move_backward_loopINS_17_ClassicAlgPolicyEEENS_23__move_backward_trivialEEEPPP4NodeSA_SA_Li0EEENS_4pairIT0_T2_EESC_T1_SD_, symObjAddr: 0x521A8, symBinAddr: 0x1000558B0, symSize: 0xB4 }
  - { offsetInCU: 0x3325F, offset: 0x3325F, size: 0x8, addend: 0x0, symName: __ZNSt3__128__copy_backward_trivial_implB8ue170006IPP4NodeS3_EENS_4pairIPT_PT0_EES6_S6_S8_, symObjAddr: 0x522A4, symBinAddr: 0x1000559AC, symSize: 0x90 }
  - { offsetInCU: 0x332C7, offset: 0x332C7, size: 0x8, addend: 0x0, symName: __ZNSt3__19make_pairB8ue170006IRPPP4NodeS5_EENS_4pairINS_18__unwrap_ref_decayIT_E4typeENS7_IT0_E4typeEEEOS8_OSB_, symObjAddr: 0x52334, symBinAddr: 0x100055A3C, symSize: 0x38 }
  - { offsetInCU: 0x33316, offset: 0x33316, size: 0x8, addend: 0x0, symName: __ZNSt3__119__allocate_at_leastB8ue170006INS_9allocatorIPP4NodeEEEENS_19__allocation_resultINS_16allocator_traitsIT_E7pointerEEERS8_m, symObjAddr: 0x524EC, symBinAddr: 0x100055BF4, symSize: 0x40 }
  - { offsetInCU: 0x336FE, offset: 0x336FE, size: 0x8, addend: 0x0, symName: __ZNSt3__14swapB8ue170006IPPiEENS_9enable_ifIXaasr21is_move_constructibleIT_EE5valuesr18is_move_assignableIS4_EE5valueEvE4typeERS4_S7_, symObjAddr: 0x53E3C, symBinAddr: 0x100057544, symSize: 0x3C }
  - { offsetInCU: 0x3374F, offset: 0x3374F, size: 0x8, addend: 0x0, symName: __ZNSt3__14moveB8ue170006IPPiS2_EET0_T_S4_S3_, symObjAddr: 0x53F20, symBinAddr: 0x100057628, symSize: 0x40 }
  - { offsetInCU: 0x337A9, offset: 0x337A9, size: 0x8, addend: 0x0, symName: __ZNSt3__16__moveB8ue170006INS_17_ClassicAlgPolicyEPPiS3_S3_EENS_4pairIT0_T2_EES5_T1_S6_, symObjAddr: 0x54028, symBinAddr: 0x100057730, symSize: 0x44 }
  - { offsetInCU: 0x33815, offset: 0x33815, size: 0x8, addend: 0x0, symName: __ZNSt3__123__dispatch_copy_or_moveB8ue170006INS_17_ClassicAlgPolicyENS_11__move_loopIS1_EENS_14__move_trivialEPPiS6_S6_EENS_4pairIT2_T4_EES8_T3_S9_, symObjAddr: 0x5406C, symBinAddr: 0x100057774, symSize: 0x44 }
  - { offsetInCU: 0x33893, offset: 0x33893, size: 0x8, addend: 0x0, symName: __ZNSt3__121__unwrap_and_dispatchB8ue170006INS_10__overloadINS_11__move_loopINS_17_ClassicAlgPolicyEEENS_14__move_trivialEEEPPiS8_S8_Li0EEENS_4pairIT0_T2_EESA_T1_SB_, symObjAddr: 0x540B0, symBinAddr: 0x1000577B8, symSize: 0xB4 }
  - { offsetInCU: 0x33921, offset: 0x33921, size: 0x8, addend: 0x0, symName: __ZNSt3__114__unwrap_rangeB8ue170006IPPiS2_EENS_4pairIT0_S4_EET_S6_, symObjAddr: 0x54164, symBinAddr: 0x10005786C, symSize: 0x60 }
  - { offsetInCU: 0x33A9F, offset: 0x33A9F, size: 0x8, addend: 0x0, symName: __ZNSt3__113__unwrap_iterB8ue170006IPPiNS_18__unwrap_iter_implIS2_Lb1EEELi0EEEDTclsrT0_8__unwrapclsr3stdE7declvalIT_EEEES6_, symObjAddr: 0x5420C, symBinAddr: 0x100057914, symSize: 0x24 }
  - { offsetInCU: 0x33AE3, offset: 0x33AE3, size: 0x8, addend: 0x0, symName: __ZNSt3__19make_pairB8ue170006IPPiS2_EENS_4pairINS_18__unwrap_ref_decayIT_E4typeENS4_IT0_E4typeEEEOS5_OS8_, symObjAddr: 0x54230, symBinAddr: 0x100057938, symSize: 0x38 }
  - { offsetInCU: 0x33B32, offset: 0x33B32, size: 0x8, addend: 0x0, symName: __ZNSt3__114__rewrap_rangeB8ue170006IPPiS2_EET_S3_T0_, symObjAddr: 0x54268, symBinAddr: 0x100057970, symSize: 0x2C }
  - { offsetInCU: 0x33B7E, offset: 0x33B7E, size: 0x8, addend: 0x0, symName: __ZNSt3__113__rewrap_iterB8ue170006IPPiS2_NS_18__unwrap_iter_implIS2_Lb1EEEEET_S5_T0_, symObjAddr: 0x54294, symBinAddr: 0x10005799C, symSize: 0x3C }
  - { offsetInCU: 0x33BD3, offset: 0x33BD3, size: 0x8, addend: 0x0, symName: __ZNSt3__119__copy_trivial_implB8ue170006IPiS1_EENS_4pairIPT_PT0_EES4_S4_S6_, symObjAddr: 0x542D0, symBinAddr: 0x1000579D8, symSize: 0x80 }
  - { offsetInCU: 0x33C3B, offset: 0x33C3B, size: 0x8, addend: 0x0, symName: __ZNSt3__119__constexpr_memmoveB8ue170006IPiS1_Li0EEEPT_S3_PT0_NS_15__element_countE, symObjAddr: 0x54350, symBinAddr: 0x100057A58, symSize: 0x64 }
  - { offsetInCU: 0x33CA9, offset: 0x33CA9, size: 0x8, addend: 0x0, symName: __ZNSt3__19make_pairB8ue170006IRPPiS2_EENS_4pairINS_18__unwrap_ref_decayIT_E4typeENS5_IT0_E4typeEEEOS6_OS9_, symObjAddr: 0x543B4, symBinAddr: 0x100057ABC, symSize: 0x38 }
  - { offsetInCU: 0x33D4B, offset: 0x33D4B, size: 0x8, addend: 0x0, symName: __ZNSt3__18distanceB8ue170006INS_13move_iteratorIPPiEEEENS_15iterator_traitsIT_E15difference_typeES6_S6_, symObjAddr: 0x5461C, symBinAddr: 0x100057D24, symSize: 0x3C }
  - { offsetInCU: 0x33D8E, offset: 0x33D8E, size: 0x8, addend: 0x0, symName: __ZNSt3__110__distanceB8ue170006INS_13move_iteratorIPPiEEEENS_15iterator_traitsIT_E15difference_typeES6_S6_NS_26random_access_iterator_tagE, symObjAddr: 0x54820, symBinAddr: 0x100057F28, symSize: 0x30 }
  - { offsetInCU: 0x33DDB, offset: 0x33DDB, size: 0x8, addend: 0x0, symName: __ZNSt3__1miB8ue170006IPPiS2_EEDTmicldtfp_4baseEcldtfp0_4baseEERKNS_13move_iteratorIT_EERKNS4_IT0_EE, symObjAddr: 0x54850, symBinAddr: 0x100057F58, symSize: 0x48 }
  - { offsetInCU: 0x33E2A, offset: 0x33E2A, size: 0x8, addend: 0x0, symName: __ZNSt3__113move_backwardB8ue170006IPPiS2_EET0_T_S4_S3_, symObjAddr: 0x548F8, symBinAddr: 0x100058000, symSize: 0x40 }
  - { offsetInCU: 0x33E84, offset: 0x33E84, size: 0x8, addend: 0x0, symName: __ZNSt3__115__move_backwardB8ue170006INS_17_ClassicAlgPolicyEPPiS3_S3_EENS_4pairIT0_T2_EES5_T1_S6_, symObjAddr: 0x54938, symBinAddr: 0x100058040, symSize: 0x44 }
  - { offsetInCU: 0x33EF0, offset: 0x33EF0, size: 0x8, addend: 0x0, symName: __ZNSt3__123__dispatch_copy_or_moveB8ue170006INS_17_ClassicAlgPolicyENS_20__move_backward_loopIS1_EENS_23__move_backward_trivialEPPiS6_S6_EENS_4pairIT2_T4_EES8_T3_S9_, symObjAddr: 0x5497C, symBinAddr: 0x100058084, symSize: 0x44 }
  - { offsetInCU: 0x33F6E, offset: 0x33F6E, size: 0x8, addend: 0x0, symName: __ZNSt3__121__unwrap_and_dispatchB8ue170006INS_10__overloadINS_20__move_backward_loopINS_17_ClassicAlgPolicyEEENS_23__move_backward_trivialEEEPPiS8_S8_Li0EEENS_4pairIT0_T2_EESA_T1_SB_, symObjAddr: 0x549C0, symBinAddr: 0x1000580C8, symSize: 0xB4 }
  - { offsetInCU: 0x33FFC, offset: 0x33FFC, size: 0x8, addend: 0x0, symName: __ZNSt3__128__copy_backward_trivial_implB8ue170006IPiS1_EENS_4pairIPT_PT0_EES4_S4_S6_, symObjAddr: 0x54ABC, symBinAddr: 0x1000581C4, symSize: 0x90 }
  - { offsetInCU: 0x34064, offset: 0x34064, size: 0x8, addend: 0x0, symName: __ZNSt3__19make_pairB8ue170006IRPPiS3_EENS_4pairINS_18__unwrap_ref_decayIT_E4typeENS5_IT0_E4typeEEEOS6_OS9_, symObjAddr: 0x54B4C, symBinAddr: 0x100058254, symSize: 0x38 }
  - { offsetInCU: 0x340B3, offset: 0x340B3, size: 0x8, addend: 0x0, symName: __ZNSt3__119__allocate_at_leastB8ue170006INS_9allocatorIPiEEEENS_19__allocation_resultINS_16allocator_traitsIT_E7pointerEEERS6_m, symObjAddr: 0x54D04, symBinAddr: 0x10005840C, symSize: 0x40 }
  - { offsetInCU: 0x34D3B, offset: 0x34D3B, size: 0x8, addend: 0x0, symName: __ZSt28__throw_bad_array_new_lengthB8ue170006v, symObjAddr: 0x11ED0, symBinAddr: 0x1000155D8, symSize: 0x34 }
  - { offsetInCU: 0x371D4, offset: 0x371D4, size: 0x8, addend: 0x0, symName: __ZNSt3__16vectorINS_7__stateIcEENS_9allocatorIS2_EEE26__swap_out_circular_bufferERNS_14__split_bufferIS2_RS4_EE, symObjAddr: 0x1B96C, symBinAddr: 0x10001F074, symSize: 0x110 }
  - { offsetInCU: 0x37279, offset: 0x37279, size: 0x8, addend: 0x0, symName: __ZNSt3__16vectorINS_9sub_matchIPKcEENS_9allocatorIS4_EEE26__swap_out_circular_bufferERNS_14__split_bufferIS4_RS6_EE, symObjAddr: 0x1D7A0, symBinAddr: 0x100020EA8, symSize: 0x110 }
  - { offsetInCU: 0x37318, offset: 0x37318, size: 0x8, addend: 0x0, symName: __ZNSt3__16vectorINS_4pairImPKcEENS_9allocatorIS4_EEE26__swap_out_circular_bufferERNS_14__split_bufferIS4_RS6_EE, symObjAddr: 0x1EE48, symBinAddr: 0x100022550, symSize: 0x110 }
  - { offsetInCU: 0x37506, offset: 0x37506, size: 0x8, addend: 0x0, symName: __ZNSt3__16vectorINS_9sub_matchINS_11__wrap_iterIPKcEEEENS_9allocatorIS6_EEE26__swap_out_circular_bufferERNS_14__split_bufferIS6_RS8_EE, symObjAddr: 0x277E0, symBinAddr: 0x10002AEE8, symSize: 0x110 }
  - { offsetInCU: 0x375BD, offset: 0x375BD, size: 0x8, addend: 0x0, symName: __ZNSt3__16vectorIcNS_9allocatorIcEEE26__swap_out_circular_bufferERNS_14__split_bufferIcRS2_EE, symObjAddr: 0x340BC, symBinAddr: 0x1000377C4, symSize: 0x110 }
  - { offsetInCU: 0x37617, offset: 0x37617, size: 0x8, addend: 0x0, symName: __ZNSt3__16vectorINS_12basic_stringIcNS_11char_traitsIcEENS_9allocatorIcEEEENS4_IS6_EEE26__swap_out_circular_bufferERNS_14__split_bufferIS6_RS7_EE, symObjAddr: 0x3831C, symBinAddr: 0x10003BA24, symSize: 0x110 }
  - { offsetInCU: 0x376B6, offset: 0x376B6, size: 0x8, addend: 0x0, symName: __ZNSt3__16vectorINS_4pairINS_12basic_stringIcNS_11char_traitsIcEENS_9allocatorIcEEEES7_EENS5_IS8_EEE26__swap_out_circular_bufferERNS_14__split_bufferIS8_RS9_EE, symObjAddr: 0x39C5C, symBinAddr: 0x10003D364, symSize: 0x110 }
  - { offsetInCU: 0x37755, offset: 0x37755, size: 0x8, addend: 0x0, symName: __ZNSt3__16vectorINS_4pairIccEENS_9allocatorIS2_EEE26__swap_out_circular_bufferERNS_14__split_bufferIS2_RS4_EE, symObjAddr: 0x3B1CC, symBinAddr: 0x10003E8D4, symSize: 0x110 }
  - { offsetInCU: 0x377F4, offset: 0x377F4, size: 0x8, addend: 0x0, symName: __ZNSt3__16vectorI9fileEntryNS_9allocatorIS1_EEE26__swap_out_circular_bufferERNS_14__split_bufferIS1_RS3_EE, symObjAddr: 0x3F56C, symBinAddr: 0x100042C74, symSize: 0x110 }
  - { offsetInCU: 0x3A078, offset: 0x3A078, size: 0x8, addend: 0x0, symName: __ZN6RWLockC2Ev, symObjAddr: 0x0, symBinAddr: 0x100003708, symSize: 0x40 }
  - { offsetInCU: 0x3A0A4, offset: 0x3A0A4, size: 0x8, addend: 0x0, symName: __ZNSt3__15mutexC1B8ue170006Ev, symObjAddr: 0x40, symBinAddr: 0x100003748, symSize: 0x2C }
  - { offsetInCU: 0x3A0CE, offset: 0x3A0CE, size: 0x8, addend: 0x0, symName: __ZNSt3__118condition_variableC1B8ue170006Ev, symObjAddr: 0x6C, symBinAddr: 0x100003774, symSize: 0x2C }
  - { offsetInCU: 0x3A0F8, offset: 0x3A0F8, size: 0x8, addend: 0x0, symName: __ZN6RWLockC1Ev, symObjAddr: 0x98, symBinAddr: 0x1000037A0, symSize: 0x2C }
  - { offsetInCU: 0x3A124, offset: 0x3A124, size: 0x8, addend: 0x0, symName: __ZN6RWLockD2Ev, symObjAddr: 0xC4, symBinAddr: 0x1000037CC, symSize: 0x38 }
  - { offsetInCU: 0x3A150, offset: 0x3A150, size: 0x8, addend: 0x0, symName: __ZN6RWLockD1Ev, symObjAddr: 0xFC, symBinAddr: 0x100003804, symSize: 0x2C }
  - { offsetInCU: 0x3A17C, offset: 0x3A17C, size: 0x8, addend: 0x0, symName: __ZN6RWLock8lockReadEv, symObjAddr: 0x128, symBinAddr: 0x100003830, symSize: 0x6C }
  - { offsetInCU: 0x3A1B2, offset: 0x3A1B2, size: 0x8, addend: 0x0, symName: __ZNSt3__111unique_lockINS_5mutexEEC1B8ue170006ERS1_, symObjAddr: 0x194, symBinAddr: 0x10000389C, symSize: 0x34 }
  - { offsetInCU: 0x3A1EA, offset: 0x3A1EA, size: 0x8, addend: 0x0, symName: __ZNSt3__111unique_lockINS_5mutexEED1B8ue170006Ev, symObjAddr: 0x1C8, symBinAddr: 0x1000038D0, symSize: 0x2C }
  - { offsetInCU: 0x3A214, offset: 0x3A214, size: 0x8, addend: 0x0, symName: __ZN6RWLock10unlockReadEv, symObjAddr: 0x1F4, symBinAddr: 0x1000038FC, symSize: 0x64 }
  - { offsetInCU: 0x3A267, offset: 0x3A267, size: 0x8, addend: 0x0, symName: __ZNSt3__110lock_guardINS_5mutexEEC1B8ue170006ERS1_, symObjAddr: 0x258, symBinAddr: 0x100003960, symSize: 0x34 }
  - { offsetInCU: 0x3A29F, offset: 0x3A29F, size: 0x8, addend: 0x0, symName: __ZNSt3__110lock_guardINS_5mutexEED1B8ue170006Ev, symObjAddr: 0x28C, symBinAddr: 0x100003994, symSize: 0x2C }
  - { offsetInCU: 0x3A2C9, offset: 0x3A2C9, size: 0x8, addend: 0x0, symName: __ZN6RWLock9lockWriteEv, symObjAddr: 0x2B8, symBinAddr: 0x1000039C0, symSize: 0x94 }
  - { offsetInCU: 0x3A2FF, offset: 0x3A2FF, size: 0x8, addend: 0x0, symName: __ZN6RWLock11unlockWriteEv, symObjAddr: 0x34C, symBinAddr: 0x100003A54, symSize: 0x48 }
  - { offsetInCU: 0x3A3BB, offset: 0x3A3BB, size: 0x8, addend: 0x0, symName: __ZN9SleepLockC2Ev, symObjAddr: 0x394, symBinAddr: 0x100003A9C, symSize: 0x40 }
  - { offsetInCU: 0x3A3E7, offset: 0x3A3E7, size: 0x8, addend: 0x0, symName: __ZN9SleepLockC1Ev, symObjAddr: 0x3D4, symBinAddr: 0x100003ADC, symSize: 0x2C }
  - { offsetInCU: 0x3A413, offset: 0x3A413, size: 0x8, addend: 0x0, symName: __ZN9SleepLockD2Ev, symObjAddr: 0x400, symBinAddr: 0x100003B08, symSize: 0x38 }
  - { offsetInCU: 0x3A43F, offset: 0x3A43F, size: 0x8, addend: 0x0, symName: __ZN9SleepLockD1Ev, symObjAddr: 0x438, symBinAddr: 0x100003B40, symSize: 0x2C }
  - { offsetInCU: 0x3A46B, offset: 0x3A46B, size: 0x8, addend: 0x0, symName: __ZN9SleepLock4waitEv, symObjAddr: 0x464, symBinAddr: 0x100003B6C, symSize: 0x64 }
  - { offsetInCU: 0x3A4A1, offset: 0x3A4A1, size: 0x8, addend: 0x0, symName: __ZN9SleepLock6notifyEv, symObjAddr: 0x4C8, symBinAddr: 0x100003BD0, symSize: 0x4C }
  - { offsetInCU: 0x3A4D7, offset: 0x3A4D7, size: 0x8, addend: 0x0, symName: __ZN9SleepLock9notifyAllEv, symObjAddr: 0x514, symBinAddr: 0x100003C1C, symSize: 0x4C }
  - { offsetInCU: 0x3A50C, offset: 0x3A50C, size: 0x8, addend: 0x0, symName: __Z8fileSeekP7__sFILElib, symObjAddr: 0x560, symBinAddr: 0x100003C68, symSize: 0x84 }
  - { offsetInCU: 0x3A570, offset: 0x3A570, size: 0x8, addend: 0x0, symName: __Z8fileOpenPKcS0_b, symObjAddr: 0x5E4, symBinAddr: 0x100003CEC, symSize: 0x7C }
  - { offsetInCU: 0x3A5C6, offset: 0x3A5C6, size: 0x8, addend: 0x0, symName: __Z8fileReadPvmmP7__sFILEb, symObjAddr: 0x660, symBinAddr: 0x100003D68, symSize: 0xDC }
  - { offsetInCU: 0x3A638, offset: 0x3A638, size: 0x8, addend: 0x0, symName: __Z9fileWritePKvmmP7__sFILEb, symObjAddr: 0x73C, symBinAddr: 0x100003E44, symSize: 0xDC }
  - { offsetInCU: 0x3A6AA, offset: 0x3A6AA, size: 0x8, addend: 0x0, symName: __Z16filePutCharacteriP7__sFILE, symObjAddr: 0x818, symBinAddr: 0x100003F20, symSize: 0x78 }
  - { offsetInCU: 0x3B08E, offset: 0x3B08E, size: 0x8, addend: 0x0, symName: __ZN4Disk5parseEPc, symObjAddr: 0x890, symBinAddr: 0x100003F98, symSize: 0x2A88 }
  - { offsetInCU: 0x3B68A, offset: 0x3B68A, size: 0x8, addend: 0x0, symName: __ZNSt3__113basic_ostreamIcNS_11char_traitsIcEEElsB8ue170006EPFRS3_S4_E, symObjAddr: 0x3360, symBinAddr: 0x100006A68, symSize: 0x2C }
  - { offsetInCU: 0x3B6C4, offset: 0x3B6C4, size: 0x8, addend: 0x0, symName: __ZNSt3__112basic_stringIcNS_11char_traitsIcEENS_9allocatorIcEEEC1B8ue170006ILi0EEEPKc, symObjAddr: 0x3438, symBinAddr: 0x100006B40, symSize: 0x34 }
  - { offsetInCU: 0x3B703, offset: 0x3B703, size: 0x8, addend: 0x0, symName: __ZN4Disk11stringSplitERKNSt3__112basic_stringIcNS0_11char_traitsIcEENS0_9allocatorIcEEEES8_, symObjAddr: 0x346C, symBinAddr: 0x100006B74, symSize: 0x204 }
  - { offsetInCU: 0x3B77A, offset: 0x3B77A, size: 0x8, addend: 0x0, symName: __ZNKSt3__16vectorINS_12basic_stringIcNS_11char_traitsIcEENS_9allocatorIcEEEENS4_IS6_EEE4sizeB8ue170006Ev, symObjAddr: 0x3670, symBinAddr: 0x100006D78, symSize: 0x28 }
  - { offsetInCU: 0x3B7A0, offset: 0x3B7A0, size: 0x8, addend: 0x0, symName: __ZNSt3__16vectorINS_12basic_stringIcNS_11char_traitsIcEENS_9allocatorIcEEEENS4_IS6_EEEixB8ue170006Em, symObjAddr: 0x3698, symBinAddr: 0x100006DA0, symSize: 0x2C }
  - { offsetInCU: 0x3B7D7, offset: 0x3B7D7, size: 0x8, addend: 0x0, symName: __ZNKSt3__112basic_stringIcNS_11char_traitsIcEENS_9allocatorIcEEE6lengthB8ue170006Ev, symObjAddr: 0x36C4, symBinAddr: 0x100006DCC, symSize: 0x24 }
  - { offsetInCU: 0x3B7FD, offset: 0x3B7FD, size: 0x8, addend: 0x0, symName: __ZNKSt3__112basic_stringIcNS_11char_traitsIcEENS_9allocatorIcEEE5c_strB8ue170006Ev, symObjAddr: 0x36E8, symBinAddr: 0x100006DF0, symSize: 0x24 }
  - { offsetInCU: 0x3B823, offset: 0x3B823, size: 0x8, addend: 0x0, symName: __ZN10superBlock9loadInodeEsP7__sFILE, symObjAddr: 0x370C, symBinAddr: 0x100006E14, symSize: 0x1DC }
  - { offsetInCU: 0x3B888, offset: 0x3B888, size: 0x8, addend: 0x0, symName: __ZN4Disk11getFileNameE5iNode, symObjAddr: 0x38E8, symBinAddr: 0x100006FF0, symSize: 0x1C4 }
  - { offsetInCU: 0x3B8F6, offset: 0x3B8F6, size: 0x8, addend: 0x0, symName: __ZN5iNodeC1ERKS_, symObjAddr: 0x3AAC, symBinAddr: 0x1000071B4, symSize: 0x34 }
  - { offsetInCU: 0x3B932, offset: 0x3B932, size: 0x8, addend: 0x0, symName: __ZN5iNodeD1Ev, symObjAddr: 0x3AE0, symBinAddr: 0x1000071E8, symSize: 0x2C }
  - { offsetInCU: 0x3B95F, offset: 0x3B95F, size: 0x8, addend: 0x0, symName: __ZN4Disk32readFileEntriesFromDirectoryFileE5iNode, symObjAddr: 0x3B0C, symBinAddr: 0x100007214, symSize: 0x63C }
  - { offsetInCU: 0x3BB01, offset: 0x3BB01, size: 0x8, addend: 0x0, symName: __ZN9Directory17findInFileEntriesEPKc, symObjAddr: 0x4148, symBinAddr: 0x100007850, symSize: 0xB4 }
  - { offsetInCU: 0x3BB56, offset: 0x3BB56, size: 0x8, addend: 0x0, symName: __ZN4Disk19parentBlockRequiredER5iNode, symObjAddr: 0x41FC, symBinAddr: 0x100007904, symSize: 0xF8 }
  - { offsetInCU: 0x3BB8E, offset: 0x3BB8E, size: 0x8, addend: 0x0, symName: __ZN4Disk14freeBlockCheckEi, symObjAddr: 0x42F4, symBinAddr: 0x1000079FC, symSize: 0x9C }
  - { offsetInCU: 0x3BBC6, offset: 0x3BBC6, size: 0x8, addend: 0x0, symName: __ZN4Disk14freeInodeCheckEv, symObjAddr: 0x4390, symBinAddr: 0x100007A98, symSize: 0x70 }
  - { offsetInCU: 0x3BBEF, offset: 0x3BBEF, size: 0x8, addend: 0x0, symName: __ZN4Disk31allocateResourceForNewDirectoryE5iNode, symObjAddr: 0x4400, symBinAddr: 0x100007B08, symSize: 0x29C }
  - { offsetInCU: 0x3BC6A, offset: 0x3BC6A, size: 0x8, addend: 0x0, symName: __ZN4Disk16createUnderInodeER5iNodePKci, symObjAddr: 0x469C, symBinAddr: 0x100007DA4, symSize: 0xD24 }
  - { offsetInCU: 0x3BDD8, offset: 0x3BDD8, size: 0x8, addend: 0x0, symName: __ZN4Disk26allocateResourceForNewFileE5iNodej, symObjAddr: 0x53C0, symBinAddr: 0x100008AC8, symSize: 0x68C }
  - { offsetInCU: 0x3BFBF, offset: 0x3BFBF, size: 0x8, addend: 0x0, symName: __ZN9DirectoryD1Ev, symObjAddr: 0x5A4C, symBinAddr: 0x100009154, symSize: 0x2C }
  - { offsetInCU: 0x3BFEC, offset: 0x3BFEC, size: 0x8, addend: 0x0, symName: __ZNSt3__16vectorINS_12basic_stringIcNS_11char_traitsIcEENS_9allocatorIcEEEENS4_IS6_EEED1B8ue170006Ev, symObjAddr: 0x5A78, symBinAddr: 0x100009180, symSize: 0x2C }
  - { offsetInCU: 0x3C016, offset: 0x3C016, size: 0x8, addend: 0x0, symName: __ZN4Disk19locateInodeFromPathENSt3__112basic_stringIcNS0_11char_traitsIcEENS0_9allocatorIcEEEE, symObjAddr: 0x5AA4, symBinAddr: 0x1000091AC, symSize: 0x340 }
  - { offsetInCU: 0x3C0BA, offset: 0x3C0BA, size: 0x8, addend: 0x0, symName: __ZN4Disk10deleteFileE5iNode, symObjAddr: 0x5DE4, symBinAddr: 0x1000094EC, symSize: 0x814 }
  - { offsetInCU: 0x3C1ED, offset: 0x3C1ED, size: 0x8, addend: 0x0, symName: __ZN4Disk21printCurrentDirectoryEPKc, symObjAddr: 0x65F8, symBinAddr: 0x100009D00, symSize: 0xBC }
  - { offsetInCU: 0x3C225, offset: 0x3C225, size: 0x8, addend: 0x0, symName: __ZN4Disk24recursiveDeleteDirectoryE5iNode, symObjAddr: 0x66B4, symBinAddr: 0x100009DBC, symSize: 0x520 }
  - { offsetInCU: 0x3C2D5, offset: 0x3C2D5, size: 0x8, addend: 0x0, symName: __ZN4Disk15changeDirectoryEPKc, symObjAddr: 0x6BD4, symBinAddr: 0x10000A2DC, symSize: 0x184 }
  - { offsetInCU: 0x3C32B, offset: 0x3C32B, size: 0x8, addend: 0x0, symName: __ZN4Disk15getFullFilePathE5iNodePKc, symObjAddr: 0x6D58, symBinAddr: 0x10000A460, symSize: 0x36C }
  - { offsetInCU: 0x3C3A3, offset: 0x3C3A3, size: 0x8, addend: 0x0, symName: __ZN4Disk13listDirectoryE5iNode, symObjAddr: 0x70C4, symBinAddr: 0x10000A7CC, symSize: 0x49C }
  - { offsetInCU: 0x3C447, offset: 0x3C447, size: 0x8, addend: 0x0, symName: __ZN4Disk11blockUsedByER5iNode, symObjAddr: 0x7560, symBinAddr: 0x10000AC68, symSize: 0x24C }
  - { offsetInCU: 0x3C4FC, offset: 0x3C4FC, size: 0x8, addend: 0x0, symName: __ZN4Disk11inodeUsedByER5iNode, symObjAddr: 0x77AC, symBinAddr: 0x10000AEB4, symSize: 0x200 }
  - { offsetInCU: 0x3C57E, offset: 0x3C57E, size: 0x8, addend: 0x0, symName: __ZN4Disk4copyER5iNodePKcS1_, symObjAddr: 0x79AC, symBinAddr: 0x10000B0B4, symSize: 0x458 }
  - { offsetInCU: 0x3C683, offset: 0x3C683, size: 0x8, addend: 0x0, symName: __ZN4Disk16getDirectorySizeE5iNode, symObjAddr: 0x7E04, symBinAddr: 0x10000B50C, symSize: 0x264 }
  - { offsetInCU: 0x3C707, offset: 0x3C707, size: 0x8, addend: 0x0, symName: __ZN16DiskblockManager16getDedicateBlockEP10superBlockP7__sFILE, symObjAddr: 0x8068, symBinAddr: 0x10000B770, symSize: 0x6C }
  - { offsetInCU: 0x3C74E, offset: 0x3C74E, size: 0x8, addend: 0x0, symName: __ZN16DiskblockManager15printBlockUsageEP10superBlockP7__sFILE, symObjAddr: 0x80D4, symBinAddr: 0x10000B7DC, symSize: 0x1E8 }
  - { offsetInCU: 0x3C7B3, offset: 0x3C7B3, size: 0x8, addend: 0x0, symName: __ZN9DiskblockC1Ev, symObjAddr: 0x8314, symBinAddr: 0x10000BA1C, symSize: 0x2C }
  - { offsetInCU: 0x3C7DD, offset: 0x3C7DD, size: 0x8, addend: 0x0, symName: __ZN9Diskblock4loadE7AddressP7__sFILEi, symObjAddr: 0x8340, symBinAddr: 0x10000BA48, symSize: 0x68 }
  - { offsetInCU: 0x3C8B3, offset: 0x3C8B3, size: 0x8, addend: 0x0, symName: __ZN17IndirectDiskblockC1Ev, symObjAddr: 0x83A8, symBinAddr: 0x10000BAB0, symSize: 0x2C }
  - { offsetInCU: 0x3C8DF, offset: 0x3C8DF, size: 0x8, addend: 0x0, symName: __ZN17IndirectDiskblock4loadE7AddressP7__sFILE, symObjAddr: 0x83D4, symBinAddr: 0x10000BADC, symSize: 0x108 }
  - { offsetInCU: 0x3C944, offset: 0x3C944, size: 0x8, addend: 0x0, symName: __ZN4Disk16printWelcomeInfoEv, symObjAddr: 0x84DC, symBinAddr: 0x10000BBE4, symSize: 0xB4 }
  - { offsetInCU: 0x3C96D, offset: 0x3C96D, size: 0x8, addend: 0x0, symName: __ZN4Disk13printHelpInfoEv, symObjAddr: 0x8590, symBinAddr: 0x10000BC98, symSize: 0x88 }
  - { offsetInCU: 0x3C996, offset: 0x3C996, size: 0x8, addend: 0x0, symName: __ZN4DiskC2Ev, symObjAddr: 0x8618, symBinAddr: 0x10000BD20, symSize: 0xE4 }
  - { offsetInCU: 0x3C9C3, offset: 0x3C9C3, size: 0x8, addend: 0x0, symName: __ZN10superBlockC1Ev, symObjAddr: 0x86FC, symBinAddr: 0x10000BE04, symSize: 0x2C }
  - { offsetInCU: 0x3C9F0, offset: 0x3C9F0, size: 0x8, addend: 0x0, symName: __ZN16DiskblockManagerC1Ev, symObjAddr: 0x8728, symBinAddr: 0x10000BE30, symSize: 0x2C }
  - { offsetInCU: 0x3CA1C, offset: 0x3CA1C, size: 0x8, addend: 0x0, symName: __ZN5iNodeC1Ev, symObjAddr: 0x8754, symBinAddr: 0x10000BE5C, symSize: 0x40 }
  - { offsetInCU: 0x3CA49, offset: 0x3CA49, size: 0x8, addend: 0x0, symName: __ZNSt3__111basic_regexIcNS_12regex_traitsIcEEEC1B8ue170006Ev, symObjAddr: 0x8794, symBinAddr: 0x10000BE9C, symSize: 0x2C }
  - { offsetInCU: 0x3CA73, offset: 0x3CA73, size: 0x8, addend: 0x0, symName: __ZNSt3__111basic_regexIcNS_12regex_traitsIcEEEC1B8ue170006EPKcNS_15regex_constants18syntax_option_typeE, symObjAddr: 0x87C0, symBinAddr: 0x10000BEC8, symSize: 0x3C }
  - { offsetInCU: 0x3CACD, offset: 0x3CACD, size: 0x8, addend: 0x0, symName: __ZNSt3__111basic_regexIcNS_12regex_traitsIcEEEaSEOS3_, symObjAddr: 0x87FC, symBinAddr: 0x10000BF04, symSize: 0x60 }
  - { offsetInCU: 0x3CAFF, offset: 0x3CAFF, size: 0x8, addend: 0x0, symName: __ZNSt3__111basic_regexIcNS_12regex_traitsIcEEED1Ev, symObjAddr: 0x885C, symBinAddr: 0x10000BF64, symSize: 0x2C }
  - { offsetInCU: 0x3CB2C, offset: 0x3CB2C, size: 0x8, addend: 0x0, symName: __ZN4DiskC1Ev, symObjAddr: 0x8888, symBinAddr: 0x10000BF90, symSize: 0x2C }
  - { offsetInCU: 0x3CB59, offset: 0x3CB59, size: 0x8, addend: 0x0, symName: __ZN4DiskD2Ev, symObjAddr: 0x88B4, symBinAddr: 0x10000BFBC, symSize: 0x3C }
  - { offsetInCU: 0x3CB86, offset: 0x3CB86, size: 0x8, addend: 0x0, symName: __ZN4DiskD1Ev, symObjAddr: 0x88F0, symBinAddr: 0x10000BFF8, symSize: 0x2C }
  - { offsetInCU: 0x3CBB3, offset: 0x3CBB3, size: 0x8, addend: 0x0, symName: __ZN4Disk3runEv, symObjAddr: 0x891C, symBinAddr: 0x10000C024, symSize: 0x3C0 }
  - { offsetInCU: 0x3CBF3, offset: 0x3CBF3, size: 0x8, addend: 0x0, symName: __ZN4Disk8loadDiskEv, symObjAddr: 0x8CDC, symBinAddr: 0x10000C3E4, symSize: 0x47C }
  - { offsetInCU: 0x3CC48, offset: 0x3CC48, size: 0x8, addend: 0x0, symName: __ZN4Disk15setCurrentInodeEi, symObjAddr: 0x9158, symBinAddr: 0x10000C860, symSize: 0xB0 }
  - { offsetInCU: 0x3CC8F, offset: 0x3CC8F, size: 0x8, addend: 0x0, symName: __ZN5iNode13getCreateTimeEv, symObjAddr: 0x9208, symBinAddr: 0x10000C910, symSize: 0xD4 }
  - { offsetInCU: 0x3CCC8, offset: 0x3CCC8, size: 0x8, addend: 0x0, symName: __ZN5iNode13getAccessTimeEv, symObjAddr: 0x92DC, symBinAddr: 0x10000C9E4, symSize: 0xD4 }
  - { offsetInCU: 0x3CD01, offset: 0x3CD01, size: 0x8, addend: 0x0, symName: __ZN5iNode15getModifiedTimeEv, symObjAddr: 0x93B0, symBinAddr: 0x10000CAB8, symSize: 0xD4 }
  - { offsetInCU: 0x3CD3A, offset: 0x3CD3A, size: 0x8, addend: 0x0, symName: __ZNK7Address6to_intEv, symObjAddr: 0x9484, symBinAddr: 0x10000CB8C, symSize: 0x30 }
  - { offsetInCU: 0x3CD60, offset: 0x3CD60, size: 0x8, addend: 0x0, symName: __ZN5iNodeaSEOS_, symObjAddr: 0x94B4, symBinAddr: 0x10000CBBC, symSize: 0x10C }
  - { offsetInCU: 0x3CD98, offset: 0x3CD98, size: 0x8, addend: 0x0, symName: __ZN16DiskblockManager10initializeEP10superBlockP7__sFILE, symObjAddr: 0x95C0, symBinAddr: 0x10000CCC8, symSize: 0x17C }
  - { offsetInCU: 0x3CE29, offset: 0x3CE29, size: 0x8, addend: 0x0, symName: __ZN16DiskblockManager12getFreeBlockEP7__sFILE, symObjAddr: 0x973C, symBinAddr: 0x10000CE44, symSize: 0x80 }
  - { offsetInCU: 0x3CE61, offset: 0x3CE61, size: 0x8, addend: 0x0, symName: __ZN4Disk23initializeRootDirectoryEv, symObjAddr: 0x97BC, symBinAddr: 0x10000CEC4, symSize: 0x2B8 }
  - { offsetInCU: 0x3CEF9, offset: 0x3CEF9, size: 0x8, addend: 0x0, symName: __ZN9DirectoryC1Ev, symObjAddr: 0x9A74, symBinAddr: 0x10000D17C, symSize: 0x2C }
  - { offsetInCU: 0x3CF26, offset: 0x3CF26, size: 0x8, addend: 0x0, symName: __ZNSt3__16vectorI9fileEntryNS_9allocatorIS1_EEE9push_backB8ue170006EOS1_, symObjAddr: 0x9AA0, symBinAddr: 0x10000D1A8, symSize: 0x6C }
  - { offsetInCU: 0x3CF5D, offset: 0x3CF5D, size: 0x8, addend: 0x0, symName: __ZN9fileEntryC1EPKcs, symObjAddr: 0x9B0C, symBinAddr: 0x10000D214, symSize: 0x3C }
  - { offsetInCU: 0x3CFA8, offset: 0x3CFA8, size: 0x8, addend: 0x0, symName: __ZNKSt3__16vectorI9fileEntryNS_9allocatorIS1_EEE4sizeB8ue170006Ev, symObjAddr: 0x9B48, symBinAddr: 0x10000D250, symSize: 0x28 }
  - { offsetInCU: 0x3CFCE, offset: 0x3CFCE, size: 0x8, addend: 0x0, symName: __ZN4Disk16allocateNewBlockEP7__sFILE, symObjAddr: 0x9B70, symBinAddr: 0x10000D278, symSize: 0x174 }
  - { offsetInCU: 0x3D015, offset: 0x3D015, size: 0x8, addend: 0x0, symName: __ZN7AddresseqERKS_, symObjAddr: 0x9CE4, symBinAddr: 0x10000D3EC, symSize: 0x48 }
  - { offsetInCU: 0x3D049, offset: 0x3D049, size: 0x8, addend: 0x0, symName: __ZN7AddressC1Ei, symObjAddr: 0x9D2C, symBinAddr: 0x10000D434, symSize: 0x34 }
  - { offsetInCU: 0x3D081, offset: 0x3D081, size: 0x8, addend: 0x0, symName: __ZNSt3__16vectorI9fileEntryNS_9allocatorIS1_EEEixB8ue170006Em, symObjAddr: 0x9D60, symBinAddr: 0x10000D468, symSize: 0x24 }
  - { offsetInCU: 0x3D0B8, offset: 0x3D0B8, size: 0x8, addend: 0x0, symName: __ZN9Diskblock5writeE7AddressP7__sFILEi, symObjAddr: 0x9D84, symBinAddr: 0x10000D48C, symSize: 0x68 }
  - { offsetInCU: 0x3D11D, offset: 0x3D11D, size: 0x8, addend: 0x0, symName: __ZN10superBlock16allocateNewInodeEjiP7AddressS1_P7__sFILEb, symObjAddr: 0x9DEC, symBinAddr: 0x10000D4F4, symSize: 0x4EC }
  - { offsetInCU: 0x3D245, offset: 0x3D245, size: 0x8, addend: 0x0, symName: __ZN16DiskblockManager5allocEP7__sFILE, symObjAddr: 0xA2D8, symBinAddr: 0x10000D9E0, symSize: 0x444 }
  - { offsetInCU: 0x3D2E7, offset: 0x3D2E7, size: 0x8, addend: 0x0, symName: __ZN10superBlock16updateSuperBlockEP7__sFILE, symObjAddr: 0xA71C, symBinAddr: 0x10000DE24, symSize: 0x140 }
  - { offsetInCU: 0x3D32E, offset: 0x3D32E, size: 0x8, addend: 0x0, symName: __ZN16DiskblockManager4freeE7AddressP7__sFILE, symObjAddr: 0xA85C, symBinAddr: 0x10000DF64, symSize: 0x2BC }
  - { offsetInCU: 0x3D3B3, offset: 0x3D3B3, size: 0x8, addend: 0x0, symName: __ZN4Disk9freeBlockE7AddressP7__sFILE, symObjAddr: 0xAB18, symBinAddr: 0x10000E220, symSize: 0xC4 }
  - { offsetInCU: 0x3D3FA, offset: 0x3D3FA, size: 0x8, addend: 0x0, symName: __ZN9fileEntryC1Ev, symObjAddr: 0xABDC, symBinAddr: 0x10000E2E4, symSize: 0x2C }
  - { offsetInCU: 0x3D427, offset: 0x3D427, size: 0x8, addend: 0x0, symName: __ZNSt3__16vectorI9fileEntryNS_9allocatorIS1_EEE9push_backB8ue170006ERKS1_, symObjAddr: 0xAC08, symBinAddr: 0x10000E310, symSize: 0x6C }
  - { offsetInCU: 0x3D45E, offset: 0x3D45E, size: 0x8, addend: 0x0, symName: __ZN4Disk31writeFileEntriesToDirectoryFileE9Directory5iNode, symObjAddr: 0xAC74, symBinAddr: 0x10000E37C, symSize: 0x6A4 }
  - { offsetInCU: 0x3D5F2, offset: 0x3D5F2, size: 0x8, addend: 0x0, symName: __ZN5iNode18updateModifiedTimeEv, symObjAddr: 0xB318, symBinAddr: 0x10000EA20, symSize: 0x28 }
  - { offsetInCU: 0x3D61B, offset: 0x3D61B, size: 0x8, addend: 0x0, symName: __ZN10superBlock10writeInodeE5iNodeP7__sFILE, symObjAddr: 0xB340, symBinAddr: 0x10000EA48, symSize: 0x15C }
  - { offsetInCU: 0x3D67D, offset: 0x3D67D, size: 0x8, addend: 0x0, symName: __ZN9DirectoryC1ERKS_, symObjAddr: 0xB49C, symBinAddr: 0x10000EBA4, symSize: 0x34 }
  - { offsetInCU: 0x3D6B3, offset: 0x3D6B3, size: 0x8, addend: 0x0, symName: __ZN17IndirectDiskblock5writeE7AddressP7__sFILE, symObjAddr: 0xB4D0, symBinAddr: 0x10000EBD8, symSize: 0xFC }
  - { offsetInCU: 0x3D718, offset: 0x3D718, size: 0x8, addend: 0x0, symName: __ZN10superBlock9freeInodeEiP7__sFILE, symObjAddr: 0xB5CC, symBinAddr: 0x10000ECD4, symSize: 0x90 }
  - { offsetInCU: 0x3D77D, offset: 0x3D77D, size: 0x8, addend: 0x0, symName: __ZN7AddressC1Ev, symObjAddr: 0xB65C, symBinAddr: 0x10000ED64, symSize: 0x2C }
  - { offsetInCU: 0x3D7A7, offset: 0x3D7A7, size: 0x8, addend: 0x0, symName: __ZN4Disk8copyFileER5iNodeS1_, symObjAddr: 0xB688, symBinAddr: 0x10000ED90, symSize: 0x6C0 }
  - { offsetInCU: 0x3D961, offset: 0x3D961, size: 0x8, addend: 0x0, symName: __ZNSt3__112basic_stringIcNS_11char_traitsIcEENS_9allocatorIcEEEC1B8ue170006Ev, symObjAddr: 0xBD48, symBinAddr: 0x10000F450, symSize: 0x2C }
  - { offsetInCU: 0x3D98B, offset: 0x3D98B, size: 0x8, addend: 0x0, symName: __ZNSt3__112basic_stringIcNS_11char_traitsIcEENS_9allocatorIcEEEaSB8ue170006EOS5_, symObjAddr: 0xBD74, symBinAddr: 0x10000F47C, symSize: 0x34 }
  - { offsetInCU: 0x3D9C0, offset: 0x3D9C0, size: 0x8, addend: 0x0, symName: __ZNKSt3__112basic_stringIcNS_11char_traitsIcEENS_9allocatorIcEEE4sizeB8ue170006Ev, symObjAddr: 0xBDA8, symBinAddr: 0x10000F4B0, symSize: 0x54 }
  - { offsetInCU: 0x3D9E6, offset: 0x3D9E6, size: 0x8, addend: 0x0, symName: __ZNKSt3__112basic_stringIcNS_11char_traitsIcEENS_9allocatorIcEEE6substrB8ue170006Emm, symObjAddr: 0xBDFC, symBinAddr: 0x10000F504, symSize: 0x68 }
  - { offsetInCU: 0x3DA6F, offset: 0x3DA6F, size: 0x8, addend: 0x0, symName: __ZNSt3__15stackINS_12basic_stringIcNS_11char_traitsIcEENS_9allocatorIcEEEENS_5dequeIS6_NS4_IS6_EEEEEC1B8ue170006Ev, symObjAddr: 0xBE64, symBinAddr: 0x10000F56C, symSize: 0x2C }
  - { offsetInCU: 0x3DA99, offset: 0x3DA99, size: 0x8, addend: 0x0, symName: __ZNSt3__15stackINS_12basic_stringIcNS_11char_traitsIcEENS_9allocatorIcEEEENS_5dequeIS6_NS4_IS6_EEEEE4pushB8ue170006EOS6_, symObjAddr: 0xBE90, symBinAddr: 0x10000F598, symSize: 0x2C }
  - { offsetInCU: 0x3DACE, offset: 0x3DACE, size: 0x8, addend: 0x0, symName: __ZNKSt3__15stackINS_12basic_stringIcNS_11char_traitsIcEENS_9allocatorIcEEEENS_5dequeIS6_NS4_IS6_EEEEE5emptyB8ue170006Ev, symObjAddr: 0xBEBC, symBinAddr: 0x10000F5C4, symSize: 0x28 }
  - { offsetInCU: 0x3DAF4, offset: 0x3DAF4, size: 0x8, addend: 0x0, symName: __ZNSt3__15stackINS_12basic_stringIcNS_11char_traitsIcEENS_9allocatorIcEEEENS_5dequeIS6_NS4_IS6_EEEEE3topB8ue170006Ev, symObjAddr: 0xBF28, symBinAddr: 0x10000F630, symSize: 0x24 }
  - { offsetInCU: 0x3DB1A, offset: 0x3DB1A, size: 0x8, addend: 0x0, symName: __ZNKSt3__15stackINS_12basic_stringIcNS_11char_traitsIcEENS_9allocatorIcEEEENS_5dequeIS6_NS4_IS6_EEEEE4sizeB8ue170006Ev, symObjAddr: 0xBF4C, symBinAddr: 0x10000F654, symSize: 0x24 }
  - { offsetInCU: 0x3DB40, offset: 0x3DB40, size: 0x8, addend: 0x0, symName: __ZNSt3__112basic_stringIcNS_11char_traitsIcEENS_9allocatorIcEEEpLB8ue170006ERKS5_, symObjAddr: 0xBF70, symBinAddr: 0x10000F678, symSize: 0x2C }
  - { offsetInCU: 0x3DB75, offset: 0x3DB75, size: 0x8, addend: 0x0, symName: __ZNSt3__15stackINS_12basic_stringIcNS_11char_traitsIcEENS_9allocatorIcEEEENS_5dequeIS6_NS4_IS6_EEEEE3popB8ue170006Ev, symObjAddr: 0xBF9C, symBinAddr: 0x10000F6A4, symSize: 0x24 }
  - { offsetInCU: 0x3DB9B, offset: 0x3DB9B, size: 0x8, addend: 0x0, symName: __ZNSt3__15stackINS_12basic_stringIcNS_11char_traitsIcEENS_9allocatorIcEEEENS_5dequeIS6_NS4_IS6_EEEEED1Ev, symObjAddr: 0xC004, symBinAddr: 0x10000F70C, symSize: 0x2C }
  - { offsetInCU: 0x3DBC7, offset: 0x3DBC7, size: 0x8, addend: 0x0, symName: __ZN5iNodeaSERKS_, symObjAddr: 0xC030, symBinAddr: 0x10000F738, symSize: 0xF4 }
  - { offsetInCU: 0x3DBFF, offset: 0x3DBFF, size: 0x8, addend: 0x0, symName: __ZNSt3__111basic_regexIcNS_12regex_traitsIcEEEC1B8ue170006INS_11char_traitsIcEENS_9allocatorIcEEEERKNS_12basic_stringIcT_T0_EENS_15regex_constants18syntax_option_typeE, symObjAddr: 0xC124, symBinAddr: 0x10000F82C, symSize: 0x3C }
  - { offsetInCU: 0x3DC59, offset: 0x3DC59, size: 0x8, addend: 0x0, symName: __ZNKSt3__112basic_stringIcNS_11char_traitsIcEENS_9allocatorIcEEE5beginB8ue170006Ev, symObjAddr: 0xC160, symBinAddr: 0x10000F868, symSize: 0x4C }
  - { offsetInCU: 0x3DC7F, offset: 0x3DC7F, size: 0x8, addend: 0x0, symName: __ZNKSt3__112basic_stringIcNS_11char_traitsIcEENS_9allocatorIcEEE3endB8ue170006Ev, symObjAddr: 0xC1AC, symBinAddr: 0x10000F8B4, symSize: 0x54 }
  - { offsetInCU: 0x3DD61, offset: 0x3DD61, size: 0x8, addend: 0x0, symName: __ZNSt3__120regex_token_iteratorINS_11__wrap_iterIPKcEEcNS_12regex_traitsIcEEEC1ES4_S4_RKNS_11basic_regexIcS6_EEiNS_15regex_constants15match_flag_typeE, symObjAddr: 0xC200, symBinAddr: 0x10000F908, symSize: 0x54 }
  - { offsetInCU: 0x3DDD8, offset: 0x3DDD8, size: 0x8, addend: 0x0, symName: __ZNSt3__120regex_token_iteratorINS_11__wrap_iterIPKcEEcNS_12regex_traitsIcEEEC1Ev, symObjAddr: 0xC254, symBinAddr: 0x10000F95C, symSize: 0x2C }
  - { offsetInCU: 0x3DE04, offset: 0x3DE04, size: 0x8, addend: 0x0, symName: __ZNSt3__16vectorINS_12basic_stringIcNS_11char_traitsIcEENS_9allocatorIcEEEENS4_IS6_EEEC1INS_20regex_token_iteratorINS_11__wrap_iterIPKcEEcNS_12regex_traitsIcEEEELi0EEET_SI_, symObjAddr: 0xC280, symBinAddr: 0x10000F988, symSize: 0x3C }
  - { offsetInCU: 0x3DE65, offset: 0x3DE65, size: 0x8, addend: 0x0, symName: __ZNSt3__120regex_token_iteratorINS_11__wrap_iterIPKcEEcNS_12regex_traitsIcEEED1Ev, symObjAddr: 0xC2BC, symBinAddr: 0x10000F9C4, symSize: 0x2C }
  - { offsetInCU: 0x3DE92, offset: 0x3DE92, size: 0x8, addend: 0x0, symName: __ZNSt3__16vectorINS_12basic_stringIcNS_11char_traitsIcEENS_9allocatorIcEEEENS4_IS6_EEE5beginB8ue170006Ev, symObjAddr: 0xC2E8, symBinAddr: 0x10000F9F0, symSize: 0x30 }
  - { offsetInCU: 0x3DEBA, offset: 0x3DEBA, size: 0x8, addend: 0x0, symName: __ZNSt3__16vectorINS_12basic_stringIcNS_11char_traitsIcEENS_9allocatorIcEEEENS4_IS6_EEE3endB8ue170006Ev, symObjAddr: 0xC34C, symBinAddr: 0x10000FA54, symSize: 0x30 }
  - { offsetInCU: 0x3DEE2, offset: 0x3DEE2, size: 0x8, addend: 0x0, symName: __ZNKSt3__111__wrap_iterIPNS_12basic_stringIcNS_11char_traitsIcEENS_9allocatorIcEEEEEdeB8ue170006Ev, symObjAddr: 0xC428, symBinAddr: 0x10000FB30, symSize: 0x18 }
  - { offsetInCU: 0x3DF08, offset: 0x3DF08, size: 0x8, addend: 0x0, symName: __ZNSt3__16vectorINS_12basic_stringIcNS_11char_traitsIcEENS_9allocatorIcEEEENS4_IS6_EEE5eraseB8ue170006ENS_11__wrap_iterIPKS6_EE, symObjAddr: 0xC440, symBinAddr: 0x10000FB48, symSize: 0x9C }
  - { offsetInCU: 0x3DF69, offset: 0x3DF69, size: 0x8, addend: 0x0, symName: __ZNSt3__111__wrap_iterIPKNS_12basic_stringIcNS_11char_traitsIcEENS_9allocatorIcEEEEEC1B8ue170006IPS6_EERKNS0_IT_EEPNS_9enable_ifIXsr14is_convertibleISC_S8_EE5valueEvE4typeE, symObjAddr: 0xC4DC, symBinAddr: 0x10000FBE4, symSize: 0x3C }
  - { offsetInCU: 0x3DFB4, offset: 0x3DFB4, size: 0x8, addend: 0x0, symName: __ZNSt3__111__wrap_iterIPNS_12basic_stringIcNS_11char_traitsIcEENS_9allocatorIcEEEEEppB8ue170006Ei, symObjAddr: 0xC518, symBinAddr: 0x10000FC20, symSize: 0x34 }
  - { offsetInCU: 0x3DFF2, offset: 0x3DFF2, size: 0x8, addend: 0x0, symName: __ZNSt3__16vectorI9fileEntryNS_9allocatorIS1_EEE5eraseB8ue170006ENS_11__wrap_iterIPKS1_EE, symObjAddr: 0xC54C, symBinAddr: 0x10000FC54, symSize: 0x94 }
  - { offsetInCU: 0x3E047, offset: 0x3E047, size: 0x8, addend: 0x0, symName: __ZNSt3__16vectorI9fileEntryNS_9allocatorIS1_EEE5beginB8ue170006Ev, symObjAddr: 0xC5E0, symBinAddr: 0x10000FCE8, symSize: 0x30 }
  - { offsetInCU: 0x3E06F, offset: 0x3E06F, size: 0x8, addend: 0x0, symName: __ZNKSt3__111__wrap_iterIP9fileEntryEplB8ue170006El, symObjAddr: 0xC610, symBinAddr: 0x10000FD18, symSize: 0x3C }
  - { offsetInCU: 0x3E0B7, offset: 0x3E0B7, size: 0x8, addend: 0x0, symName: __ZNSt3__111__wrap_iterIPK9fileEntryEC1B8ue170006IPS1_EERKNS0_IT_EEPNS_9enable_ifIXsr14is_convertibleIS7_S3_EE5valueEvE4typeE, symObjAddr: 0xC64C, symBinAddr: 0x10000FD54, symSize: 0x3C }
  - { offsetInCU: 0x3E102, offset: 0x3E102, size: 0x8, addend: 0x0, symName: __ZN5iNodeC1Ejiib, symObjAddr: 0xC688, symBinAddr: 0x10000FD90, symSize: 0x58 }
  - { offsetInCU: 0x3E16B, offset: 0x3E16B, size: 0x8, addend: 0x0, symName: __ZN5iNodeC1EOS_, symObjAddr: 0xC6E0, symBinAddr: 0x10000FDE8, symSize: 0x34 }
  - { offsetInCU: 0x3E1A7, offset: 0x3E1A7, size: 0x8, addend: 0x0, symName: __ZN10superBlockC2Ev, symObjAddr: 0xC714, symBinAddr: 0x10000FE1C, symSize: 0x90 }
  - { offsetInCU: 0x3E1D4, offset: 0x3E1D4, size: 0x8, addend: 0x0, symName: __ZN9Diskblock14refreshContentEv, symObjAddr: 0xC7A4, symBinAddr: 0x10000FEAC, symSize: 0x28 }
  - { offsetInCU: 0x3E1FD, offset: 0x3E1FD, size: 0x8, addend: 0x0, symName: __ZN9DiskblockC2Ei, symObjAddr: 0xC7CC, symBinAddr: 0x10000FED4, symSize: 0x3C }
  - { offsetInCU: 0x3E239, offset: 0x3E239, size: 0x8, addend: 0x0, symName: __ZN9Diskblock4loadEiP7__sFILEi, symObjAddr: 0xC808, symBinAddr: 0x10000FF10, symSize: 0xE4 }
  - { offsetInCU: 0x3E29E, offset: 0x3E29E, size: 0x8, addend: 0x0, symName: __ZN9DiskblockC1Ei, symObjAddr: 0xC8EC, symBinAddr: 0x10000FFF4, symSize: 0x34 }
  - { offsetInCU: 0x3E2DA, offset: 0x3E2DA, size: 0x8, addend: 0x0, symName: __ZN9DiskblockC2E7Address, symObjAddr: 0xC920, symBinAddr: 0x100010028, symSize: 0x6C }
  - { offsetInCU: 0x3E316, offset: 0x3E316, size: 0x8, addend: 0x0, symName: __ZN9DiskblockC1E7Address, symObjAddr: 0xC98C, symBinAddr: 0x100010094, symSize: 0x54 }
  - { offsetInCU: 0x3E352, offset: 0x3E352, size: 0x8, addend: 0x0, symName: __ZN9Diskblock5writeEiP7__sFILEi, symObjAddr: 0xC9E0, symBinAddr: 0x1000100E8, symSize: 0xE8 }
  - { offsetInCU: 0x3E3B7, offset: 0x3E3B7, size: 0x8, addend: 0x0, symName: __ZN5iNodeC2Ejiib, symObjAddr: 0xCAC8, symBinAddr: 0x1000101D0, symSize: 0xD8 }
  - { offsetInCU: 0x3E420, offset: 0x3E420, size: 0x8, addend: 0x0, symName: __ZN5iNodeC2Ev, symObjAddr: 0xCBA0, symBinAddr: 0x1000102A8, symSize: 0x40 }
  - { offsetInCU: 0x3E44D, offset: 0x3E44D, size: 0x8, addend: 0x0, symName: __ZN5iNodeD2Ev, symObjAddr: 0xCBE0, symBinAddr: 0x1000102E8, symSize: 0x14 }
  - { offsetInCU: 0x3E47A, offset: 0x3E47A, size: 0x8, addend: 0x0, symName: __ZN5iNodeC2ERKS_, symObjAddr: 0xCBF4, symBinAddr: 0x1000102FC, symSize: 0x12C }
  - { offsetInCU: 0x3E4B6, offset: 0x3E4B6, size: 0x8, addend: 0x0, symName: __ZN5iNodeC2EOS_, symObjAddr: 0xCDA0, symBinAddr: 0x1000104A8, symSize: 0x14C }
  - { offsetInCU: 0x3E4F2, offset: 0x3E4F2, size: 0x8, addend: 0x0, symName: __ZN5iNode16updateCreateTimeEv, symObjAddr: 0xCF50, symBinAddr: 0x100010658, symSize: 0x28 }
  - { offsetInCU: 0x3E51B, offset: 0x3E51B, size: 0x8, addend: 0x0, symName: __ZN5iNode16updateAccessTimeEv, symObjAddr: 0xCF78, symBinAddr: 0x100010680, symSize: 0x28 }
  - { offsetInCU: 0x3E544, offset: 0x3E544, size: 0x8, addend: 0x0, symName: __ZN7Address10block_addrEv, symObjAddr: 0xCFA0, symBinAddr: 0x1000106A8, symSize: 0x54 }
  - { offsetInCU: 0x3E56A, offset: 0x3E56A, size: 0x8, addend: 0x0, symName: __ZN7Address6offsetEv, symObjAddr: 0xCFF4, symBinAddr: 0x1000106FC, symSize: 0x58 }
  - { offsetInCU: 0x3E590, offset: 0x3E590, size: 0x8, addend: 0x0, symName: __ZN7AddressplERKi, symObjAddr: 0xD04C, symBinAddr: 0x100010754, symSize: 0x58 }
  - { offsetInCU: 0x3E5C4, offset: 0x3E5C4, size: 0x8, addend: 0x0, symName: __ZN7Address8from_intEi, symObjAddr: 0xD0A4, symBinAddr: 0x1000107AC, symSize: 0x70 }
  - { offsetInCU: 0x3E5F8, offset: 0x3E5F8, size: 0x8, addend: 0x0, symName: __ZN7AddressmiERKi, symObjAddr: 0xD114, symBinAddr: 0x10001081C, symSize: 0x58 }
  - { offsetInCU: 0x3E62C, offset: 0x3E62C, size: 0x8, addend: 0x0, symName: __ZN16DiskblockManager18getLinkedListBlockEP7__sFILE, symObjAddr: 0xD16C, symBinAddr: 0x100010874, symSize: 0x104 }
  - { offsetInCU: 0x3E691, offset: 0x3E691, size: 0x8, addend: 0x0, symName: __ZN16DiskblockManager12getFreeBlockEi, symObjAddr: 0xD270, symBinAddr: 0x100010978, symSize: 0x70 }
  - { offsetInCU: 0x3E6C9, offset: 0x3E6C9, size: 0x8, addend: 0x0, symName: __ZN7AddressneERKS_, symObjAddr: 0xD2E0, symBinAddr: 0x1000109E8, symSize: 0x34 }
  - { offsetInCU: 0x3E6FD, offset: 0x3E6FD, size: 0x8, addend: 0x0, symName: __ZN4NodeD2Ev, symObjAddr: 0xD314, symBinAddr: 0x100010A1C, symSize: 0x14 }
  - { offsetInCU: 0x3E72A, offset: 0x3E72A, size: 0x8, addend: 0x0, symName: __ZN4NodeD1Ev, symObjAddr: 0xD328, symBinAddr: 0x100010A30, symSize: 0x2C }
  - { offsetInCU: 0x3E757, offset: 0x3E757, size: 0x8, addend: 0x0, symName: __ZN4NodeD0Ev, symObjAddr: 0xD354, symBinAddr: 0x100010A5C, symSize: 0x30 }
  - { offsetInCU: 0x3E784, offset: 0x3E784, size: 0x8, addend: 0x0, symName: __ZN4NodeC2Ev, symObjAddr: 0xD384, symBinAddr: 0x100010A8C, symSize: 0x94 }
  - { offsetInCU: 0x3E7B1, offset: 0x3E7B1, size: 0x8, addend: 0x0, symName: __ZN4NodeC1Ev, symObjAddr: 0xD418, symBinAddr: 0x100010B20, symSize: 0x2C }
  - { offsetInCU: 0x3E7DE, offset: 0x3E7DE, size: 0x8, addend: 0x0, symName: __ZN9Leaf_NodeC2Ev, symObjAddr: 0xD444, symBinAddr: 0x100010B4C, symSize: 0x54 }
  - { offsetInCU: 0x3E80B, offset: 0x3E80B, size: 0x8, addend: 0x0, symName: __ZN9Leaf_NodeC1Ev, symObjAddr: 0xD498, symBinAddr: 0x100010BA0, symSize: 0x2C }
  - { offsetInCU: 0x3E838, offset: 0x3E838, size: 0x8, addend: 0x0, symName: __ZN10Inter_NodeC2Ev, symObjAddr: 0xD4C4, symBinAddr: 0x100010BCC, symSize: 0x98 }
  - { offsetInCU: 0x3E882, offset: 0x3E882, size: 0x8, addend: 0x0, symName: __ZN10Inter_NodeC1Ev, symObjAddr: 0xD55C, symBinAddr: 0x100010C64, symSize: 0x2C }
  - { offsetInCU: 0x3E9F8, offset: 0x3E9F8, size: 0x8, addend: 0x0, symName: __ZN5BplusC2Ev, symObjAddr: 0xD588, symBinAddr: 0x100010C90, symSize: 0x28 }
  - { offsetInCU: 0x3EA25, offset: 0x3EA25, size: 0x8, addend: 0x0, symName: __ZN5BplusC1Ev, symObjAddr: 0xD5B0, symBinAddr: 0x100010CB8, symSize: 0x2C }
  - { offsetInCU: 0x3EA52, offset: 0x3EA52, size: 0x8, addend: 0x0, symName: __ZN4Node10GetBrotherERi, symObjAddr: 0xD5DC, symBinAddr: 0x100010CE4, symSize: 0x12C }
  - { offsetInCU: 0x3EAB6, offset: 0x3EAB6, size: 0x8, addend: 0x0, symName: __ZN4Node5PrintEv, symObjAddr: 0xD708, symBinAddr: 0x100010E10, symSize: 0xC8 }
  - { offsetInCU: 0x3EAFB, offset: 0x3EAFB, size: 0x8, addend: 0x0, symName: __ZlsRNSt3__113basic_ostreamIcNS_11char_traitsIcEEEERK9fileEntry, symObjAddr: 0xD7D0, symBinAddr: 0x100010ED8, symSize: 0x30 }
  - { offsetInCU: 0x3EB39, offset: 0x3EB39, size: 0x8, addend: 0x0, symName: __ZN10Inter_NodeD2Ev, symObjAddr: 0xD800, symBinAddr: 0x100010F08, symSize: 0x8C }
  - { offsetInCU: 0x3EB83, offset: 0x3EB83, size: 0x8, addend: 0x0, symName: __ZN10Inter_NodeD1Ev, symObjAddr: 0xD88C, symBinAddr: 0x100010F94, symSize: 0x2C }
  - { offsetInCU: 0x3EBB0, offset: 0x3EBB0, size: 0x8, addend: 0x0, symName: __ZN10Inter_NodeD0Ev, symObjAddr: 0xD8B8, symBinAddr: 0x100010FC0, symSize: 0x30 }
  - { offsetInCU: 0x3EBDD, offset: 0x3EBDD, size: 0x8, addend: 0x0, symName: __ZN10Inter_Node5MergeEPS_, symObjAddr: 0xD8E8, symBinAddr: 0x100010FF0, symSize: 0xFC }
  - { offsetInCU: 0x3EC32, offset: 0x3EC32, size: 0x8, addend: 0x0, symName: __ZN9fileEntryaSERKS_, symObjAddr: 0xD9E4, symBinAddr: 0x1000110EC, symSize: 0x48 }
  - { offsetInCU: 0x3EC6A, offset: 0x3EC6A, size: 0x8, addend: 0x0, symName: __ZN10Inter_Node6InsertE9fileEntryP4Node, symObjAddr: 0xDA2C, symBinAddr: 0x100011134, symSize: 0x1B8 }
  - { offsetInCU: 0x3ECFB, offset: 0x3ECFB, size: 0x8, addend: 0x0, symName: __ZNK9fileEntrygtERKS_, symObjAddr: 0xDBE4, symBinAddr: 0x1000112EC, symSize: 0x38 }
  - { offsetInCU: 0x3ED33, offset: 0x3ED33, size: 0x8, addend: 0x0, symName: __ZN10Inter_Node5SplitEPS_9fileEntry, symObjAddr: 0xDC1C, symBinAddr: 0x100011324, symSize: 0x2D8 }
  - { offsetInCU: 0x3EDA8, offset: 0x3EDA8, size: 0x8, addend: 0x0, symName: __ZNK9fileEntryltERKS_, symObjAddr: 0xDEF4, symBinAddr: 0x1000115FC, symSize: 0x38 }
  - { offsetInCU: 0x3EDE0, offset: 0x3EDE0, size: 0x8, addend: 0x0, symName: __ZN10Inter_Node6DeleteE9fileEntry, symObjAddr: 0xDF2C, symBinAddr: 0x100011634, symSize: 0x18C }
  - { offsetInCU: 0x3EE54, offset: 0x3EE54, size: 0x8, addend: 0x0, symName: __ZNK9fileEntrygeERKS_, symObjAddr: 0xE0B8, symBinAddr: 0x1000117C0, symSize: 0x6C }
  - { offsetInCU: 0x3EE8C, offset: 0x3EE8C, size: 0x8, addend: 0x0, symName: __ZN10Inter_Node4SlibEPS_, symObjAddr: 0xE124, symBinAddr: 0x10001182C, symSize: 0x26C }
  - { offsetInCU: 0x3EEE2, offset: 0x3EEE2, size: 0x8, addend: 0x0, symName: __ZN9Leaf_NodeD2Ev, symObjAddr: 0xE390, symBinAddr: 0x100011A98, symSize: 0x2C }
  - { offsetInCU: 0x3EF0F, offset: 0x3EF0F, size: 0x8, addend: 0x0, symName: __ZN9Leaf_NodeD1Ev, symObjAddr: 0xE3BC, symBinAddr: 0x100011AC4, symSize: 0x2C }
  - { offsetInCU: 0x3EF3C, offset: 0x3EF3C, size: 0x8, addend: 0x0, symName: __ZN9Leaf_NodeD0Ev, symObjAddr: 0xE3E8, symBinAddr: 0x100011AF0, symSize: 0x30 }
  - { offsetInCU: 0x3EF69, offset: 0x3EF69, size: 0x8, addend: 0x0, symName: __ZN9Leaf_Node5SplitEPS_, symObjAddr: 0xE418, symBinAddr: 0x100011B20, symSize: 0xC8 }
  - { offsetInCU: 0x3EFCD, offset: 0x3EFCD, size: 0x8, addend: 0x0, symName: __ZN9Leaf_Node6DeleteE9fileEntry, symObjAddr: 0xE4E0, symBinAddr: 0x100011BE8, symSize: 0x178 }
  - { offsetInCU: 0x3F033, offset: 0x3F033, size: 0x8, addend: 0x0, symName: __ZNK9fileEntryeqERKS_, symObjAddr: 0xE658, symBinAddr: 0x100011D60, symSize: 0x38 }
  - { offsetInCU: 0x3F06B, offset: 0x3F06B, size: 0x8, addend: 0x0, symName: __ZN9fileEntryaSEPKc, symObjAddr: 0xE690, symBinAddr: 0x100011D98, symSize: 0x3C }
  - { offsetInCU: 0x3F0A3, offset: 0x3F0A3, size: 0x8, addend: 0x0, symName: __ZN9Leaf_Node6InsertE9fileEntry, symObjAddr: 0xE6CC, symBinAddr: 0x100011DD4, symSize: 0x130 }
  - { offsetInCU: 0x3F108, offset: 0x3F108, size: 0x8, addend: 0x0, symName: __ZN5Bplus4FindE9fileEntry, symObjAddr: 0xE7FC, symBinAddr: 0x100011F04, symSize: 0xEC }
  - { offsetInCU: 0x3F16E, offset: 0x3F16E, size: 0x8, addend: 0x0, symName: __ZN9Leaf_Node5MergeEPS_, symObjAddr: 0xE8E8, symBinAddr: 0x100011FF0, symSize: 0x118 }
  - { offsetInCU: 0x3F1C3, offset: 0x3F1C3, size: 0x8, addend: 0x0, symName: __ZN5BplusD2Ev, symObjAddr: 0xEA00, symBinAddr: 0x100012108, symSize: 0x14 }
  - { offsetInCU: 0x3F1F0, offset: 0x3F1F0, size: 0x8, addend: 0x0, symName: __ZN5BplusD1Ev, symObjAddr: 0xEA14, symBinAddr: 0x10001211C, symSize: 0x2C }
  - { offsetInCU: 0x3F21D, offset: 0x3F21D, size: 0x8, addend: 0x0, symName: __ZN5BplusD0Ev, symObjAddr: 0xEA40, symBinAddr: 0x100012148, symSize: 0x30 }
  - { offsetInCU: 0x3F24A, offset: 0x3F24A, size: 0x8, addend: 0x0, symName: __ZN5Bplus8Add_NodeEP10Inter_Node9fileEntryP4Node, symObjAddr: 0xEA70, symBinAddr: 0x100012178, symSize: 0x358 }
  - { offsetInCU: 0x3F2D5, offset: 0x3F2D5, size: 0x8, addend: 0x0, symName: __ZN5Bplus6SearchE9fileEntryRNSt3__112basic_stringIcNS1_11char_traitsIcEENS1_9allocatorIcEEEE, symObjAddr: 0xEDC8, symBinAddr: 0x1000124D0, symSize: 0x294 }
  - { offsetInCU: 0x3F376, offset: 0x3F376, size: 0x8, addend: 0x0, symName: __ZNSt3__112basic_stringIcNS_11char_traitsIcEENS_9allocatorIcEEEaSB8ue170006EPKc, symObjAddr: 0xF05C, symBinAddr: 0x100012764, symSize: 0x2C }
  - { offsetInCU: 0x3F3AB, offset: 0x3F3AB, size: 0x8, addend: 0x0, symName: __ZNSt3__112basic_stringIcNS_11char_traitsIcEENS_9allocatorIcEEEpLB8ue170006EPKc, symObjAddr: 0xF088, symBinAddr: 0x100012790, symSize: 0x2C }
  - { offsetInCU: 0x3F3E0, offset: 0x3F3E0, size: 0x8, addend: 0x0, symName: __ZN5Bplus6SearchEPcRNSt3__112basic_stringIcNS1_11char_traitsIcEENS1_9allocatorIcEEEE, symObjAddr: 0xF0B4, symBinAddr: 0x1000127BC, symSize: 0x2F8 }
  - { offsetInCU: 0x3F492, offset: 0x3F492, size: 0x8, addend: 0x0, symName: __ZN5Bplus6InsertE9fileEntry, symObjAddr: 0xF3F8, symBinAddr: 0x100012B00, symSize: 0x468 }
  - { offsetInCU: 0x3F54B, offset: 0x3F54B, size: 0x8, addend: 0x0, symName: __ZN5Bplus6DeleteE9fileEntry, symObjAddr: 0xF860, symBinAddr: 0x100012F68, symSize: 0x6AC }
  - { offsetInCU: 0x3F67C, offset: 0x3F67C, size: 0x8, addend: 0x0, symName: __ZN5Bplus11Remove_NodeEP10Inter_Node9fileEntry, symObjAddr: 0xFF0C, symBinAddr: 0x100013614, symSize: 0x544 }
  - { offsetInCU: 0x3F761, offset: 0x3F761, size: 0x8, addend: 0x0, symName: __ZN5Bplus5PrintEv, symObjAddr: 0x10450, symBinAddr: 0x100013B58, symSize: 0x268 }
  - { offsetInCU: 0x3F839, offset: 0x3F839, size: 0x8, addend: 0x0, symName: __ZNSt3__15queueIP4NodeNS_5dequeIS2_NS_9allocatorIS2_EEEEEC1B8ue170006Ev, symObjAddr: 0x106B8, symBinAddr: 0x100013DC0, symSize: 0x2C }
  - { offsetInCU: 0x3F8A8, offset: 0x3F8A8, size: 0x8, addend: 0x0, symName: __ZNSt3__15queueIiNS_5dequeIiNS_9allocatorIiEEEEEC1B8ue170006Ev, symObjAddr: 0x106E4, symBinAddr: 0x100013DEC, symSize: 0x2C }
  - { offsetInCU: 0x3F8D2, offset: 0x3F8D2, size: 0x8, addend: 0x0, symName: __ZNSt3__15queueIP4NodeNS_5dequeIS2_NS_9allocatorIS2_EEEEE4pushB8ue170006ERKS2_, symObjAddr: 0x10710, symBinAddr: 0x100013E18, symSize: 0x2C }
  - { offsetInCU: 0x3F907, offset: 0x3F907, size: 0x8, addend: 0x0, symName: __ZNSt3__15queueIiNS_5dequeIiNS_9allocatorIiEEEEE4pushB8ue170006EOi, symObjAddr: 0x1073C, symBinAddr: 0x100013E44, symSize: 0x2C }
  - { offsetInCU: 0x3F93C, offset: 0x3F93C, size: 0x8, addend: 0x0, symName: __ZNKSt3__15queueIP4NodeNS_5dequeIS2_NS_9allocatorIS2_EEEEE5emptyB8ue170006Ev, symObjAddr: 0x10768, symBinAddr: 0x100013E70, symSize: 0x28 }
  - { offsetInCU: 0x3F962, offset: 0x3F962, size: 0x8, addend: 0x0, symName: __ZNSt3__15queueIP4NodeNS_5dequeIS2_NS_9allocatorIS2_EEEEE5frontB8ue170006Ev, symObjAddr: 0x10790, symBinAddr: 0x100013E98, symSize: 0x24 }
  - { offsetInCU: 0x3F988, offset: 0x3F988, size: 0x8, addend: 0x0, symName: __ZNSt3__15queueIiNS_5dequeIiNS_9allocatorIiEEEEE5frontB8ue170006Ev, symObjAddr: 0x107B4, symBinAddr: 0x100013EBC, symSize: 0x24 }
  - { offsetInCU: 0x3F9AE, offset: 0x3F9AE, size: 0x8, addend: 0x0, symName: __ZNSt3__15queueIP4NodeNS_5dequeIS2_NS_9allocatorIS2_EEEEE3popB8ue170006Ev, symObjAddr: 0x107D8, symBinAddr: 0x100013EE0, symSize: 0x24 }
  - { offsetInCU: 0x3F9D4, offset: 0x3F9D4, size: 0x8, addend: 0x0, symName: __ZNSt3__15queueIiNS_5dequeIiNS_9allocatorIiEEEEE3popB8ue170006Ev, symObjAddr: 0x107FC, symBinAddr: 0x100013F04, symSize: 0x24 }
  - { offsetInCU: 0x3F9FA, offset: 0x3F9FA, size: 0x8, addend: 0x0, symName: __ZNSt3__15queueIiNS_5dequeIiNS_9allocatorIiEEEEED1Ev, symObjAddr: 0x10820, symBinAddr: 0x100013F28, symSize: 0x2C }
  - { offsetInCU: 0x3FA27, offset: 0x3FA27, size: 0x8, addend: 0x0, symName: __ZNSt3__15queueIP4NodeNS_5dequeIS2_NS_9allocatorIS2_EEEEED1Ev, symObjAddr: 0x1084C, symBinAddr: 0x100013F54, symSize: 0x2C }
  - { offsetInCU: 0x3FA54, offset: 0x3FA54, size: 0x8, addend: 0x0, symName: __ZN9fileEntryC2Ev, symObjAddr: 0x10878, symBinAddr: 0x100013F80, symSize: 0x38 }
  - { offsetInCU: 0x3FA81, offset: 0x3FA81, size: 0x8, addend: 0x0, symName: __ZN9fileEntryC2EPKcs, symObjAddr: 0x108B0, symBinAddr: 0x100013FB8, symSize: 0x48 }
  - { offsetInCU: 0x3FACC, offset: 0x3FACC, size: 0x8, addend: 0x0, symName: __ZNSt3__15mutexC2B8ue170006Ev, symObjAddr: 0x108F8, symBinAddr: 0x100014000, symSize: 0x44 }
  - { offsetInCU: 0x3FAF6, offset: 0x3FAF6, size: 0x8, addend: 0x0, symName: __ZNSt3__118condition_variableC2B8ue170006Ev, symObjAddr: 0x1093C, symBinAddr: 0x100014044, symSize: 0x44 }
  - { offsetInCU: 0x3FB20, offset: 0x3FB20, size: 0x8, addend: 0x0, symName: __ZN9DirectoryD2Ev, symObjAddr: 0x10980, symBinAddr: 0x100014088, symSize: 0x2C }
  - { offsetInCU: 0x3FB4D, offset: 0x3FB4D, size: 0x8, addend: 0x0, symName: __ZNSt3__16vectorI9fileEntryNS_9allocatorIS1_EEED1B8ue170006Ev, symObjAddr: 0x109AC, symBinAddr: 0x1000140B4, symSize: 0x2C }
  - { offsetInCU: 0x3FB77, offset: 0x3FB77, size: 0x8, addend: 0x0, symName: __ZNSt3__16vectorI9fileEntryNS_9allocatorIS1_EEED2B8ue170006Ev, symObjAddr: 0x109D8, symBinAddr: 0x1000140E0, symSize: 0x44 }
  - { offsetInCU: 0x3FBA1, offset: 0x3FBA1, size: 0x8, addend: 0x0, symName: __ZNSt3__16vectorI9fileEntryNS_9allocatorIS1_EEE16__destroy_vectorC1B8ue170006ERS4_, symObjAddr: 0x10A1C, symBinAddr: 0x100014124, symSize: 0x34 }
  - { offsetInCU: 0x3FBDA, offset: 0x3FBDA, size: 0x8, addend: 0x0, symName: __ZNSt3__16vectorI9fileEntryNS_9allocatorIS1_EEE16__destroy_vectorclB8ue170006Ev, symObjAddr: 0x10A50, symBinAddr: 0x100014158, symSize: 0x90 }
  - { offsetInCU: 0x3FC00, offset: 0x3FC00, size: 0x8, addend: 0x0, symName: __ZNSt3__16vectorI9fileEntryNS_9allocatorIS1_EEE16__destroy_vectorC2B8ue170006ERS4_, symObjAddr: 0x10AE0, symBinAddr: 0x1000141E8, symSize: 0x20 }
  - { offsetInCU: 0x3FC39, offset: 0x3FC39, size: 0x8, addend: 0x0, symName: __ZNSt3__16vectorI9fileEntryNS_9allocatorIS1_EEE7__clearB8ue170006Ev, symObjAddr: 0x10B00, symBinAddr: 0x100014208, symSize: 0x28 }
  - { offsetInCU: 0x3FC5F, offset: 0x3FC5F, size: 0x8, addend: 0x0, symName: __ZNKSt3__16vectorI9fileEntryNS_9allocatorIS1_EEE17__annotate_deleteB8ue170006Ev, symObjAddr: 0x10B28, symBinAddr: 0x100014230, symSize: 0xB8 }
  - { offsetInCU: 0x3FC85, offset: 0x3FC85, size: 0x8, addend: 0x0, symName: __ZNSt3__116allocator_traitsINS_9allocatorI9fileEntryEEE10deallocateB8ue170006ERS3_PS2_m, symObjAddr: 0x10BE0, symBinAddr: 0x1000142E8, symSize: 0x34 }
  - { offsetInCU: 0x3FCC7, offset: 0x3FCC7, size: 0x8, addend: 0x0, symName: __ZNSt3__16vectorI9fileEntryNS_9allocatorIS1_EEE7__allocB8ue170006Ev, symObjAddr: 0x10C14, symBinAddr: 0x10001431C, symSize: 0x28 }
  - { offsetInCU: 0x3FCED, offset: 0x3FCED, size: 0x8, addend: 0x0, symName: __ZNKSt3__16vectorI9fileEntryNS_9allocatorIS1_EEE8capacityB8ue170006Ev, symObjAddr: 0x10C3C, symBinAddr: 0x100014344, symSize: 0x40 }
  - { offsetInCU: 0x3FD13, offset: 0x3FD13, size: 0x8, addend: 0x0, symName: __ZNSt3__16vectorI9fileEntryNS_9allocatorIS1_EEE22__base_destruct_at_endB8ue170006EPS1_, symObjAddr: 0x10C7C, symBinAddr: 0x100014384, symSize: 0x8C }
  - { offsetInCU: 0x3FD57, offset: 0x3FD57, size: 0x8, addend: 0x0, symName: __ZNSt3__116allocator_traitsINS_9allocatorI9fileEntryEEE7destroyB8ue170006IS2_vEEvRS3_PT_, symObjAddr: 0x10D08, symBinAddr: 0x100014410, symSize: 0x2C }
  - { offsetInCU: 0x3FD94, offset: 0x3FD94, size: 0x8, addend: 0x0, symName: __ZNSt3__19allocatorI9fileEntryE7destroyB8ue170006EPS1_, symObjAddr: 0x10D48, symBinAddr: 0x100014450, symSize: 0x14 }
  - { offsetInCU: 0x3FDC8, offset: 0x3FDC8, size: 0x8, addend: 0x0, symName: __ZNKSt3__16vectorI9fileEntryNS_9allocatorIS1_EEE31__annotate_contiguous_containerB8ue170006EPKvS6_S6_S6_, symObjAddr: 0x10D5C, symBinAddr: 0x100014464, symSize: 0x20 }
  - { offsetInCU: 0x3FE1E, offset: 0x3FE1E, size: 0x8, addend: 0x0, symName: __ZNKSt3__16vectorI9fileEntryNS_9allocatorIS1_EEE4dataB8ue170006Ev, symObjAddr: 0x10D7C, symBinAddr: 0x100014484, symSize: 0x28 }
  - { offsetInCU: 0x3FE44, offset: 0x3FE44, size: 0x8, addend: 0x0, symName: __ZNSt3__19allocatorI9fileEntryE10deallocateB8ue170006EPS1_m, symObjAddr: 0x10DA4, symBinAddr: 0x1000144AC, symSize: 0x40 }
  - { offsetInCU: 0x3FE86, offset: 0x3FE86, size: 0x8, addend: 0x0, symName: __ZNSt3__117__compressed_pairIP9fileEntryNS_9allocatorIS1_EEE6secondB8ue170006Ev, symObjAddr: 0x10E60, symBinAddr: 0x100014568, symSize: 0x24 }
  - { offsetInCU: 0x3FEAC, offset: 0x3FEAC, size: 0x8, addend: 0x0, symName: __ZNSt3__122__compressed_pair_elemINS_9allocatorI9fileEntryEELi1ELb1EE5__getB8ue170006Ev, symObjAddr: 0x10E84, symBinAddr: 0x10001458C, symSize: 0x14 }
  - { offsetInCU: 0x3FED2, offset: 0x3FED2, size: 0x8, addend: 0x0, symName: __ZNKSt3__16vectorI9fileEntryNS_9allocatorIS1_EEE9__end_capB8ue170006Ev, symObjAddr: 0x10E98, symBinAddr: 0x1000145A0, symSize: 0x28 }
  - { offsetInCU: 0x3FEF8, offset: 0x3FEF8, size: 0x8, addend: 0x0, symName: __ZNKSt3__117__compressed_pairIP9fileEntryNS_9allocatorIS1_EEE5firstB8ue170006Ev, symObjAddr: 0x10EC0, symBinAddr: 0x1000145C8, symSize: 0x24 }
  - { offsetInCU: 0x3FF1E, offset: 0x3FF1E, size: 0x8, addend: 0x0, symName: __ZNKSt3__122__compressed_pair_elemIP9fileEntryLi0ELb0EE5__getB8ue170006Ev, symObjAddr: 0x10EE4, symBinAddr: 0x1000145EC, symSize: 0x14 }
  - { offsetInCU: 0x3FF4F, offset: 0x3FF4F, size: 0x8, addend: 0x0, symName: __ZNKSt3__16__lessIvvEclB8ue170006IiiEEbRKT_RKT0_, symObjAddr: 0x10F4C, symBinAddr: 0x100014654, symSize: 0x34 }
  - { offsetInCU: 0x3FFA3, offset: 0x3FFA3, size: 0x8, addend: 0x0, symName: __ZN9DiskblockC2Ev, symObjAddr: 0x10FD4, symBinAddr: 0x1000146DC, symSize: 0x2C }
  - { offsetInCU: 0x3FFCD, offset: 0x3FFCD, size: 0x8, addend: 0x0, symName: __ZN17IndirectDiskblockC2Ev, symObjAddr: 0x11000, symBinAddr: 0x100014708, symSize: 0x68 }
  - { offsetInCU: 0x3FFF9, offset: 0x3FFF9, size: 0x8, addend: 0x0, symName: __ZN16DiskblockManagerC2Ev, symObjAddr: 0x11068, symBinAddr: 0x100014770, symSize: 0x2C }
  - { offsetInCU: 0x40031, offset: 0x40031, size: 0x8, addend: 0x0, symName: __ZNSt3__112regex_traitsIcEaSEOS1_, symObjAddr: 0x11094, symBinAddr: 0x10001479C, symSize: 0x40 }
  - { offsetInCU: 0x40063, offset: 0x40063, size: 0x8, addend: 0x0, symName: __ZNSt3__110shared_ptrINS_13__empty_stateIcEEEaSB8ue170006EOS3_, symObjAddr: 0x110D4, symBinAddr: 0x1000147DC, symSize: 0x50 }
  - { offsetInCU: 0x40098, offset: 0x40098, size: 0x8, addend: 0x0, symName: __ZNSt3__110shared_ptrINS_13__empty_stateIcEEEC1B8ue170006EOS3_, symObjAddr: 0x11124, symBinAddr: 0x10001482C, symSize: 0x34 }
  - { offsetInCU: 0x400D1, offset: 0x400D1, size: 0x8, addend: 0x0, symName: __ZNSt3__110shared_ptrINS_13__empty_stateIcEEE4swapB8ue170006ERS3_, symObjAddr: 0x11158, symBinAddr: 0x100014860, symSize: 0x44 }
  - { offsetInCU: 0x40106, offset: 0x40106, size: 0x8, addend: 0x0, symName: __ZNSt3__110shared_ptrINS_13__empty_stateIcEEED1B8ue170006Ev, symObjAddr: 0x1119C, symBinAddr: 0x1000148A4, symSize: 0x2C }
  - { offsetInCU: 0x40130, offset: 0x40130, size: 0x8, addend: 0x0, symName: __ZNSt3__110shared_ptrINS_13__empty_stateIcEEEC2B8ue170006EOS3_, symObjAddr: 0x111C8, symBinAddr: 0x1000148D0, symSize: 0x40 }
  - { offsetInCU: 0x40169, offset: 0x40169, size: 0x8, addend: 0x0, symName: __ZNSt3__110shared_ptrINS_13__empty_stateIcEEED2B8ue170006Ev, symObjAddr: 0x11280, symBinAddr: 0x100014988, symSize: 0x54 }
  - { offsetInCU: 0x40193, offset: 0x40193, size: 0x8, addend: 0x0, symName: __ZNSt3__119__shared_weak_count16__release_sharedB8ue170006Ev, symObjAddr: 0x112D4, symBinAddr: 0x1000149DC, symSize: 0x3C }
  - { offsetInCU: 0x401B9, offset: 0x401B9, size: 0x8, addend: 0x0, symName: __ZNSt3__114__shared_count16__release_sharedB8ue170006Ev, symObjAddr: 0x11310, symBinAddr: 0x100014A18, symSize: 0x7C }
  - { offsetInCU: 0x401DF, offset: 0x401DF, size: 0x8, addend: 0x0, symName: __ZNSt3__111basic_regexIcNS_12regex_traitsIcEEED2Ev, symObjAddr: 0x113BC, symBinAddr: 0x100014AC4, symSize: 0x38 }
  - { offsetInCU: 0x4020C, offset: 0x4020C, size: 0x8, addend: 0x0, symName: __ZNSt3__112regex_traitsIcED1Ev, symObjAddr: 0x113F4, symBinAddr: 0x100014AFC, symSize: 0x2C }
  - { offsetInCU: 0x40239, offset: 0x40239, size: 0x8, addend: 0x0, symName: __ZNSt3__112regex_traitsIcED2Ev, symObjAddr: 0x11420, symBinAddr: 0x100014B28, symSize: 0x2C }
  - { offsetInCU: 0x40266, offset: 0x40266, size: 0x8, addend: 0x0, symName: __ZN9DirectoryC2Ev, symObjAddr: 0x1144C, symBinAddr: 0x100014B54, symSize: 0x2C }
  - { offsetInCU: 0x40293, offset: 0x40293, size: 0x8, addend: 0x0, symName: __ZNSt3__16vectorI9fileEntryNS_9allocatorIS1_EEEC1B8ue170006Ev, symObjAddr: 0x11478, symBinAddr: 0x100014B80, symSize: 0x2C }
  - { offsetInCU: 0x402BD, offset: 0x402BD, size: 0x8, addend: 0x0, symName: __ZNSt3__16vectorI9fileEntryNS_9allocatorIS1_EEEC2B8ue170006Ev, symObjAddr: 0x114A4, symBinAddr: 0x100014BAC, symSize: 0x4C }
  - { offsetInCU: 0x402F3, offset: 0x402F3, size: 0x8, addend: 0x0, symName: __ZNSt3__117__compressed_pairIP9fileEntryNS_9allocatorIS1_EEEC1B8ue170006IDnNS_18__default_init_tagEEEOT_OT0_, symObjAddr: 0x114F0, symBinAddr: 0x100014BF8, symSize: 0x3C }
  - { offsetInCU: 0x4034B, offset: 0x4034B, size: 0x8, addend: 0x0, symName: __ZNSt3__117__compressed_pairIP9fileEntryNS_9allocatorIS1_EEEC2B8ue170006IDnNS_18__default_init_tagEEEOT_OT0_, symObjAddr: 0x1152C, symBinAddr: 0x100014C34, symSize: 0x40 }
  - { offsetInCU: 0x403A3, offset: 0x403A3, size: 0x8, addend: 0x0, symName: __ZNSt3__122__compressed_pair_elemIP9fileEntryLi0ELb0EEC2B8ue170006IDnvEEOT_, symObjAddr: 0x1156C, symBinAddr: 0x100014C74, symSize: 0x1C }
  - { offsetInCU: 0x403E5, offset: 0x403E5, size: 0x8, addend: 0x0, symName: __ZNSt3__122__compressed_pair_elemINS_9allocatorI9fileEntryEELi1ELb1EEC2B8ue170006ENS_18__default_init_tagE, symObjAddr: 0x11588, symBinAddr: 0x100014C90, symSize: 0x2C }
  - { offsetInCU: 0x40419, offset: 0x40419, size: 0x8, addend: 0x0, symName: __ZNSt3__19allocatorI9fileEntryEC2B8ue170006Ev, symObjAddr: 0x115B4, symBinAddr: 0x100014CBC, symSize: 0x2C }
  - { offsetInCU: 0x40443, offset: 0x40443, size: 0x8, addend: 0x0, symName: __ZNSt3__116__non_trivial_ifILb1ENS_9allocatorI9fileEntryEEEC2B8ue170006Ev, symObjAddr: 0x115E0, symBinAddr: 0x100014CE8, symSize: 0x14 }
  - { offsetInCU: 0x4046D, offset: 0x4046D, size: 0x8, addend: 0x0, symName: __ZN7AddressC2Ei, symObjAddr: 0x115F4, symBinAddr: 0x100014CFC, symSize: 0x34 }
  - { offsetInCU: 0x404A5, offset: 0x404A5, size: 0x8, addend: 0x0, symName: __ZN9DirectoryC2ERKS_, symObjAddr: 0x11628, symBinAddr: 0x100014D30, symSize: 0x34 }
  - { offsetInCU: 0x404DB, offset: 0x404DB, size: 0x8, addend: 0x0, symName: __ZNSt3__16vectorI9fileEntryNS_9allocatorIS1_EEEC1ERKS4_, symObjAddr: 0x1165C, symBinAddr: 0x100014D64, symSize: 0x34 }
  - { offsetInCU: 0x40516, offset: 0x40516, size: 0x8, addend: 0x0, symName: __ZNSt3__16vectorI9fileEntryNS_9allocatorIS1_EEEC2ERKS4_, symObjAddr: 0x11690, symBinAddr: 0x100014D98, symSize: 0x94 }
  - { offsetInCU: 0x4055C, offset: 0x4055C, size: 0x8, addend: 0x0, symName: __ZNSt3__116allocator_traitsINS_9allocatorI9fileEntryEEE37select_on_container_copy_constructionB8ue170006IS3_vvEES3_RKS3_, symObjAddr: 0x11724, symBinAddr: 0x100014E2C, symSize: 0x10 }
  - { offsetInCU: 0x4058B, offset: 0x4058B, size: 0x8, addend: 0x0, symName: __ZNKSt3__16vectorI9fileEntryNS_9allocatorIS1_EEE7__allocB8ue170006Ev, symObjAddr: 0x11734, symBinAddr: 0x100014E3C, symSize: 0x28 }
  - { offsetInCU: 0x405B7, offset: 0x405B7, size: 0x8, addend: 0x0, symName: __ZNSt3__117__compressed_pairIP9fileEntryNS_9allocatorIS1_EEEC1B8ue170006IDnS4_EEOT_OT0_, symObjAddr: 0x1175C, symBinAddr: 0x100014E64, symSize: 0x3C }
  - { offsetInCU: 0x4060F, offset: 0x4060F, size: 0x8, addend: 0x0, symName: __ZNSt3__16vectorI9fileEntryNS_9allocatorIS1_EEE16__init_with_sizeB8ue170006IPS1_S6_EEvT_T0_m, symObjAddr: 0x11798, symBinAddr: 0x100014EA0, symSize: 0xB8 }
  - { offsetInCU: 0x40683, offset: 0x40683, size: 0x8, addend: 0x0, symName: __ZNKSt3__117__compressed_pairIP9fileEntryNS_9allocatorIS1_EEE6secondB8ue170006Ev, symObjAddr: 0x11850, symBinAddr: 0x100014F58, symSize: 0x24 }
  - { offsetInCU: 0x406A9, offset: 0x406A9, size: 0x8, addend: 0x0, symName: __ZNKSt3__122__compressed_pair_elemINS_9allocatorI9fileEntryEELi1ELb1EE5__getB8ue170006Ev, symObjAddr: 0x11874, symBinAddr: 0x100014F7C, symSize: 0x14 }
  - { offsetInCU: 0x406CF, offset: 0x406CF, size: 0x8, addend: 0x0, symName: __ZNSt3__117__compressed_pairIP9fileEntryNS_9allocatorIS1_EEEC2B8ue170006IDnS4_EEOT_OT0_, symObjAddr: 0x11888, symBinAddr: 0x100014F90, symSize: 0x44 }
  - { offsetInCU: 0x40727, offset: 0x40727, size: 0x8, addend: 0x0, symName: __ZNSt3__122__compressed_pair_elemINS_9allocatorI9fileEntryEELi1ELb1EEC2B8ue170006IS3_vEEOT_, symObjAddr: 0x118CC, symBinAddr: 0x100014FD4, symSize: 0x18 }
  - { offsetInCU: 0x40769, offset: 0x40769, size: 0x8, addend: 0x0, symName: __ZNSt3__16vectorI9fileEntryNS_9allocatorIS1_EEE11__vallocateB8ue170006Em, symObjAddr: 0x11924, symBinAddr: 0x10001502C, symSize: 0xAC }
  - { offsetInCU: 0x407AD, offset: 0x407AD, size: 0x8, addend: 0x0, symName: __ZNSt3__16vectorI9fileEntryNS_9allocatorIS1_EEE18__construct_at_endIPS1_S6_EEvT_T0_m, symObjAddr: 0x119D0, symBinAddr: 0x1000150D8, symSize: 0x8C }
  - { offsetInCU: 0x40823, offset: 0x40823, size: 0x8, addend: 0x0, symName: __ZNSt3__128__exception_guard_exceptionsINS_6vectorI9fileEntryNS_9allocatorIS2_EEE16__destroy_vectorEE10__completeB8ue170006Ev, symObjAddr: 0x11A5C, symBinAddr: 0x100015164, symSize: 0x1C }
  - { offsetInCU: 0x40849, offset: 0x40849, size: 0x8, addend: 0x0, symName: __ZNSt3__128__exception_guard_exceptionsINS_6vectorI9fileEntryNS_9allocatorIS2_EEE16__destroy_vectorEED1B8ue170006Ev, symObjAddr: 0x11A78, symBinAddr: 0x100015180, symSize: 0x2C }
  - { offsetInCU: 0x40873, offset: 0x40873, size: 0x8, addend: 0x0, symName: __ZNSt3__128__exception_guard_exceptionsINS_6vectorI9fileEntryNS_9allocatorIS2_EEE16__destroy_vectorEEC1B8ue170006ES6_, symObjAddr: 0x11AA4, symBinAddr: 0x1000151AC, symSize: 0x34 }
  - { offsetInCU: 0x408AB, offset: 0x408AB, size: 0x8, addend: 0x0, symName: __ZNSt3__128__exception_guard_exceptionsINS_6vectorI9fileEntryNS_9allocatorIS2_EEE16__destroy_vectorEEC2B8ue170006ES6_, symObjAddr: 0x11AD8, symBinAddr: 0x1000151E0, symSize: 0x24 }
  - { offsetInCU: 0x408E3, offset: 0x408E3, size: 0x8, addend: 0x0, symName: __ZNKSt3__16vectorI9fileEntryNS_9allocatorIS1_EEE8max_sizeEv, symObjAddr: 0x11AFC, symBinAddr: 0x100015204, symSize: 0x60 }
  - { offsetInCU: 0x4090B, offset: 0x4090B, size: 0x8, addend: 0x0, symName: __ZNKSt3__16vectorI9fileEntryNS_9allocatorIS1_EEE20__throw_length_errorB8ue170006Ev, symObjAddr: 0x11B5C, symBinAddr: 0x100015264, symSize: 0x1C }
  - { offsetInCU: 0x40931, offset: 0x40931, size: 0x8, addend: 0x0, symName: __ZNSt3__16vectorI9fileEntryNS_9allocatorIS1_EEE9__end_capB8ue170006Ev, symObjAddr: 0x11BB8, symBinAddr: 0x1000152C0, symSize: 0x28 }
  - { offsetInCU: 0x40957, offset: 0x40957, size: 0x8, addend: 0x0, symName: __ZNKSt3__16vectorI9fileEntryNS_9allocatorIS1_EEE14__annotate_newB8ue170006Em, symObjAddr: 0x11BE0, symBinAddr: 0x1000152E8, symSize: 0xAC }
  - { offsetInCU: 0x4098C, offset: 0x4098C, size: 0x8, addend: 0x0, symName: __ZNSt3__116allocator_traitsINS_9allocatorI9fileEntryEEE8max_sizeB8ue170006IS3_vEEmRKS3_, symObjAddr: 0x11CB8, symBinAddr: 0x1000153C0, symSize: 0x24 }
  - { offsetInCU: 0x409BA, offset: 0x409BA, size: 0x8, addend: 0x0, symName: __ZNSt3__114numeric_limitsIlE3maxB8ue170006Ev, symObjAddr: 0x11CDC, symBinAddr: 0x1000153E4, symSize: 0x14 }
  - { offsetInCU: 0x409CE, offset: 0x409CE, size: 0x8, addend: 0x0, symName: __ZNKSt3__16__lessIvvEclB8ue170006ImmEEbRKT_RKT0_, symObjAddr: 0x11D44, symBinAddr: 0x10001544C, symSize: 0x34 }
  - { offsetInCU: 0x40A22, offset: 0x40A22, size: 0x8, addend: 0x0, symName: __ZNKSt3__19allocatorI9fileEntryE8max_sizeB8ue170006Ev, symObjAddr: 0x11D78, symBinAddr: 0x100015480, symSize: 0x14 }
  - { offsetInCU: 0x40A48, offset: 0x40A48, size: 0x8, addend: 0x0, symName: __ZNSt3__123__libcpp_numeric_limitsIlLb1EE3maxB8ue170006Ev, symObjAddr: 0x11D8C, symBinAddr: 0x100015494, symSize: 0x8 }
  - { offsetInCU: 0x40A5C, offset: 0x40A5C, size: 0x8, addend: 0x0, symName: __ZNSt12length_errorC1B8ue170006EPKc, symObjAddr: 0x11DF8, symBinAddr: 0x100015500, symSize: 0x34 }
  - { offsetInCU: 0x40A94, offset: 0x40A94, size: 0x8, addend: 0x0, symName: __ZNSt12length_errorC2B8ue170006EPKc, symObjAddr: 0x11E2C, symBinAddr: 0x100015534, symSize: 0x4C }
  - { offsetInCU: 0x40ACC, offset: 0x40ACC, size: 0x8, addend: 0x0, symName: __ZNSt3__19allocatorI9fileEntryE8allocateB8ue170006Em, symObjAddr: 0x11E78, symBinAddr: 0x100015580, symSize: 0x58 }
  - { offsetInCU: 0x40B00, offset: 0x40B00, size: 0x8, addend: 0x0, symName: __ZNSt3__117__compressed_pairIP9fileEntryNS_9allocatorIS1_EEE5firstB8ue170006Ev, symObjAddr: 0x11F50, symBinAddr: 0x100015658, symSize: 0x24 }
  - { offsetInCU: 0x40B26, offset: 0x40B26, size: 0x8, addend: 0x0, symName: __ZNSt3__122__compressed_pair_elemIP9fileEntryLi0ELb0EE5__getB8ue170006Ev, symObjAddr: 0x11F74, symBinAddr: 0x10001567C, symSize: 0x14 }
  - { offsetInCU: 0x40B68, offset: 0x40B68, size: 0x8, addend: 0x0, symName: __ZNSt3__16vectorI9fileEntryNS_9allocatorIS1_EEE21_ConstructTransactionC1B8ue170006ERS4_m, symObjAddr: 0x11F88, symBinAddr: 0x100015690, symSize: 0x3C }
  - { offsetInCU: 0x40BB0, offset: 0x40BB0, size: 0x8, addend: 0x0, symName: __ZNSt3__16vectorI9fileEntryNS_9allocatorIS1_EEE21_ConstructTransactionD1B8ue170006Ev, symObjAddr: 0x12044, symBinAddr: 0x10001574C, symSize: 0x2C }
  - { offsetInCU: 0x40BDA, offset: 0x40BDA, size: 0x8, addend: 0x0, symName: __ZNSt3__16vectorI9fileEntryNS_9allocatorIS1_EEE21_ConstructTransactionC2B8ue170006ERS4_m, symObjAddr: 0x12070, symBinAddr: 0x100015778, symSize: 0x44 }
  - { offsetInCU: 0x40C45, offset: 0x40C45, size: 0x8, addend: 0x0, symName: __ZNSt3__14pairIP9fileEntryS2_EC1B8ue170006IS2_S2_LPv0EEEOT_OT0_, symObjAddr: 0x122A0, symBinAddr: 0x1000159A8, symSize: 0x3C }
  - { offsetInCU: 0x40CA3, offset: 0x40CA3, size: 0x8, addend: 0x0, symName: __ZNSt3__14pairIP9fileEntryS2_EC2B8ue170006IS2_S2_LPv0EEEOT_OT0_, symObjAddr: 0x122DC, symBinAddr: 0x1000159E4, symSize: 0x34 }
  - { offsetInCU: 0x40D01, offset: 0x40D01, size: 0x8, addend: 0x0, symName: __ZNSt3__129_AllocatorDestroyRangeReverseINS_9allocatorI9fileEntryEEPS2_EC1B8ue170006ERS3_RS4_S7_, symObjAddr: 0x1235C, symBinAddr: 0x100015A64, symSize: 0x44 }
  - { offsetInCU: 0x40D58, offset: 0x40D58, size: 0x8, addend: 0x0, symName: __ZNSt3__116allocator_traitsINS_9allocatorI9fileEntryEEE9constructB8ue170006IS2_JRS2_EvEEvRS3_PT_DpOT0_, symObjAddr: 0x123A0, symBinAddr: 0x100015AA8, symSize: 0x34 }
  - { offsetInCU: 0x40DAF, offset: 0x40DAF, size: 0x8, addend: 0x0, symName: __ZNSt3__128__exception_guard_exceptionsINS_29_AllocatorDestroyRangeReverseINS_9allocatorI9fileEntryEEPS3_EEE10__completeB8ue170006Ev, symObjAddr: 0x123D4, symBinAddr: 0x100015ADC, symSize: 0x1C }
  - { offsetInCU: 0x40DD5, offset: 0x40DD5, size: 0x8, addend: 0x0, symName: __ZNSt3__128__exception_guard_exceptionsINS_29_AllocatorDestroyRangeReverseINS_9allocatorI9fileEntryEEPS3_EEED1B8ue170006Ev, symObjAddr: 0x123F0, symBinAddr: 0x100015AF8, symSize: 0x2C }
  - { offsetInCU: 0x40DFF, offset: 0x40DFF, size: 0x8, addend: 0x0, symName: __ZNSt3__128__exception_guard_exceptionsINS_29_AllocatorDestroyRangeReverseINS_9allocatorI9fileEntryEEPS3_EEEC1B8ue170006ES6_, symObjAddr: 0x1241C, symBinAddr: 0x100015B24, symSize: 0x34 }
  - { offsetInCU: 0x40E38, offset: 0x40E38, size: 0x8, addend: 0x0, symName: __ZNSt3__128__exception_guard_exceptionsINS_29_AllocatorDestroyRangeReverseINS_9allocatorI9fileEntryEEPS3_EEEC2B8ue170006ES6_, symObjAddr: 0x12450, symBinAddr: 0x100015B58, symSize: 0x30 }
  - { offsetInCU: 0x40E71, offset: 0x40E71, size: 0x8, addend: 0x0, symName: __ZNSt3__129_AllocatorDestroyRangeReverseINS_9allocatorI9fileEntryEEPS2_EC2B8ue170006ERS3_RS4_S7_, symObjAddr: 0x12480, symBinAddr: 0x100015B88, symSize: 0x38 }
  - { offsetInCU: 0x40EC8, offset: 0x40EC8, size: 0x8, addend: 0x0, symName: __ZNSt3__19allocatorI9fileEntryE9constructB8ue170006IS1_JRS1_EEEvPT_DpOT0_, symObjAddr: 0x124B8, symBinAddr: 0x100015BC0, symSize: 0x34 }
  - { offsetInCU: 0x40F1E, offset: 0x40F1E, size: 0x8, addend: 0x0, symName: __ZNSt3__128__exception_guard_exceptionsINS_29_AllocatorDestroyRangeReverseINS_9allocatorI9fileEntryEEPS3_EEED2B8ue170006Ev, symObjAddr: 0x124EC, symBinAddr: 0x100015BF4, symSize: 0x50 }
  - { offsetInCU: 0x40F48, offset: 0x40F48, size: 0x8, addend: 0x0, symName: __ZNKSt3__129_AllocatorDestroyRangeReverseINS_9allocatorI9fileEntryEEPS2_EclB8ue170006Ev, symObjAddr: 0x1253C, symBinAddr: 0x100015C44, symSize: 0x68 }
  - { offsetInCU: 0x40F6E, offset: 0x40F6E, size: 0x8, addend: 0x0, symName: __ZNSt3__116reverse_iteratorIP9fileEntryEC1B8ue170006ES2_, symObjAddr: 0x12614, symBinAddr: 0x100015D1C, symSize: 0x34 }
  - { offsetInCU: 0x40FA6, offset: 0x40FA6, size: 0x8, addend: 0x0, symName: __ZNSt3__116reverse_iteratorIP9fileEntryEppB8ue170006Ev, symObjAddr: 0x126B4, symBinAddr: 0x100015DBC, symSize: 0x20 }
  - { offsetInCU: 0x40FCC, offset: 0x40FCC, size: 0x8, addend: 0x0, symName: __ZNKSt3__116reverse_iteratorIP9fileEntryE4baseB8ue170006Ev, symObjAddr: 0x126D4, symBinAddr: 0x100015DDC, symSize: 0x18 }
  - { offsetInCU: 0x40FF8, offset: 0x40FF8, size: 0x8, addend: 0x0, symName: __ZNSt3__119__to_address_helperINS_16reverse_iteratorIP9fileEntryEEvE6__callB8ue170006ERKS4_, symObjAddr: 0x126EC, symBinAddr: 0x100015DF4, symSize: 0x38 }
  - { offsetInCU: 0x4101B, offset: 0x4101B, size: 0x8, addend: 0x0, symName: __ZNKSt3__116reverse_iteratorIP9fileEntryEptB8ue170006Ev, symObjAddr: 0x12724, symBinAddr: 0x100015E2C, symSize: 0x24 }
  - { offsetInCU: 0x41041, offset: 0x41041, size: 0x8, addend: 0x0, symName: __ZNKSt3__116reverse_iteratorIP9fileEntryEdeB8ue170006Ev, symObjAddr: 0x12748, symBinAddr: 0x100015E50, symSize: 0x28 }
  - { offsetInCU: 0x41075, offset: 0x41075, size: 0x8, addend: 0x0, symName: __ZNSt3__116reverse_iteratorIP9fileEntryEC2B8ue170006ES2_, symObjAddr: 0x12770, symBinAddr: 0x100015E78, symSize: 0x28 }
  - { offsetInCU: 0x410AD, offset: 0x410AD, size: 0x8, addend: 0x0, symName: __ZNSt3__118__unwrap_iter_implIP9fileEntryLb1EE8__unwrapB8ue170006ES2_, symObjAddr: 0x12798, symBinAddr: 0x100015EA0, symSize: 0x24 }
  - { offsetInCU: 0x410D0, offset: 0x410D0, size: 0x8, addend: 0x0, symName: __ZNSt3__118__unwrap_iter_implIP9fileEntryLb1EE8__rewrapB8ue170006ES2_S2_, symObjAddr: 0x127BC, symBinAddr: 0x100015EC4, symSize: 0x50 }
  - { offsetInCU: 0x41101, offset: 0x41101, size: 0x8, addend: 0x0, symName: __ZNSt3__16vectorI9fileEntryNS_9allocatorIS1_EEE21_ConstructTransactionD2B8ue170006Ev, symObjAddr: 0x1280C, symBinAddr: 0x100015F14, symSize: 0x20 }
  - { offsetInCU: 0x4112B, offset: 0x4112B, size: 0x8, addend: 0x0, symName: __ZNSt3__128__exception_guard_exceptionsINS_6vectorI9fileEntryNS_9allocatorIS2_EEE16__destroy_vectorEED2B8ue170006Ev, symObjAddr: 0x1282C, symBinAddr: 0x100015F34, symSize: 0x48 }
  - { offsetInCU: 0x41155, offset: 0x41155, size: 0x8, addend: 0x0, symName: __ZN7AddressC2Ev, symObjAddr: 0x12874, symBinAddr: 0x100015F7C, symSize: 0x1C }
  - { offsetInCU: 0x4117F, offset: 0x4117F, size: 0x8, addend: 0x0, symName: __ZNSt3__15stackINS_12basic_stringIcNS_11char_traitsIcEENS_9allocatorIcEEEENS_5dequeIS6_NS4_IS6_EEEEED2Ev, symObjAddr: 0x12890, symBinAddr: 0x100015F98, symSize: 0x2C }
  - { offsetInCU: 0x411AB, offset: 0x411AB, size: 0x8, addend: 0x0, symName: __ZNSt3__15dequeINS_12basic_stringIcNS_11char_traitsIcEENS_9allocatorIcEEEENS4_IS6_EEED1B8ue170006Ev, symObjAddr: 0x128BC, symBinAddr: 0x100015FC4, symSize: 0x2C }
  - { offsetInCU: 0x411D5, offset: 0x411D5, size: 0x8, addend: 0x0, symName: __ZNSt3__15dequeINS_12basic_stringIcNS_11char_traitsIcEENS_9allocatorIcEEEENS4_IS6_EEED2B8ue170006Ev, symObjAddr: 0x128E8, symBinAddr: 0x100015FF0, symSize: 0xA4 }
  - { offsetInCU: 0x4122B, offset: 0x4122B, size: 0x8, addend: 0x0, symName: __ZNSt3__15dequeINS_12basic_stringIcNS_11char_traitsIcEENS_9allocatorIcEEEENS4_IS6_EEE5clearEv, symObjAddr: 0x1298C, symBinAddr: 0x100016094, symSize: 0x194 }
  - { offsetInCU: 0x41286, offset: 0x41286, size: 0x8, addend: 0x0, symName: __ZNKSt3__15dequeINS_12basic_stringIcNS_11char_traitsIcEENS_9allocatorIcEEEENS4_IS6_EEE17__annotate_deleteB8ue170006Ev, symObjAddr: 0x12B20, symBinAddr: 0x100016228, symSize: 0xEC }
  - { offsetInCU: 0x412C9, offset: 0x412C9, size: 0x8, addend: 0x0, symName: __ZNSt3__114__split_bufferIPNS_12basic_stringIcNS_11char_traitsIcEENS_9allocatorIcEEEENS4_IS7_EEE5beginB8ue170006Ev, symObjAddr: 0x12C0C, symBinAddr: 0x100016314, symSize: 0x18 }
  - { offsetInCU: 0x412EF, offset: 0x412EF, size: 0x8, addend: 0x0, symName: __ZNSt3__114__split_bufferIPNS_12basic_stringIcNS_11char_traitsIcEENS_9allocatorIcEEEENS4_IS7_EEE3endB8ue170006Ev, symObjAddr: 0x12C24, symBinAddr: 0x10001632C, symSize: 0x18 }
  - { offsetInCU: 0x41315, offset: 0x41315, size: 0x8, addend: 0x0, symName: __ZNSt3__116allocator_traitsINS_9allocatorINS_12basic_stringIcNS_11char_traitsIcEENS1_IcEEEEEEE10deallocateB8ue170006ERS7_PS6_m, symObjAddr: 0x12C3C, symBinAddr: 0x100016344, symSize: 0x34 }
  - { offsetInCU: 0x41357, offset: 0x41357, size: 0x8, addend: 0x0, symName: __ZNSt3__15dequeINS_12basic_stringIcNS_11char_traitsIcEENS_9allocatorIcEEEENS4_IS6_EEE7__allocB8ue170006Ev, symObjAddr: 0x12C70, symBinAddr: 0x100016378, symSize: 0x28 }
  - { offsetInCU: 0x4137D, offset: 0x4137D, size: 0x8, addend: 0x0, symName: __ZNSt3__114__split_bufferIPNS_12basic_stringIcNS_11char_traitsIcEENS_9allocatorIcEEEENS4_IS7_EEED1Ev, symObjAddr: 0x12C98, symBinAddr: 0x1000163A0, symSize: 0x2C }
  - { offsetInCU: 0x413A9, offset: 0x413A9, size: 0x8, addend: 0x0, symName: __ZNSt3__15dequeINS_12basic_stringIcNS_11char_traitsIcEENS_9allocatorIcEEEENS4_IS6_EEE5beginB8ue170006Ev, symObjAddr: 0x12CC4, symBinAddr: 0x1000163CC, symSize: 0xC0 }
  - { offsetInCU: 0x413DE, offset: 0x413DE, size: 0x8, addend: 0x0, symName: __ZNSt3__15dequeINS_12basic_stringIcNS_11char_traitsIcEENS_9allocatorIcEEEENS4_IS6_EEE3endB8ue170006Ev, symObjAddr: 0x12D84, symBinAddr: 0x10001648C, symSize: 0xC4 }
  - { offsetInCU: 0x41422, offset: 0x41422, size: 0x8, addend: 0x0, symName: __ZNSt3__116allocator_traitsINS_9allocatorINS_12basic_stringIcNS_11char_traitsIcEENS1_IcEEEEEEE7destroyB8ue170006IS6_vEEvRS7_PT_, symObjAddr: 0x12E7C, symBinAddr: 0x100016584, symSize: 0x2C }
  - { offsetInCU: 0x4145F, offset: 0x4145F, size: 0x8, addend: 0x0, symName: __ZNKSt3__116__deque_iteratorINS_12basic_stringIcNS_11char_traitsIcEENS_9allocatorIcEEEEPS6_RS6_PS7_lLl170EEdeB8ue170006Ev, symObjAddr: 0x12EA8, symBinAddr: 0x1000165B0, symSize: 0x18 }
  - { offsetInCU: 0x41485, offset: 0x41485, size: 0x8, addend: 0x0, symName: __ZNSt3__116__deque_iteratorINS_12basic_stringIcNS_11char_traitsIcEENS_9allocatorIcEEEEPS6_RS6_PS7_lLl170EEppB8ue170006Ev, symObjAddr: 0x12EC0, symBinAddr: 0x1000165C8, symSize: 0x70 }
  - { offsetInCU: 0x414AB, offset: 0x414AB, size: 0x8, addend: 0x0, symName: __ZNSt3__15dequeINS_12basic_stringIcNS_11char_traitsIcEENS_9allocatorIcEEEENS4_IS6_EEE6__sizeB8ue170006Ev, symObjAddr: 0x12F30, symBinAddr: 0x100016638, symSize: 0x28 }
  - { offsetInCU: 0x414D1, offset: 0x414D1, size: 0x8, addend: 0x0, symName: __ZNKSt3__114__split_bufferIPNS_12basic_stringIcNS_11char_traitsIcEENS_9allocatorIcEEEENS4_IS7_EEE4sizeB8ue170006Ev, symObjAddr: 0x12F58, symBinAddr: 0x100016660, symSize: 0x28 }
  - { offsetInCU: 0x414F7, offset: 0x414F7, size: 0x8, addend: 0x0, symName: __ZNSt3__114__split_bufferIPNS_12basic_stringIcNS_11char_traitsIcEENS_9allocatorIcEEEENS4_IS7_EEE5frontB8ue170006Ev, symObjAddr: 0x12F80, symBinAddr: 0x100016688, symSize: 0x18 }
  - { offsetInCU: 0x4151D, offset: 0x4151D, size: 0x8, addend: 0x0, symName: __ZNSt3__114__split_bufferIPNS_12basic_stringIcNS_11char_traitsIcEENS_9allocatorIcEEEENS4_IS7_EEE9pop_frontB8ue170006Ev, symObjAddr: 0x12F98, symBinAddr: 0x1000166A0, symSize: 0x2C }
  - { offsetInCU: 0x41543, offset: 0x41543, size: 0x8, addend: 0x0, symName: __ZNKSt3__15dequeINS_12basic_stringIcNS_11char_traitsIcEENS_9allocatorIcEEEENS4_IS6_EEE14__annotate_newB8ue170006Em, symObjAddr: 0x12FC4, symBinAddr: 0x1000166CC, symSize: 0xC0 }
  - { offsetInCU: 0x41578, offset: 0x41578, size: 0x8, addend: 0x0, symName: __ZNKSt3__114__split_bufferIPNS_12basic_stringIcNS_11char_traitsIcEENS_9allocatorIcEEEENS4_IS7_EEE5emptyB8ue170006Ev, symObjAddr: 0x13084, symBinAddr: 0x10001678C, symSize: 0x28 }
  - { offsetInCU: 0x4159E, offset: 0x4159E, size: 0x8, addend: 0x0, symName: __ZNSt3__116__deque_iteratorINS_12basic_stringIcNS_11char_traitsIcEENS_9allocatorIcEEEEPS6_RS6_PS7_lLl170EEC1B8ue170006ES9_S7_, symObjAddr: 0x130AC, symBinAddr: 0x1000167B4, symSize: 0x3C }
  - { offsetInCU: 0x415E6, offset: 0x415E6, size: 0x8, addend: 0x0, symName: __ZNSt3__116__deque_iteratorINS_12basic_stringIcNS_11char_traitsIcEENS_9allocatorIcEEEEPS6_RS6_PS7_lLl170EEC2B8ue170006ES9_S7_, symObjAddr: 0x130E8, symBinAddr: 0x1000167F0, symSize: 0x2C }
  - { offsetInCU: 0x4162E, offset: 0x4162E, size: 0x8, addend: 0x0, symName: __ZNKSt3__15dequeINS_12basic_stringIcNS_11char_traitsIcEENS_9allocatorIcEEEENS4_IS6_EEE4sizeB8ue170006Ev, symObjAddr: 0x13114, symBinAddr: 0x10001681C, symSize: 0x28 }
  - { offsetInCU: 0x41654, offset: 0x41654, size: 0x8, addend: 0x0, symName: __ZNKSt3__15dequeINS_12basic_stringIcNS_11char_traitsIcEENS_9allocatorIcEEEENS4_IS6_EEE6__sizeB8ue170006Ev, symObjAddr: 0x1313C, symBinAddr: 0x100016844, symSize: 0x28 }
  - { offsetInCU: 0x4167A, offset: 0x4167A, size: 0x8, addend: 0x0, symName: __ZNKSt3__117__compressed_pairImNS_9allocatorINS_12basic_stringIcNS_11char_traitsIcEENS1_IcEEEEEEE5firstB8ue170006Ev, symObjAddr: 0x13164, symBinAddr: 0x10001686C, symSize: 0x24 }
  - { offsetInCU: 0x416A0, offset: 0x416A0, size: 0x8, addend: 0x0, symName: __ZNKSt3__122__compressed_pair_elemImLi0ELb0EE5__getB8ue170006Ev, symObjAddr: 0x13188, symBinAddr: 0x100016890, symSize: 0x14 }
  - { offsetInCU: 0x416C6, offset: 0x416C6, size: 0x8, addend: 0x0, symName: __ZNSt3__19allocatorINS_12basic_stringIcNS_11char_traitsIcEENS0_IcEEEEE7destroyB8ue170006EPS5_, symObjAddr: 0x131CC, symBinAddr: 0x1000168D4, symSize: 0x28 }
  - { offsetInCU: 0x416FA, offset: 0x416FA, size: 0x8, addend: 0x0, symName: __ZNSt3__117__compressed_pairImNS_9allocatorINS_12basic_stringIcNS_11char_traitsIcEENS1_IcEEEEEEE5firstB8ue170006Ev, symObjAddr: 0x131F4, symBinAddr: 0x1000168FC, symSize: 0x24 }
  - { offsetInCU: 0x41720, offset: 0x41720, size: 0x8, addend: 0x0, symName: __ZNSt3__122__compressed_pair_elemImLi0ELb0EE5__getB8ue170006Ev, symObjAddr: 0x13218, symBinAddr: 0x100016920, symSize: 0x14 }
  - { offsetInCU: 0x41746, offset: 0x41746, size: 0x8, addend: 0x0, symName: __ZNSt3__114__split_bufferIPNS_12basic_stringIcNS_11char_traitsIcEENS_9allocatorIcEEEENS4_IS7_EEE19__destruct_at_beginB8ue170006EPS7_, symObjAddr: 0x1322C, symBinAddr: 0x100016934, symSize: 0x2C }
  - { offsetInCU: 0x4177A, offset: 0x4177A, size: 0x8, addend: 0x0, symName: __ZNSt3__114__split_bufferIPNS_12basic_stringIcNS_11char_traitsIcEENS_9allocatorIcEEEENS4_IS7_EEE19__destruct_at_beginEPS7_NS_17integral_constantIbLb1EEE, symObjAddr: 0x13258, symBinAddr: 0x100016960, symSize: 0x20 }
  - { offsetInCU: 0x417BA, offset: 0x417BA, size: 0x8, addend: 0x0, symName: __ZNKSt3__15dequeINS_12basic_stringIcNS_11char_traitsIcEENS_9allocatorIcEEEENS4_IS6_EEE18__annotate_from_toB8ue170006EmmNS8_22__asan_annotation_typeENS8_23__asan_annotation_placeE, symObjAddr: 0x13278, symBinAddr: 0x100016980, symSize: 0x598 }
  - { offsetInCU: 0x41976, offset: 0x41976, size: 0x8, addend: 0x0, symName: __ZNKSt3__114__split_bufferIPNS_12basic_stringIcNS_11char_traitsIcEENS_9allocatorIcEEEENS4_IS7_EEE5beginB8ue170006Ev, symObjAddr: 0x13810, symBinAddr: 0x100016F18, symSize: 0x18 }
  - { offsetInCU: 0x4199C, offset: 0x4199C, size: 0x8, addend: 0x0, symName: __ZNKSt3__15dequeINS_12basic_stringIcNS_11char_traitsIcEENS_9allocatorIcEEEENS4_IS6_EEE5emptyB8ue170006Ev, symObjAddr: 0x13828, symBinAddr: 0x100016F30, symSize: 0x30 }
  - { offsetInCU: 0x419C2, offset: 0x419C2, size: 0x8, addend: 0x0, symName: __ZNKSt3__15dequeINS_12basic_stringIcNS_11char_traitsIcEENS_9allocatorIcEEEENS4_IS6_EEE44__annotate_double_ended_contiguous_containerB8ue170006EPKvSA_SA_SA_SA_SA_, symObjAddr: 0x1386C, symBinAddr: 0x100016F74, symSize: 0x28 }
  - { offsetInCU: 0x41A30, offset: 0x41A30, size: 0x8, addend: 0x0, symName: __ZNKSt3__15dequeINS_12basic_stringIcNS_11char_traitsIcEENS_9allocatorIcEEEENS4_IS6_EEE22__annotate_whole_blockB8ue170006EmNS8_22__asan_annotation_typeE, symObjAddr: 0x13894, symBinAddr: 0x100016F9C, symSize: 0xAC }
  - { offsetInCU: 0x41AA1, offset: 0x41AA1, size: 0x8, addend: 0x0, symName: __ZNKSt3__15dequeINS_12basic_stringIcNS_11char_traitsIcEENS_9allocatorIcEEEENS4_IS6_EEE23__annotate_poison_blockB8ue170006EPKvSA_, symObjAddr: 0x13940, symBinAddr: 0x100017048, symSize: 0x44 }
  - { offsetInCU: 0x41AE5, offset: 0x41AE5, size: 0x8, addend: 0x0, symName: __ZNSt3__19allocatorINS_12basic_stringIcNS_11char_traitsIcEENS0_IcEEEEE10deallocateB8ue170006EPS5_m, symObjAddr: 0x13984, symBinAddr: 0x10001708C, symSize: 0x44 }
  - { offsetInCU: 0x41B27, offset: 0x41B27, size: 0x8, addend: 0x0, symName: __ZNSt3__117__compressed_pairImNS_9allocatorINS_12basic_stringIcNS_11char_traitsIcEENS1_IcEEEEEEE6secondB8ue170006Ev, symObjAddr: 0x139C8, symBinAddr: 0x1000170D0, symSize: 0x24 }
  - { offsetInCU: 0x41B4D, offset: 0x41B4D, size: 0x8, addend: 0x0, symName: __ZNSt3__122__compressed_pair_elemINS_9allocatorINS_12basic_stringIcNS_11char_traitsIcEENS1_IcEEEEEELi1ELb1EE5__getB8ue170006Ev, symObjAddr: 0x139EC, symBinAddr: 0x1000170F4, symSize: 0x14 }
  - { offsetInCU: 0x41B73, offset: 0x41B73, size: 0x8, addend: 0x0, symName: __ZNSt3__114__split_bufferIPNS_12basic_stringIcNS_11char_traitsIcEENS_9allocatorIcEEEENS4_IS7_EEED2Ev, symObjAddr: 0x13A00, symBinAddr: 0x100017108, symSize: 0x8C }
  - { offsetInCU: 0x41B9F, offset: 0x41B9F, size: 0x8, addend: 0x0, symName: __ZNSt3__114__split_bufferIPNS_12basic_stringIcNS_11char_traitsIcEENS_9allocatorIcEEEENS4_IS7_EEE5clearB8ue170006Ev, symObjAddr: 0x13A8C, symBinAddr: 0x100017194, symSize: 0x28 }
  - { offsetInCU: 0x41BC5, offset: 0x41BC5, size: 0x8, addend: 0x0, symName: __ZNSt3__116allocator_traitsINS_9allocatorIPNS_12basic_stringIcNS_11char_traitsIcEENS1_IcEEEEEEE10deallocateB8ue170006ERS8_PS7_m, symObjAddr: 0x13AB4, symBinAddr: 0x1000171BC, symSize: 0x34 }
  - { offsetInCU: 0x41C07, offset: 0x41C07, size: 0x8, addend: 0x0, symName: __ZNSt3__114__split_bufferIPNS_12basic_stringIcNS_11char_traitsIcEENS_9allocatorIcEEEENS4_IS7_EEE7__allocB8ue170006Ev, symObjAddr: 0x13AE8, symBinAddr: 0x1000171F0, symSize: 0x28 }
  - { offsetInCU: 0x41C2D, offset: 0x41C2D, size: 0x8, addend: 0x0, symName: __ZNKSt3__114__split_bufferIPNS_12basic_stringIcNS_11char_traitsIcEENS_9allocatorIcEEEENS4_IS7_EEE8capacityB8ue170006Ev, symObjAddr: 0x13B10, symBinAddr: 0x100017218, symSize: 0x40 }
  - { offsetInCU: 0x41C53, offset: 0x41C53, size: 0x8, addend: 0x0, symName: __ZNSt3__114__split_bufferIPNS_12basic_stringIcNS_11char_traitsIcEENS_9allocatorIcEEEENS4_IS7_EEE17__destruct_at_endB8ue170006EPS7_, symObjAddr: 0x13B50, symBinAddr: 0x100017258, symSize: 0x2C }
  - { offsetInCU: 0x41C87, offset: 0x41C87, size: 0x8, addend: 0x0, symName: __ZNSt3__114__split_bufferIPNS_12basic_stringIcNS_11char_traitsIcEENS_9allocatorIcEEEENS4_IS7_EEE17__destruct_at_endB8ue170006EPS7_NS_17integral_constantIbLb0EEE, symObjAddr: 0x13B7C, symBinAddr: 0x100017284, symSize: 0x80 }
  - { offsetInCU: 0x41CC7, offset: 0x41CC7, size: 0x8, addend: 0x0, symName: __ZNSt3__116allocator_traitsINS_9allocatorIPNS_12basic_stringIcNS_11char_traitsIcEENS1_IcEEEEEEE7destroyB8ue170006IS7_vEEvRS8_PT_, symObjAddr: 0x13BFC, symBinAddr: 0x100017304, symSize: 0x2C }
  - { offsetInCU: 0x41D04, offset: 0x41D04, size: 0x8, addend: 0x0, symName: __ZNSt3__19allocatorIPNS_12basic_stringIcNS_11char_traitsIcEENS0_IcEEEEE7destroyB8ue170006EPS6_, symObjAddr: 0x13C3C, symBinAddr: 0x100017344, symSize: 0x14 }
  - { offsetInCU: 0x41D38, offset: 0x41D38, size: 0x8, addend: 0x0, symName: __ZNSt3__19allocatorIPNS_12basic_stringIcNS_11char_traitsIcEENS0_IcEEEEE10deallocateB8ue170006EPS6_m, symObjAddr: 0x13C50, symBinAddr: 0x100017358, symSize: 0x40 }
  - { offsetInCU: 0x41D7A, offset: 0x41D7A, size: 0x8, addend: 0x0, symName: __ZNSt3__117__compressed_pairIPPNS_12basic_stringIcNS_11char_traitsIcEENS_9allocatorIcEEEENS4_IS7_EEE6secondB8ue170006Ev, symObjAddr: 0x13C90, symBinAddr: 0x100017398, symSize: 0x24 }
  - { offsetInCU: 0x41DA0, offset: 0x41DA0, size: 0x8, addend: 0x0, symName: __ZNSt3__122__compressed_pair_elemINS_9allocatorIPNS_12basic_stringIcNS_11char_traitsIcEENS1_IcEEEEEELi1ELb1EE5__getB8ue170006Ev, symObjAddr: 0x13CB4, symBinAddr: 0x1000173BC, symSize: 0x14 }
  - { offsetInCU: 0x41DC6, offset: 0x41DC6, size: 0x8, addend: 0x0, symName: __ZNKSt3__114__split_bufferIPNS_12basic_stringIcNS_11char_traitsIcEENS_9allocatorIcEEEENS4_IS7_EEE9__end_capB8ue170006Ev, symObjAddr: 0x13CC8, symBinAddr: 0x1000173D0, symSize: 0x28 }
  - { offsetInCU: 0x41DEC, offset: 0x41DEC, size: 0x8, addend: 0x0, symName: __ZNKSt3__117__compressed_pairIPPNS_12basic_stringIcNS_11char_traitsIcEENS_9allocatorIcEEEENS4_IS7_EEE5firstB8ue170006Ev, symObjAddr: 0x13CF0, symBinAddr: 0x1000173F8, symSize: 0x24 }
  - { offsetInCU: 0x41E12, offset: 0x41E12, size: 0x8, addend: 0x0, symName: __ZNKSt3__122__compressed_pair_elemIPPNS_12basic_stringIcNS_11char_traitsIcEENS_9allocatorIcEEEELi0ELb0EE5__getB8ue170006Ev, symObjAddr: 0x13D14, symBinAddr: 0x10001741C, symSize: 0x14 }
  - { offsetInCU: 0x41E38, offset: 0x41E38, size: 0x8, addend: 0x0, symName: __ZNSt3__120regex_token_iteratorINS_11__wrap_iterIPKcEEcNS_12regex_traitsIcEEED2Ev, symObjAddr: 0x13D28, symBinAddr: 0x100017430, symSize: 0x38 }
  - { offsetInCU: 0x41E65, offset: 0x41E65, size: 0x8, addend: 0x0, symName: __ZNSt3__16vectorIiNS_9allocatorIiEEED1B8ue170006Ev, symObjAddr: 0x13D60, symBinAddr: 0x100017468, symSize: 0x2C }
  - { offsetInCU: 0x41E95, offset: 0x41E95, size: 0x8, addend: 0x0, symName: __ZNSt3__114regex_iteratorINS_11__wrap_iterIPKcEEcNS_12regex_traitsIcEEED1Ev, symObjAddr: 0x13D8C, symBinAddr: 0x100017494, symSize: 0x2C }
  - { offsetInCU: 0x41EC2, offset: 0x41EC2, size: 0x8, addend: 0x0, symName: __ZNSt3__16vectorIiNS_9allocatorIiEEED2B8ue170006Ev, symObjAddr: 0x13DB8, symBinAddr: 0x1000174C0, symSize: 0x44 }
  - { offsetInCU: 0x41EEC, offset: 0x41EEC, size: 0x8, addend: 0x0, symName: __ZNSt3__16vectorIiNS_9allocatorIiEEE16__destroy_vectorC1B8ue170006ERS3_, symObjAddr: 0x13DFC, symBinAddr: 0x100017504, symSize: 0x34 }
  - { offsetInCU: 0x41F25, offset: 0x41F25, size: 0x8, addend: 0x0, symName: __ZNSt3__16vectorIiNS_9allocatorIiEEE16__destroy_vectorclB8ue170006Ev, symObjAddr: 0x13E30, symBinAddr: 0x100017538, symSize: 0x90 }
  - { offsetInCU: 0x41F4B, offset: 0x41F4B, size: 0x8, addend: 0x0, symName: __ZNSt3__16vectorIiNS_9allocatorIiEEE16__destroy_vectorC2B8ue170006ERS3_, symObjAddr: 0x13EC0, symBinAddr: 0x1000175C8, symSize: 0x20 }
  - { offsetInCU: 0x41F84, offset: 0x41F84, size: 0x8, addend: 0x0, symName: __ZNSt3__16vectorIiNS_9allocatorIiEEE7__clearB8ue170006Ev, symObjAddr: 0x13EE0, symBinAddr: 0x1000175E8, symSize: 0x28 }
  - { offsetInCU: 0x41FAA, offset: 0x41FAA, size: 0x8, addend: 0x0, symName: __ZNKSt3__16vectorIiNS_9allocatorIiEEE17__annotate_deleteB8ue170006Ev, symObjAddr: 0x13F08, symBinAddr: 0x100017610, symSize: 0xB8 }
  - { offsetInCU: 0x41FD0, offset: 0x41FD0, size: 0x8, addend: 0x0, symName: __ZNSt3__116allocator_traitsINS_9allocatorIiEEE10deallocateB8ue170006ERS2_Pim, symObjAddr: 0x13FC0, symBinAddr: 0x1000176C8, symSize: 0x34 }
  - { offsetInCU: 0x42012, offset: 0x42012, size: 0x8, addend: 0x0, symName: __ZNSt3__16vectorIiNS_9allocatorIiEEE7__allocB8ue170006Ev, symObjAddr: 0x13FF4, symBinAddr: 0x1000176FC, symSize: 0x28 }
  - { offsetInCU: 0x42038, offset: 0x42038, size: 0x8, addend: 0x0, symName: __ZNKSt3__16vectorIiNS_9allocatorIiEEE8capacityB8ue170006Ev, symObjAddr: 0x1401C, symBinAddr: 0x100017724, symSize: 0x40 }
  - { offsetInCU: 0x4205E, offset: 0x4205E, size: 0x8, addend: 0x0, symName: __ZNSt3__16vectorIiNS_9allocatorIiEEE22__base_destruct_at_endB8ue170006EPi, symObjAddr: 0x1405C, symBinAddr: 0x100017764, symSize: 0x8C }
  - { offsetInCU: 0x420A2, offset: 0x420A2, size: 0x8, addend: 0x0, symName: __ZNSt3__116allocator_traitsINS_9allocatorIiEEE7destroyB8ue170006IivEEvRS2_PT_, symObjAddr: 0x140E8, symBinAddr: 0x1000177F0, symSize: 0x2C }
  - { offsetInCU: 0x420DF, offset: 0x420DF, size: 0x8, addend: 0x0, symName: __ZNSt3__19allocatorIiE7destroyB8ue170006EPi, symObjAddr: 0x14128, symBinAddr: 0x100017830, symSize: 0x14 }
  - { offsetInCU: 0x42113, offset: 0x42113, size: 0x8, addend: 0x0, symName: __ZNKSt3__16vectorIiNS_9allocatorIiEEE31__annotate_contiguous_containerB8ue170006EPKvS5_S5_S5_, symObjAddr: 0x1413C, symBinAddr: 0x100017844, symSize: 0x20 }
  - { offsetInCU: 0x42169, offset: 0x42169, size: 0x8, addend: 0x0, symName: __ZNKSt3__16vectorIiNS_9allocatorIiEEE4dataB8ue170006Ev, symObjAddr: 0x1415C, symBinAddr: 0x100017864, symSize: 0x28 }
  - { offsetInCU: 0x4218F, offset: 0x4218F, size: 0x8, addend: 0x0, symName: __ZNKSt3__16vectorIiNS_9allocatorIiEEE4sizeB8ue170006Ev, symObjAddr: 0x14184, symBinAddr: 0x10001788C, symSize: 0x28 }
  - { offsetInCU: 0x421B5, offset: 0x421B5, size: 0x8, addend: 0x0, symName: __ZNSt3__19allocatorIiE10deallocateB8ue170006EPim, symObjAddr: 0x141AC, symBinAddr: 0x1000178B4, symSize: 0x40 }
  - { offsetInCU: 0x421F7, offset: 0x421F7, size: 0x8, addend: 0x0, symName: __ZNSt3__117__compressed_pairIPiNS_9allocatorIiEEE6secondB8ue170006Ev, symObjAddr: 0x141EC, symBinAddr: 0x1000178F4, symSize: 0x24 }
  - { offsetInCU: 0x4221D, offset: 0x4221D, size: 0x8, addend: 0x0, symName: __ZNSt3__122__compressed_pair_elemINS_9allocatorIiEELi1ELb1EE5__getB8ue170006Ev, symObjAddr: 0x14210, symBinAddr: 0x100017918, symSize: 0x14 }
  - { offsetInCU: 0x42243, offset: 0x42243, size: 0x8, addend: 0x0, symName: __ZNKSt3__16vectorIiNS_9allocatorIiEEE9__end_capB8ue170006Ev, symObjAddr: 0x14224, symBinAddr: 0x10001792C, symSize: 0x28 }
  - { offsetInCU: 0x42269, offset: 0x42269, size: 0x8, addend: 0x0, symName: __ZNKSt3__117__compressed_pairIPiNS_9allocatorIiEEE5firstB8ue170006Ev, symObjAddr: 0x1424C, symBinAddr: 0x100017954, symSize: 0x24 }
  - { offsetInCU: 0x4228F, offset: 0x4228F, size: 0x8, addend: 0x0, symName: __ZNKSt3__122__compressed_pair_elemIPiLi0ELb0EE5__getB8ue170006Ev, symObjAddr: 0x14270, symBinAddr: 0x100017978, symSize: 0x14 }
  - { offsetInCU: 0x422B5, offset: 0x422B5, size: 0x8, addend: 0x0, symName: __ZNSt3__114regex_iteratorINS_11__wrap_iterIPKcEEcNS_12regex_traitsIcEEED2Ev, symObjAddr: 0x14284, symBinAddr: 0x10001798C, symSize: 0x30 }
  - { offsetInCU: 0x422E8, offset: 0x422E8, size: 0x8, addend: 0x0, symName: __ZNSt3__113match_resultsINS_11__wrap_iterIPKcEENS_9allocatorINS_9sub_matchIS4_EEEEED1Ev, symObjAddr: 0x142B4, symBinAddr: 0x1000179BC, symSize: 0x2C }
  - { offsetInCU: 0x42315, offset: 0x42315, size: 0x8, addend: 0x0, symName: __ZNSt3__113match_resultsINS_11__wrap_iterIPKcEENS_9allocatorINS_9sub_matchIS4_EEEEED2Ev, symObjAddr: 0x142E0, symBinAddr: 0x1000179E8, symSize: 0x2C }
  - { offsetInCU: 0x42342, offset: 0x42342, size: 0x8, addend: 0x0, symName: __ZNSt3__16vectorINS_9sub_matchINS_11__wrap_iterIPKcEEEENS_9allocatorIS6_EEED1B8ue170006Ev, symObjAddr: 0x1430C, symBinAddr: 0x100017A14, symSize: 0x2C }
  - { offsetInCU: 0x4236C, offset: 0x4236C, size: 0x8, addend: 0x0, symName: __ZNSt3__16vectorINS_9sub_matchINS_11__wrap_iterIPKcEEEENS_9allocatorIS6_EEED2B8ue170006Ev, symObjAddr: 0x14338, symBinAddr: 0x100017A40, symSize: 0x44 }
  - { offsetInCU: 0x42396, offset: 0x42396, size: 0x8, addend: 0x0, symName: __ZNSt3__16vectorINS_9sub_matchINS_11__wrap_iterIPKcEEEENS_9allocatorIS6_EEE16__destroy_vectorC1B8ue170006ERS9_, symObjAddr: 0x1437C, symBinAddr: 0x100017A84, symSize: 0x34 }
  - { offsetInCU: 0x423CF, offset: 0x423CF, size: 0x8, addend: 0x0, symName: __ZNSt3__16vectorINS_9sub_matchINS_11__wrap_iterIPKcEEEENS_9allocatorIS6_EEE16__destroy_vectorclB8ue170006Ev, symObjAddr: 0x143B0, symBinAddr: 0x100017AB8, symSize: 0x90 }
  - { offsetInCU: 0x423F5, offset: 0x423F5, size: 0x8, addend: 0x0, symName: __ZNSt3__16vectorINS_9sub_matchINS_11__wrap_iterIPKcEEEENS_9allocatorIS6_EEE16__destroy_vectorC2B8ue170006ERS9_, symObjAddr: 0x14440, symBinAddr: 0x100017B48, symSize: 0x20 }
  - { offsetInCU: 0x4242E, offset: 0x4242E, size: 0x8, addend: 0x0, symName: __ZNSt3__16vectorINS_9sub_matchINS_11__wrap_iterIPKcEEEENS_9allocatorIS6_EEE7__clearB8ue170006Ev, symObjAddr: 0x14460, symBinAddr: 0x100017B68, symSize: 0x28 }
  - { offsetInCU: 0x42454, offset: 0x42454, size: 0x8, addend: 0x0, symName: __ZNKSt3__16vectorINS_9sub_matchINS_11__wrap_iterIPKcEEEENS_9allocatorIS6_EEE17__annotate_deleteB8ue170006Ev, symObjAddr: 0x14488, symBinAddr: 0x100017B90, symSize: 0xD4 }
  - { offsetInCU: 0x4247A, offset: 0x4247A, size: 0x8, addend: 0x0, symName: __ZNSt3__116allocator_traitsINS_9allocatorINS_9sub_matchINS_11__wrap_iterIPKcEEEEEEE10deallocateB8ue170006ERS8_PS7_m, symObjAddr: 0x1455C, symBinAddr: 0x100017C64, symSize: 0x34 }
  - { offsetInCU: 0x424BC, offset: 0x424BC, size: 0x8, addend: 0x0, symName: __ZNSt3__16vectorINS_9sub_matchINS_11__wrap_iterIPKcEEEENS_9allocatorIS6_EEE7__allocB8ue170006Ev, symObjAddr: 0x14590, symBinAddr: 0x100017C98, symSize: 0x28 }
  - { offsetInCU: 0x424E2, offset: 0x424E2, size: 0x8, addend: 0x0, symName: __ZNKSt3__16vectorINS_9sub_matchINS_11__wrap_iterIPKcEEEENS_9allocatorIS6_EEE8capacityB8ue170006Ev, symObjAddr: 0x145B8, symBinAddr: 0x100017CC0, symSize: 0x40 }
  - { offsetInCU: 0x42508, offset: 0x42508, size: 0x8, addend: 0x0, symName: __ZNSt3__16vectorINS_9sub_matchINS_11__wrap_iterIPKcEEEENS_9allocatorIS6_EEE22__base_destruct_at_endB8ue170006EPS6_, symObjAddr: 0x145F8, symBinAddr: 0x100017D00, symSize: 0x8C }
  - { offsetInCU: 0x4254C, offset: 0x4254C, size: 0x8, addend: 0x0, symName: __ZNSt3__116allocator_traitsINS_9allocatorINS_9sub_matchINS_11__wrap_iterIPKcEEEEEEE7destroyB8ue170006IS7_vEEvRS8_PT_, symObjAddr: 0x14684, symBinAddr: 0x100017D8C, symSize: 0x2C }
  - { offsetInCU: 0x42589, offset: 0x42589, size: 0x8, addend: 0x0, symName: __ZNSt3__19allocatorINS_9sub_matchINS_11__wrap_iterIPKcEEEEE7destroyB8ue170006EPS6_, symObjAddr: 0x146C4, symBinAddr: 0x100017DCC, symSize: 0x14 }
  - { offsetInCU: 0x425BD, offset: 0x425BD, size: 0x8, addend: 0x0, symName: __ZNKSt3__16vectorINS_9sub_matchINS_11__wrap_iterIPKcEEEENS_9allocatorIS6_EEE31__annotate_contiguous_containerB8ue170006EPKvSB_SB_SB_, symObjAddr: 0x146D8, symBinAddr: 0x100017DE0, symSize: 0x20 }
  - { offsetInCU: 0x42613, offset: 0x42613, size: 0x8, addend: 0x0, symName: __ZNKSt3__16vectorINS_9sub_matchINS_11__wrap_iterIPKcEEEENS_9allocatorIS6_EEE4dataB8ue170006Ev, symObjAddr: 0x146F8, symBinAddr: 0x100017E00, symSize: 0x28 }
  - { offsetInCU: 0x42639, offset: 0x42639, size: 0x8, addend: 0x0, symName: __ZNKSt3__16vectorINS_9sub_matchINS_11__wrap_iterIPKcEEEENS_9allocatorIS6_EEE4sizeB8ue170006Ev, symObjAddr: 0x14720, symBinAddr: 0x100017E28, symSize: 0x28 }
  - { offsetInCU: 0x4265F, offset: 0x4265F, size: 0x8, addend: 0x0, symName: __ZNSt3__19allocatorINS_9sub_matchINS_11__wrap_iterIPKcEEEEE10deallocateB8ue170006EPS6_m, symObjAddr: 0x14748, symBinAddr: 0x100017E50, symSize: 0x44 }
  - { offsetInCU: 0x426A1, offset: 0x426A1, size: 0x8, addend: 0x0, symName: __ZNSt3__117__compressed_pairIPNS_9sub_matchINS_11__wrap_iterIPKcEEEENS_9allocatorIS6_EEE6secondB8ue170006Ev, symObjAddr: 0x1478C, symBinAddr: 0x100017E94, symSize: 0x24 }
  - { offsetInCU: 0x426C7, offset: 0x426C7, size: 0x8, addend: 0x0, symName: __ZNSt3__122__compressed_pair_elemINS_9allocatorINS_9sub_matchINS_11__wrap_iterIPKcEEEEEELi1ELb1EE5__getB8ue170006Ev, symObjAddr: 0x147B0, symBinAddr: 0x100017EB8, symSize: 0x14 }
  - { offsetInCU: 0x426ED, offset: 0x426ED, size: 0x8, addend: 0x0, symName: __ZNKSt3__16vectorINS_9sub_matchINS_11__wrap_iterIPKcEEEENS_9allocatorIS6_EEE9__end_capB8ue170006Ev, symObjAddr: 0x147C4, symBinAddr: 0x100017ECC, symSize: 0x28 }
  - { offsetInCU: 0x42713, offset: 0x42713, size: 0x8, addend: 0x0, symName: __ZNKSt3__117__compressed_pairIPNS_9sub_matchINS_11__wrap_iterIPKcEEEENS_9allocatorIS6_EEE5firstB8ue170006Ev, symObjAddr: 0x147EC, symBinAddr: 0x100017EF4, symSize: 0x24 }
  - { offsetInCU: 0x42739, offset: 0x42739, size: 0x8, addend: 0x0, symName: __ZNKSt3__122__compressed_pair_elemIPNS_9sub_matchINS_11__wrap_iterIPKcEEEELi0ELb0EE5__getB8ue170006Ev, symObjAddr: 0x14810, symBinAddr: 0x100017F18, symSize: 0x14 }
  - { offsetInCU: 0x4275F, offset: 0x4275F, size: 0x8, addend: 0x0, symName: __ZNKSt3__111__wrap_iterIPNS_12basic_stringIcNS_11char_traitsIcEENS_9allocatorIcEEEEE4baseB8ue170006Ev, symObjAddr: 0x1486C, symBinAddr: 0x100017F74, symSize: 0x18 }
  - { offsetInCU: 0x42785, offset: 0x42785, size: 0x8, addend: 0x0, symName: __ZNSt3__111__wrap_iterIPKNS_12basic_stringIcNS_11char_traitsIcEENS_9allocatorIcEEEEEC2B8ue170006IPS6_EERKNS0_IT_EEPNS_9enable_ifIXsr14is_convertibleISC_S8_EE5valueEvE4typeE, symObjAddr: 0x14884, symBinAddr: 0x100017F8C, symSize: 0x40 }
  - { offsetInCU: 0x427D0, offset: 0x427D0, size: 0x8, addend: 0x0, symName: __ZNSt3__111__wrap_iterIPNS_12basic_stringIcNS_11char_traitsIcEENS_9allocatorIcEEEEEppB8ue170006Ev, symObjAddr: 0x148C4, symBinAddr: 0x100017FCC, symSize: 0x20 }
  - { offsetInCU: 0x427F6, offset: 0x427F6, size: 0x8, addend: 0x0, symName: __ZNSt3__111__wrap_iterIP9fileEntryEpLB8ue170006El, symObjAddr: 0x148E4, symBinAddr: 0x100017FEC, symSize: 0x28 }
  - { offsetInCU: 0x4282A, offset: 0x4282A, size: 0x8, addend: 0x0, symName: __ZNSt3__111__wrap_iterIPK9fileEntryEC2B8ue170006IPS1_EERKNS0_IT_EEPNS_9enable_ifIXsr14is_convertibleIS7_S3_EE5valueEvE4typeE, symObjAddr: 0x1490C, symBinAddr: 0x100018014, symSize: 0x40 }
  - { offsetInCU: 0x42875, offset: 0x42875, size: 0x8, addend: 0x0, symName: __ZNKSt3__111__wrap_iterIP9fileEntryE4baseB8ue170006Ev, symObjAddr: 0x1494C, symBinAddr: 0x100018054, symSize: 0x18 }
  - { offsetInCU: 0x4289B, offset: 0x4289B, size: 0x8, addend: 0x0, symName: __ZNSt3__15queueIiNS_5dequeIiNS_9allocatorIiEEEEED2Ev, symObjAddr: 0x14964, symBinAddr: 0x10001806C, symSize: 0x2C }
  - { offsetInCU: 0x428C8, offset: 0x428C8, size: 0x8, addend: 0x0, symName: __ZNSt3__15dequeIiNS_9allocatorIiEEED1B8ue170006Ev, symObjAddr: 0x14990, symBinAddr: 0x100018098, symSize: 0x2C }
  - { offsetInCU: 0x428F2, offset: 0x428F2, size: 0x8, addend: 0x0, symName: __ZNSt3__15dequeIiNS_9allocatorIiEEED2B8ue170006Ev, symObjAddr: 0x149BC, symBinAddr: 0x1000180C4, symSize: 0xA4 }
  - { offsetInCU: 0x42948, offset: 0x42948, size: 0x8, addend: 0x0, symName: __ZNSt3__15dequeIiNS_9allocatorIiEEE5clearEv, symObjAddr: 0x14A60, symBinAddr: 0x100018168, symSize: 0x194 }
  - { offsetInCU: 0x429A3, offset: 0x429A3, size: 0x8, addend: 0x0, symName: __ZNKSt3__15dequeIiNS_9allocatorIiEEE17__annotate_deleteB8ue170006Ev, symObjAddr: 0x14BF4, symBinAddr: 0x1000182FC, symSize: 0xE8 }
  - { offsetInCU: 0x429E6, offset: 0x429E6, size: 0x8, addend: 0x0, symName: __ZNSt3__114__split_bufferIPiNS_9allocatorIS1_EEE5beginB8ue170006Ev, symObjAddr: 0x14CDC, symBinAddr: 0x1000183E4, symSize: 0x18 }
  - { offsetInCU: 0x42A0C, offset: 0x42A0C, size: 0x8, addend: 0x0, symName: __ZNSt3__114__split_bufferIPiNS_9allocatorIS1_EEE3endB8ue170006Ev, symObjAddr: 0x14CF4, symBinAddr: 0x1000183FC, symSize: 0x18 }
  - { offsetInCU: 0x42A32, offset: 0x42A32, size: 0x8, addend: 0x0, symName: __ZNSt3__15dequeIiNS_9allocatorIiEEE7__allocB8ue170006Ev, symObjAddr: 0x14D0C, symBinAddr: 0x100018414, symSize: 0x28 }
  - { offsetInCU: 0x42A58, offset: 0x42A58, size: 0x8, addend: 0x0, symName: __ZNSt3__114__split_bufferIPiNS_9allocatorIS1_EEED1Ev, symObjAddr: 0x14D34, symBinAddr: 0x10001843C, symSize: 0x2C }
  - { offsetInCU: 0x42A84, offset: 0x42A84, size: 0x8, addend: 0x0, symName: __ZNSt3__15dequeIiNS_9allocatorIiEEE5beginB8ue170006Ev, symObjAddr: 0x14D60, symBinAddr: 0x100018468, symSize: 0xB8 }
  - { offsetInCU: 0x42AB9, offset: 0x42AB9, size: 0x8, addend: 0x0, symName: __ZNSt3__15dequeIiNS_9allocatorIiEEE3endB8ue170006Ev, symObjAddr: 0x14E18, symBinAddr: 0x100018520, symSize: 0xBC }
  - { offsetInCU: 0x42AFD, offset: 0x42AFD, size: 0x8, addend: 0x0, symName: __ZNKSt3__116__deque_iteratorIiPiRiPS1_lLl1024EEdeB8ue170006Ev, symObjAddr: 0x14F08, symBinAddr: 0x100018610, symSize: 0x18 }
  - { offsetInCU: 0x42B23, offset: 0x42B23, size: 0x8, addend: 0x0, symName: __ZNSt3__116__deque_iteratorIiPiRiPS1_lLl1024EEppB8ue170006Ev, symObjAddr: 0x14F20, symBinAddr: 0x100018628, symSize: 0x70 }
  - { offsetInCU: 0x42B49, offset: 0x42B49, size: 0x8, addend: 0x0, symName: __ZNSt3__15dequeIiNS_9allocatorIiEEE6__sizeB8ue170006Ev, symObjAddr: 0x14F90, symBinAddr: 0x100018698, symSize: 0x28 }
  - { offsetInCU: 0x42B6F, offset: 0x42B6F, size: 0x8, addend: 0x0, symName: __ZNKSt3__114__split_bufferIPiNS_9allocatorIS1_EEE4sizeB8ue170006Ev, symObjAddr: 0x14FB8, symBinAddr: 0x1000186C0, symSize: 0x28 }
  - { offsetInCU: 0x42B95, offset: 0x42B95, size: 0x8, addend: 0x0, symName: __ZNSt3__114__split_bufferIPiNS_9allocatorIS1_EEE5frontB8ue170006Ev, symObjAddr: 0x14FE0, symBinAddr: 0x1000186E8, symSize: 0x18 }
  - { offsetInCU: 0x42BBB, offset: 0x42BBB, size: 0x8, addend: 0x0, symName: __ZNSt3__114__split_bufferIPiNS_9allocatorIS1_EEE9pop_frontB8ue170006Ev, symObjAddr: 0x14FF8, symBinAddr: 0x100018700, symSize: 0x2C }
  - { offsetInCU: 0x42BE1, offset: 0x42BE1, size: 0x8, addend: 0x0, symName: __ZNKSt3__15dequeIiNS_9allocatorIiEEE14__annotate_newB8ue170006Em, symObjAddr: 0x15024, symBinAddr: 0x10001872C, symSize: 0xB8 }
  - { offsetInCU: 0x42C16, offset: 0x42C16, size: 0x8, addend: 0x0, symName: __ZNKSt3__114__split_bufferIPiNS_9allocatorIS1_EEE5emptyB8ue170006Ev, symObjAddr: 0x150DC, symBinAddr: 0x1000187E4, symSize: 0x28 }
  - { offsetInCU: 0x42C3C, offset: 0x42C3C, size: 0x8, addend: 0x0, symName: __ZNSt3__116__deque_iteratorIiPiRiPS1_lLl1024EEC1B8ue170006ES3_S1_, symObjAddr: 0x15104, symBinAddr: 0x10001880C, symSize: 0x3C }
  - { offsetInCU: 0x42C84, offset: 0x42C84, size: 0x8, addend: 0x0, symName: __ZNSt3__116__deque_iteratorIiPiRiPS1_lLl1024EEC2B8ue170006ES3_S1_, symObjAddr: 0x15140, symBinAddr: 0x100018848, symSize: 0x2C }
  - { offsetInCU: 0x42CCC, offset: 0x42CCC, size: 0x8, addend: 0x0, symName: __ZNKSt3__15dequeIiNS_9allocatorIiEEE4sizeB8ue170006Ev, symObjAddr: 0x1516C, symBinAddr: 0x100018874, symSize: 0x28 }
  - { offsetInCU: 0x42CF2, offset: 0x42CF2, size: 0x8, addend: 0x0, symName: __ZNKSt3__15dequeIiNS_9allocatorIiEEE6__sizeB8ue170006Ev, symObjAddr: 0x15194, symBinAddr: 0x10001889C, symSize: 0x28 }
  - { offsetInCU: 0x42D18, offset: 0x42D18, size: 0x8, addend: 0x0, symName: __ZNKSt3__117__compressed_pairImNS_9allocatorIiEEE5firstB8ue170006Ev, symObjAddr: 0x151BC, symBinAddr: 0x1000188C4, symSize: 0x24 }
  - { offsetInCU: 0x42D3E, offset: 0x42D3E, size: 0x8, addend: 0x0, symName: __ZNSt3__117__compressed_pairImNS_9allocatorIiEEE5firstB8ue170006Ev, symObjAddr: 0x15210, symBinAddr: 0x100018918, symSize: 0x24 }
  - { offsetInCU: 0x42D64, offset: 0x42D64, size: 0x8, addend: 0x0, symName: __ZNSt3__114__split_bufferIPiNS_9allocatorIS1_EEE19__destruct_at_beginB8ue170006EPS1_, symObjAddr: 0x15234, symBinAddr: 0x10001893C, symSize: 0x2C }
  - { offsetInCU: 0x42D98, offset: 0x42D98, size: 0x8, addend: 0x0, symName: __ZNSt3__114__split_bufferIPiNS_9allocatorIS1_EEE19__destruct_at_beginEPS1_NS_17integral_constantIbLb1EEE, symObjAddr: 0x15260, symBinAddr: 0x100018968, symSize: 0x20 }
  - { offsetInCU: 0x42DD8, offset: 0x42DD8, size: 0x8, addend: 0x0, symName: __ZNKSt3__15dequeIiNS_9allocatorIiEEE18__annotate_from_toB8ue170006EmmNS3_22__asan_annotation_typeENS3_23__asan_annotation_placeE, symObjAddr: 0x15280, symBinAddr: 0x100018988, symSize: 0x580 }
  - { offsetInCU: 0x42F94, offset: 0x42F94, size: 0x8, addend: 0x0, symName: __ZNKSt3__114__split_bufferIPiNS_9allocatorIS1_EEE5beginB8ue170006Ev, symObjAddr: 0x15800, symBinAddr: 0x100018F08, symSize: 0x18 }
  - { offsetInCU: 0x42FBA, offset: 0x42FBA, size: 0x8, addend: 0x0, symName: __ZNKSt3__15dequeIiNS_9allocatorIiEEE5emptyB8ue170006Ev, symObjAddr: 0x15818, symBinAddr: 0x100018F20, symSize: 0x30 }
  - { offsetInCU: 0x42FE0, offset: 0x42FE0, size: 0x8, addend: 0x0, symName: __ZNKSt3__15dequeIiNS_9allocatorIiEEE44__annotate_double_ended_contiguous_containerB8ue170006EPKvS5_S5_S5_S5_S5_, symObjAddr: 0x15848, symBinAddr: 0x100018F50, symSize: 0x28 }
  - { offsetInCU: 0x4304E, offset: 0x4304E, size: 0x8, addend: 0x0, symName: __ZNKSt3__15dequeIiNS_9allocatorIiEEE22__annotate_whole_blockB8ue170006EmNS3_22__asan_annotation_typeE, symObjAddr: 0x15870, symBinAddr: 0x100018F78, symSize: 0xAC }
  - { offsetInCU: 0x430BF, offset: 0x430BF, size: 0x8, addend: 0x0, symName: __ZNKSt3__15dequeIiNS_9allocatorIiEEE23__annotate_poison_blockB8ue170006EPKvS5_, symObjAddr: 0x1591C, symBinAddr: 0x100019024, symSize: 0x44 }
  - { offsetInCU: 0x43103, offset: 0x43103, size: 0x8, addend: 0x0, symName: __ZNSt3__117__compressed_pairImNS_9allocatorIiEEE6secondB8ue170006Ev, symObjAddr: 0x15960, symBinAddr: 0x100019068, symSize: 0x24 }
  - { offsetInCU: 0x43129, offset: 0x43129, size: 0x8, addend: 0x0, symName: __ZNSt3__114__split_bufferIPiNS_9allocatorIS1_EEED2Ev, symObjAddr: 0x15984, symBinAddr: 0x10001908C, symSize: 0x8C }
  - { offsetInCU: 0x43155, offset: 0x43155, size: 0x8, addend: 0x0, symName: __ZNSt3__114__split_bufferIPiNS_9allocatorIS1_EEE5clearB8ue170006Ev, symObjAddr: 0x15A10, symBinAddr: 0x100019118, symSize: 0x28 }
  - { offsetInCU: 0x4317B, offset: 0x4317B, size: 0x8, addend: 0x0, symName: __ZNSt3__116allocator_traitsINS_9allocatorIPiEEE10deallocateB8ue170006ERS3_PS2_m, symObjAddr: 0x15A38, symBinAddr: 0x100019140, symSize: 0x34 }
  - { offsetInCU: 0x431BD, offset: 0x431BD, size: 0x8, addend: 0x0, symName: __ZNSt3__114__split_bufferIPiNS_9allocatorIS1_EEE7__allocB8ue170006Ev, symObjAddr: 0x15A6C, symBinAddr: 0x100019174, symSize: 0x28 }
  - { offsetInCU: 0x431E3, offset: 0x431E3, size: 0x8, addend: 0x0, symName: __ZNKSt3__114__split_bufferIPiNS_9allocatorIS1_EEE8capacityB8ue170006Ev, symObjAddr: 0x15A94, symBinAddr: 0x10001919C, symSize: 0x40 }
  - { offsetInCU: 0x43209, offset: 0x43209, size: 0x8, addend: 0x0, symName: __ZNSt3__114__split_bufferIPiNS_9allocatorIS1_EEE17__destruct_at_endB8ue170006EPS1_, symObjAddr: 0x15AD4, symBinAddr: 0x1000191DC, symSize: 0x2C }
  - { offsetInCU: 0x4323D, offset: 0x4323D, size: 0x8, addend: 0x0, symName: __ZNSt3__114__split_bufferIPiNS_9allocatorIS1_EEE17__destruct_at_endB8ue170006EPS1_NS_17integral_constantIbLb0EEE, symObjAddr: 0x15B00, symBinAddr: 0x100019208, symSize: 0x80 }
  - { offsetInCU: 0x4327D, offset: 0x4327D, size: 0x8, addend: 0x0, symName: __ZNSt3__116allocator_traitsINS_9allocatorIPiEEE7destroyB8ue170006IS2_vEEvRS3_PT_, symObjAddr: 0x15B80, symBinAddr: 0x100019288, symSize: 0x2C }
  - { offsetInCU: 0x432BA, offset: 0x432BA, size: 0x8, addend: 0x0, symName: __ZNSt3__19allocatorIPiE7destroyB8ue170006EPS1_, symObjAddr: 0x15BC0, symBinAddr: 0x1000192C8, symSize: 0x14 }
  - { offsetInCU: 0x432EE, offset: 0x432EE, size: 0x8, addend: 0x0, symName: __ZNSt3__19allocatorIPiE10deallocateB8ue170006EPS1_m, symObjAddr: 0x15BD4, symBinAddr: 0x1000192DC, symSize: 0x40 }
  - { offsetInCU: 0x43330, offset: 0x43330, size: 0x8, addend: 0x0, symName: __ZNSt3__117__compressed_pairIPPiNS_9allocatorIS1_EEE6secondB8ue170006Ev, symObjAddr: 0x15C14, symBinAddr: 0x10001931C, symSize: 0x24 }
  - { offsetInCU: 0x43356, offset: 0x43356, size: 0x8, addend: 0x0, symName: __ZNSt3__122__compressed_pair_elemINS_9allocatorIPiEELi1ELb1EE5__getB8ue170006Ev, symObjAddr: 0x15C38, symBinAddr: 0x100019340, symSize: 0x14 }
  - { offsetInCU: 0x4337C, offset: 0x4337C, size: 0x8, addend: 0x0, symName: __ZNKSt3__114__split_bufferIPiNS_9allocatorIS1_EEE9__end_capB8ue170006Ev, symObjAddr: 0x15C4C, symBinAddr: 0x100019354, symSize: 0x28 }
  - { offsetInCU: 0x433A2, offset: 0x433A2, size: 0x8, addend: 0x0, symName: __ZNKSt3__117__compressed_pairIPPiNS_9allocatorIS1_EEE5firstB8ue170006Ev, symObjAddr: 0x15C74, symBinAddr: 0x10001937C, symSize: 0x24 }
  - { offsetInCU: 0x433C8, offset: 0x433C8, size: 0x8, addend: 0x0, symName: __ZNKSt3__122__compressed_pair_elemIPPiLi0ELb0EE5__getB8ue170006Ev, symObjAddr: 0x15C98, symBinAddr: 0x1000193A0, symSize: 0x14 }
  - { offsetInCU: 0x433EE, offset: 0x433EE, size: 0x8, addend: 0x0, symName: __ZNSt3__15queueIP4NodeNS_5dequeIS2_NS_9allocatorIS2_EEEEED2Ev, symObjAddr: 0x15CAC, symBinAddr: 0x1000193B4, symSize: 0x2C }
  - { offsetInCU: 0x4341B, offset: 0x4341B, size: 0x8, addend: 0x0, symName: __ZNSt3__15dequeIP4NodeNS_9allocatorIS2_EEED1B8ue170006Ev, symObjAddr: 0x15CD8, symBinAddr: 0x1000193E0, symSize: 0x2C }
  - { offsetInCU: 0x43445, offset: 0x43445, size: 0x8, addend: 0x0, symName: __ZNSt3__15dequeIP4NodeNS_9allocatorIS2_EEED2B8ue170006Ev, symObjAddr: 0x15D04, symBinAddr: 0x10001940C, symSize: 0xA4 }
  - { offsetInCU: 0x4349B, offset: 0x4349B, size: 0x8, addend: 0x0, symName: __ZNSt3__15dequeIP4NodeNS_9allocatorIS2_EEE5clearEv, symObjAddr: 0x15DA8, symBinAddr: 0x1000194B0, symSize: 0x194 }
  - { offsetInCU: 0x434F6, offset: 0x434F6, size: 0x8, addend: 0x0, symName: __ZNKSt3__15dequeIP4NodeNS_9allocatorIS2_EEE17__annotate_deleteB8ue170006Ev, symObjAddr: 0x15F3C, symBinAddr: 0x100019644, symSize: 0xE8 }
  - { offsetInCU: 0x43539, offset: 0x43539, size: 0x8, addend: 0x0, symName: __ZNSt3__114__split_bufferIPP4NodeNS_9allocatorIS3_EEE5beginB8ue170006Ev, symObjAddr: 0x16024, symBinAddr: 0x10001972C, symSize: 0x18 }
  - { offsetInCU: 0x4355F, offset: 0x4355F, size: 0x8, addend: 0x0, symName: __ZNSt3__114__split_bufferIPP4NodeNS_9allocatorIS3_EEE3endB8ue170006Ev, symObjAddr: 0x1603C, symBinAddr: 0x100019744, symSize: 0x18 }
  - { offsetInCU: 0x43585, offset: 0x43585, size: 0x8, addend: 0x0, symName: __ZNSt3__116allocator_traitsINS_9allocatorIP4NodeEEE10deallocateB8ue170006ERS4_PS3_m, symObjAddr: 0x16054, symBinAddr: 0x10001975C, symSize: 0x34 }
  - { offsetInCU: 0x435C7, offset: 0x435C7, size: 0x8, addend: 0x0, symName: __ZNSt3__15dequeIP4NodeNS_9allocatorIS2_EEE7__allocB8ue170006Ev, symObjAddr: 0x16088, symBinAddr: 0x100019790, symSize: 0x28 }
  - { offsetInCU: 0x435ED, offset: 0x435ED, size: 0x8, addend: 0x0, symName: __ZNSt3__114__split_bufferIPP4NodeNS_9allocatorIS3_EEED1Ev, symObjAddr: 0x160B0, symBinAddr: 0x1000197B8, symSize: 0x2C }
  - { offsetInCU: 0x43619, offset: 0x43619, size: 0x8, addend: 0x0, symName: __ZNSt3__15dequeIP4NodeNS_9allocatorIS2_EEE5beginB8ue170006Ev, symObjAddr: 0x160DC, symBinAddr: 0x1000197E4, symSize: 0xB8 }
  - { offsetInCU: 0x4364E, offset: 0x4364E, size: 0x8, addend: 0x0, symName: __ZNSt3__15dequeIP4NodeNS_9allocatorIS2_EEE3endB8ue170006Ev, symObjAddr: 0x16194, symBinAddr: 0x10001989C, symSize: 0xBC }
  - { offsetInCU: 0x43692, offset: 0x43692, size: 0x8, addend: 0x0, symName: __ZNSt3__116allocator_traitsINS_9allocatorIP4NodeEEE7destroyB8ue170006IS3_vEEvRS4_PT_, symObjAddr: 0x16284, symBinAddr: 0x10001998C, symSize: 0x2C }
  - { offsetInCU: 0x436CF, offset: 0x436CF, size: 0x8, addend: 0x0, symName: __ZNKSt3__116__deque_iteratorIP4NodePS2_RS2_PS3_lLl512EEdeB8ue170006Ev, symObjAddr: 0x162B0, symBinAddr: 0x1000199B8, symSize: 0x18 }
  - { offsetInCU: 0x436F5, offset: 0x436F5, size: 0x8, addend: 0x0, symName: __ZNSt3__116__deque_iteratorIP4NodePS2_RS2_PS3_lLl512EEppB8ue170006Ev, symObjAddr: 0x162C8, symBinAddr: 0x1000199D0, symSize: 0x70 }
  - { offsetInCU: 0x4371B, offset: 0x4371B, size: 0x8, addend: 0x0, symName: __ZNSt3__15dequeIP4NodeNS_9allocatorIS2_EEE6__sizeB8ue170006Ev, symObjAddr: 0x16338, symBinAddr: 0x100019A40, symSize: 0x28 }
  - { offsetInCU: 0x43741, offset: 0x43741, size: 0x8, addend: 0x0, symName: __ZNKSt3__114__split_bufferIPP4NodeNS_9allocatorIS3_EEE4sizeB8ue170006Ev, symObjAddr: 0x16360, symBinAddr: 0x100019A68, symSize: 0x28 }
  - { offsetInCU: 0x43767, offset: 0x43767, size: 0x8, addend: 0x0, symName: __ZNSt3__114__split_bufferIPP4NodeNS_9allocatorIS3_EEE5frontB8ue170006Ev, symObjAddr: 0x16388, symBinAddr: 0x100019A90, symSize: 0x18 }
  - { offsetInCU: 0x4378D, offset: 0x4378D, size: 0x8, addend: 0x0, symName: __ZNSt3__114__split_bufferIPP4NodeNS_9allocatorIS3_EEE9pop_frontB8ue170006Ev, symObjAddr: 0x163A0, symBinAddr: 0x100019AA8, symSize: 0x2C }
  - { offsetInCU: 0x437B3, offset: 0x437B3, size: 0x8, addend: 0x0, symName: __ZNKSt3__15dequeIP4NodeNS_9allocatorIS2_EEE14__annotate_newB8ue170006Em, symObjAddr: 0x163CC, symBinAddr: 0x100019AD4, symSize: 0xB8 }
  - { offsetInCU: 0x437E8, offset: 0x437E8, size: 0x8, addend: 0x0, symName: __ZNKSt3__114__split_bufferIPP4NodeNS_9allocatorIS3_EEE5emptyB8ue170006Ev, symObjAddr: 0x16484, symBinAddr: 0x100019B8C, symSize: 0x28 }
  - { offsetInCU: 0x4380E, offset: 0x4380E, size: 0x8, addend: 0x0, symName: __ZNSt3__116__deque_iteratorIP4NodePS2_RS2_PS3_lLl512EEC1B8ue170006ES5_S3_, symObjAddr: 0x164AC, symBinAddr: 0x100019BB4, symSize: 0x3C }
  - { offsetInCU: 0x43856, offset: 0x43856, size: 0x8, addend: 0x0, symName: __ZNSt3__116__deque_iteratorIP4NodePS2_RS2_PS3_lLl512EEC2B8ue170006ES5_S3_, symObjAddr: 0x164E8, symBinAddr: 0x100019BF0, symSize: 0x2C }
  - { offsetInCU: 0x4389E, offset: 0x4389E, size: 0x8, addend: 0x0, symName: __ZNKSt3__15dequeIP4NodeNS_9allocatorIS2_EEE4sizeB8ue170006Ev, symObjAddr: 0x16514, symBinAddr: 0x100019C1C, symSize: 0x28 }
  - { offsetInCU: 0x438C4, offset: 0x438C4, size: 0x8, addend: 0x0, symName: __ZNKSt3__15dequeIP4NodeNS_9allocatorIS2_EEE6__sizeB8ue170006Ev, symObjAddr: 0x1653C, symBinAddr: 0x100019C44, symSize: 0x28 }
  - { offsetInCU: 0x438EA, offset: 0x438EA, size: 0x8, addend: 0x0, symName: __ZNKSt3__117__compressed_pairImNS_9allocatorIP4NodeEEE5firstB8ue170006Ev, symObjAddr: 0x16564, symBinAddr: 0x100019C6C, symSize: 0x24 }
  - { offsetInCU: 0x43910, offset: 0x43910, size: 0x8, addend: 0x0, symName: __ZNSt3__19allocatorIP4NodeE7destroyB8ue170006EPS2_, symObjAddr: 0x165B8, symBinAddr: 0x100019CC0, symSize: 0x14 }
  - { offsetInCU: 0x43944, offset: 0x43944, size: 0x8, addend: 0x0, symName: __ZNSt3__117__compressed_pairImNS_9allocatorIP4NodeEEE5firstB8ue170006Ev, symObjAddr: 0x165CC, symBinAddr: 0x100019CD4, symSize: 0x24 }
  - { offsetInCU: 0x4396A, offset: 0x4396A, size: 0x8, addend: 0x0, symName: __ZNSt3__114__split_bufferIPP4NodeNS_9allocatorIS3_EEE19__destruct_at_beginB8ue170006EPS3_, symObjAddr: 0x165F0, symBinAddr: 0x100019CF8, symSize: 0x2C }
  - { offsetInCU: 0x4399E, offset: 0x4399E, size: 0x8, addend: 0x0, symName: __ZNSt3__114__split_bufferIPP4NodeNS_9allocatorIS3_EEE19__destruct_at_beginEPS3_NS_17integral_constantIbLb1EEE, symObjAddr: 0x1661C, symBinAddr: 0x100019D24, symSize: 0x20 }
  - { offsetInCU: 0x439DE, offset: 0x439DE, size: 0x8, addend: 0x0, symName: __ZNKSt3__15dequeIP4NodeNS_9allocatorIS2_EEE18__annotate_from_toB8ue170006EmmNS5_22__asan_annotation_typeENS5_23__asan_annotation_placeE, symObjAddr: 0x1663C, symBinAddr: 0x100019D44, symSize: 0x580 }
  - { offsetInCU: 0x43B9A, offset: 0x43B9A, size: 0x8, addend: 0x0, symName: __ZNKSt3__114__split_bufferIPP4NodeNS_9allocatorIS3_EEE5beginB8ue170006Ev, symObjAddr: 0x16BBC, symBinAddr: 0x10001A2C4, symSize: 0x18 }
  - { offsetInCU: 0x43BC0, offset: 0x43BC0, size: 0x8, addend: 0x0, symName: __ZNKSt3__15dequeIP4NodeNS_9allocatorIS2_EEE5emptyB8ue170006Ev, symObjAddr: 0x16BD4, symBinAddr: 0x10001A2DC, symSize: 0x30 }
  - { offsetInCU: 0x43BE6, offset: 0x43BE6, size: 0x8, addend: 0x0, symName: __ZNKSt3__15dequeIP4NodeNS_9allocatorIS2_EEE44__annotate_double_ended_contiguous_containerB8ue170006EPKvS7_S7_S7_S7_S7_, symObjAddr: 0x16C18, symBinAddr: 0x10001A320, symSize: 0x28 }
  - { offsetInCU: 0x43C54, offset: 0x43C54, size: 0x8, addend: 0x0, symName: __ZNKSt3__15dequeIP4NodeNS_9allocatorIS2_EEE22__annotate_whole_blockB8ue170006EmNS5_22__asan_annotation_typeE, symObjAddr: 0x16C40, symBinAddr: 0x10001A348, symSize: 0xAC }
  - { offsetInCU: 0x43CC5, offset: 0x43CC5, size: 0x8, addend: 0x0, symName: __ZNKSt3__15dequeIP4NodeNS_9allocatorIS2_EEE23__annotate_poison_blockB8ue170006EPKvS7_, symObjAddr: 0x16CEC, symBinAddr: 0x10001A3F4, symSize: 0x44 }
  - { offsetInCU: 0x43D09, offset: 0x43D09, size: 0x8, addend: 0x0, symName: __ZNSt3__19allocatorIP4NodeE10deallocateB8ue170006EPS2_m, symObjAddr: 0x16D30, symBinAddr: 0x10001A438, symSize: 0x40 }
  - { offsetInCU: 0x43D4B, offset: 0x43D4B, size: 0x8, addend: 0x0, symName: __ZNSt3__117__compressed_pairImNS_9allocatorIP4NodeEEE6secondB8ue170006Ev, symObjAddr: 0x16D70, symBinAddr: 0x10001A478, symSize: 0x24 }
  - { offsetInCU: 0x43D71, offset: 0x43D71, size: 0x8, addend: 0x0, symName: __ZNSt3__122__compressed_pair_elemINS_9allocatorIP4NodeEELi1ELb1EE5__getB8ue170006Ev, symObjAddr: 0x16D94, symBinAddr: 0x10001A49C, symSize: 0x14 }
  - { offsetInCU: 0x43D97, offset: 0x43D97, size: 0x8, addend: 0x0, symName: __ZNSt3__114__split_bufferIPP4NodeNS_9allocatorIS3_EEED2Ev, symObjAddr: 0x16DA8, symBinAddr: 0x10001A4B0, symSize: 0x8C }
  - { offsetInCU: 0x43DC3, offset: 0x43DC3, size: 0x8, addend: 0x0, symName: __ZNSt3__114__split_bufferIPP4NodeNS_9allocatorIS3_EEE5clearB8ue170006Ev, symObjAddr: 0x16E34, symBinAddr: 0x10001A53C, symSize: 0x28 }
  - { offsetInCU: 0x43DE9, offset: 0x43DE9, size: 0x8, addend: 0x0, symName: __ZNSt3__116allocator_traitsINS_9allocatorIPP4NodeEEE10deallocateB8ue170006ERS5_PS4_m, symObjAddr: 0x16E5C, symBinAddr: 0x10001A564, symSize: 0x34 }
  - { offsetInCU: 0x43E2B, offset: 0x43E2B, size: 0x8, addend: 0x0, symName: __ZNSt3__114__split_bufferIPP4NodeNS_9allocatorIS3_EEE7__allocB8ue170006Ev, symObjAddr: 0x16E90, symBinAddr: 0x10001A598, symSize: 0x28 }
  - { offsetInCU: 0x43E51, offset: 0x43E51, size: 0x8, addend: 0x0, symName: __ZNKSt3__114__split_bufferIPP4NodeNS_9allocatorIS3_EEE8capacityB8ue170006Ev, symObjAddr: 0x16EB8, symBinAddr: 0x10001A5C0, symSize: 0x40 }
  - { offsetInCU: 0x43E77, offset: 0x43E77, size: 0x8, addend: 0x0, symName: __ZNSt3__114__split_bufferIPP4NodeNS_9allocatorIS3_EEE17__destruct_at_endB8ue170006EPS3_, symObjAddr: 0x16EF8, symBinAddr: 0x10001A600, symSize: 0x2C }
  - { offsetInCU: 0x43EAB, offset: 0x43EAB, size: 0x8, addend: 0x0, symName: __ZNSt3__114__split_bufferIPP4NodeNS_9allocatorIS3_EEE17__destruct_at_endB8ue170006EPS3_NS_17integral_constantIbLb0EEE, symObjAddr: 0x16F24, symBinAddr: 0x10001A62C, symSize: 0x80 }
  - { offsetInCU: 0x43EEB, offset: 0x43EEB, size: 0x8, addend: 0x0, symName: __ZNSt3__116allocator_traitsINS_9allocatorIPP4NodeEEE7destroyB8ue170006IS4_vEEvRS5_PT_, symObjAddr: 0x16FA4, symBinAddr: 0x10001A6AC, symSize: 0x2C }
  - { offsetInCU: 0x43F28, offset: 0x43F28, size: 0x8, addend: 0x0, symName: __ZNSt3__19allocatorIPP4NodeE7destroyB8ue170006EPS3_, symObjAddr: 0x16FE4, symBinAddr: 0x10001A6EC, symSize: 0x14 }
  - { offsetInCU: 0x43F5C, offset: 0x43F5C, size: 0x8, addend: 0x0, symName: __ZNSt3__19allocatorIPP4NodeE10deallocateB8ue170006EPS3_m, symObjAddr: 0x16FF8, symBinAddr: 0x10001A700, symSize: 0x40 }
  - { offsetInCU: 0x43F9E, offset: 0x43F9E, size: 0x8, addend: 0x0, symName: __ZNSt3__117__compressed_pairIPPP4NodeNS_9allocatorIS3_EEE6secondB8ue170006Ev, symObjAddr: 0x17038, symBinAddr: 0x10001A740, symSize: 0x24 }
  - { offsetInCU: 0x43FC4, offset: 0x43FC4, size: 0x8, addend: 0x0, symName: __ZNSt3__122__compressed_pair_elemINS_9allocatorIPP4NodeEELi1ELb1EE5__getB8ue170006Ev, symObjAddr: 0x1705C, symBinAddr: 0x10001A764, symSize: 0x14 }
  - { offsetInCU: 0x43FEA, offset: 0x43FEA, size: 0x8, addend: 0x0, symName: __ZNKSt3__114__split_bufferIPP4NodeNS_9allocatorIS3_EEE9__end_capB8ue170006Ev, symObjAddr: 0x17070, symBinAddr: 0x10001A778, symSize: 0x28 }
  - { offsetInCU: 0x44010, offset: 0x44010, size: 0x8, addend: 0x0, symName: __ZNKSt3__117__compressed_pairIPPP4NodeNS_9allocatorIS3_EEE5firstB8ue170006Ev, symObjAddr: 0x17098, symBinAddr: 0x10001A7A0, symSize: 0x24 }
  - { offsetInCU: 0x44036, offset: 0x44036, size: 0x8, addend: 0x0, symName: __ZNKSt3__122__compressed_pair_elemIPPP4NodeLi0ELb0EE5__getB8ue170006Ev, symObjAddr: 0x170BC, symBinAddr: 0x10001A7C4, symSize: 0x14 }
  - { offsetInCU: 0x4405C, offset: 0x4405C, size: 0x8, addend: 0x0, symName: __ZNSt3__110lock_guardINS_5mutexEEC2B8ue170006ERS1_, symObjAddr: 0x170D0, symBinAddr: 0x10001A7D8, symSize: 0x3C }
  - { offsetInCU: 0x44094, offset: 0x44094, size: 0x8, addend: 0x0, symName: __ZNSt3__110lock_guardINS_5mutexEED2B8ue170006Ev, symObjAddr: 0x1710C, symBinAddr: 0x10001A814, symSize: 0x30 }
  - { offsetInCU: 0x440BE, offset: 0x440BE, size: 0x8, addend: 0x0, symName: __ZNSt3__111unique_lockINS_5mutexEEC2B8ue170006ERS1_, symObjAddr: 0x1713C, symBinAddr: 0x10001A844, symSize: 0x44 }
  - { offsetInCU: 0x440F6, offset: 0x440F6, size: 0x8, addend: 0x0, symName: __ZNSt3__111unique_lockINS_5mutexEED2B8ue170006Ev, symObjAddr: 0x17180, symBinAddr: 0x10001A888, symSize: 0x4C }
  - { offsetInCU: 0x44120, offset: 0x44120, size: 0x8, addend: 0x0, symName: __ZNSt3__111char_traitsIcE6lengthB8ue170006EPKc, symObjAddr: 0x173B8, symBinAddr: 0x10001AAC0, symSize: 0x34 }
  - { offsetInCU: 0x44166, offset: 0x44166, size: 0x8, addend: 0x0, symName: __ZNKSt3__113basic_ostreamIcNS_11char_traitsIcEEE6sentrycvbB8ue170006Ev, symObjAddr: 0x173EC, symBinAddr: 0x10001AAF4, symSize: 0x1C }
  - { offsetInCU: 0x4418C, offset: 0x4418C, size: 0x8, addend: 0x0, symName: __ZNSt3__119ostreambuf_iteratorIcNS_11char_traitsIcEEEC1B8ue170006ERNS_13basic_ostreamIcS2_EE, symObjAddr: 0x17648, symBinAddr: 0x10001AD50, symSize: 0x34 }
  - { offsetInCU: 0x441C4, offset: 0x441C4, size: 0x8, addend: 0x0, symName: __ZNKSt3__18ios_base5flagsB8ue170006Ev, symObjAddr: 0x1767C, symBinAddr: 0x10001AD84, symSize: 0x18 }
  - { offsetInCU: 0x441EC, offset: 0x441EC, size: 0x8, addend: 0x0, symName: __ZNKSt3__19basic_iosIcNS_11char_traitsIcEEE4fillB8ue170006Ev, symObjAddr: 0x17694, symBinAddr: 0x10001AD9C, symSize: 0x64 }
  - { offsetInCU: 0x44214, offset: 0x44214, size: 0x8, addend: 0x0, symName: __ZNKSt3__119ostreambuf_iteratorIcNS_11char_traitsIcEEE6failedB8ue170006Ev, symObjAddr: 0x176F8, symBinAddr: 0x10001AE00, symSize: 0x24 }
  - { offsetInCU: 0x4423A, offset: 0x4423A, size: 0x8, addend: 0x0, symName: __ZNSt3__19basic_iosIcNS_11char_traitsIcEEE8setstateB8ue170006Ej, symObjAddr: 0x1771C, symBinAddr: 0x10001AE24, symSize: 0x2C }
  - { offsetInCU: 0x4426F, offset: 0x4426F, size: 0x8, addend: 0x0, symName: __ZNKSt3__18ios_base5widthB8ue170006Ev, symObjAddr: 0x17748, symBinAddr: 0x10001AE50, symSize: 0x18 }
  - { offsetInCU: 0x44297, offset: 0x44297, size: 0x8, addend: 0x0, symName: __ZNSt3__115basic_streambufIcNS_11char_traitsIcEEE5sputnB8ue170006EPKcl, symObjAddr: 0x17760, symBinAddr: 0x10001AE68, symSize: 0x3C }
  - { offsetInCU: 0x442D9, offset: 0x442D9, size: 0x8, addend: 0x0, symName: __ZNSt3__112basic_stringIcNS_11char_traitsIcEENS_9allocatorIcEEEC1B8ue170006Emc, symObjAddr: 0x1779C, symBinAddr: 0x10001AEA4, symSize: 0x3C }
  - { offsetInCU: 0x44321, offset: 0x44321, size: 0x8, addend: 0x0, symName: __ZNKSt3__112basic_stringIcNS_11char_traitsIcEENS_9allocatorIcEEE4dataB8ue170006Ev, symObjAddr: 0x177D8, symBinAddr: 0x10001AEE0, symSize: 0x28 }
  - { offsetInCU: 0x44347, offset: 0x44347, size: 0x8, addend: 0x0, symName: __ZNSt3__18ios_base5widthB8ue170006El, symObjAddr: 0x17800, symBinAddr: 0x10001AF08, symSize: 0x2C }
  - { offsetInCU: 0x4438D, offset: 0x4438D, size: 0x8, addend: 0x0, symName: __ZNSt3__112basic_stringIcNS_11char_traitsIcEENS_9allocatorIcEEEC2B8ue170006Emc, symObjAddr: 0x1782C, symBinAddr: 0x10001AF34, symSize: 0x4C }
  - { offsetInCU: 0x443D5, offset: 0x443D5, size: 0x8, addend: 0x0, symName: __ZNSt3__117__compressed_pairINS_12basic_stringIcNS_11char_traitsIcEENS_9allocatorIcEEE5__repES5_EC1B8ue170006INS_18__default_init_tagESA_EEOT_OT0_, symObjAddr: 0x17878, symBinAddr: 0x10001AF80, symSize: 0x3C }
  - { offsetInCU: 0x4442D, offset: 0x4442D, size: 0x8, addend: 0x0, symName: __ZNSt3__117__compressed_pairINS_12basic_stringIcNS_11char_traitsIcEENS_9allocatorIcEEE5__repES5_EC2B8ue170006INS_18__default_init_tagESA_EEOT_OT0_, symObjAddr: 0x178B4, symBinAddr: 0x10001AFBC, symSize: 0x3C }
  - { offsetInCU: 0x44485, offset: 0x44485, size: 0x8, addend: 0x0, symName: __ZNSt3__122__compressed_pair_elemINS_12basic_stringIcNS_11char_traitsIcEENS_9allocatorIcEEE5__repELi0ELb0EEC2B8ue170006ENS_18__default_init_tagE, symObjAddr: 0x178F0, symBinAddr: 0x10001AFF8, symSize: 0x14 }
  - { offsetInCU: 0x444B9, offset: 0x444B9, size: 0x8, addend: 0x0, symName: __ZNSt3__122__compressed_pair_elemINS_9allocatorIcEELi1ELb1EEC2B8ue170006ENS_18__default_init_tagE, symObjAddr: 0x17904, symBinAddr: 0x10001B00C, symSize: 0x2C }
  - { offsetInCU: 0x444ED, offset: 0x444ED, size: 0x8, addend: 0x0, symName: __ZNSt3__19allocatorIcEC2B8ue170006Ev, symObjAddr: 0x17930, symBinAddr: 0x10001B038, symSize: 0x2C }
  - { offsetInCU: 0x44517, offset: 0x44517, size: 0x8, addend: 0x0, symName: __ZNSt3__116__non_trivial_ifILb1ENS_9allocatorIcEEEC2B8ue170006Ev, symObjAddr: 0x1795C, symBinAddr: 0x10001B064, symSize: 0x14 }
  - { offsetInCU: 0x44541, offset: 0x44541, size: 0x8, addend: 0x0, symName: __ZNKSt3__112basic_stringIcNS_11char_traitsIcEENS_9allocatorIcEEE13__get_pointerB8ue170006Ev, symObjAddr: 0x17984, symBinAddr: 0x10001B08C, symSize: 0x54 }
  - { offsetInCU: 0x44567, offset: 0x44567, size: 0x8, addend: 0x0, symName: __ZNKSt3__112basic_stringIcNS_11char_traitsIcEENS_9allocatorIcEEE9__is_longB8ue170006Ev, symObjAddr: 0x179D8, symBinAddr: 0x10001B0E0, symSize: 0x38 }
  - { offsetInCU: 0x4458D, offset: 0x4458D, size: 0x8, addend: 0x0, symName: __ZNKSt3__112basic_stringIcNS_11char_traitsIcEENS_9allocatorIcEEE18__get_long_pointerB8ue170006Ev, symObjAddr: 0x17A10, symBinAddr: 0x10001B118, symSize: 0x28 }
  - { offsetInCU: 0x445B3, offset: 0x445B3, size: 0x8, addend: 0x0, symName: __ZNKSt3__112basic_stringIcNS_11char_traitsIcEENS_9allocatorIcEEE19__get_short_pointerB8ue170006Ev, symObjAddr: 0x17A38, symBinAddr: 0x10001B140, symSize: 0x28 }
  - { offsetInCU: 0x445D9, offset: 0x445D9, size: 0x8, addend: 0x0, symName: __ZNKSt3__117__compressed_pairINS_12basic_stringIcNS_11char_traitsIcEENS_9allocatorIcEEE5__repES5_E5firstB8ue170006Ev, symObjAddr: 0x17A60, symBinAddr: 0x10001B168, symSize: 0x24 }
  - { offsetInCU: 0x445FF, offset: 0x445FF, size: 0x8, addend: 0x0, symName: __ZNKSt3__122__compressed_pair_elemINS_12basic_stringIcNS_11char_traitsIcEENS_9allocatorIcEEE5__repELi0ELb0EE5__getB8ue170006Ev, symObjAddr: 0x17A84, symBinAddr: 0x10001B18C, symSize: 0x14 }
  - { offsetInCU: 0x44625, offset: 0x44625, size: 0x8, addend: 0x0, symName: __ZNSt3__114pointer_traitsIPKcE10pointer_toB8ue170006ERS1_, symObjAddr: 0x17A98, symBinAddr: 0x10001B1A0, symSize: 0x14 }
  - { offsetInCU: 0x44648, offset: 0x44648, size: 0x8, addend: 0x0, symName: __ZNSt3__119ostreambuf_iteratorIcNS_11char_traitsIcEEEC2B8ue170006ERNS_13basic_ostreamIcS2_EE, symObjAddr: 0x17AAC, symBinAddr: 0x10001B1B4, symSize: 0x54 }
  - { offsetInCU: 0x44680, offset: 0x44680, size: 0x8, addend: 0x0, symName: __ZNKSt3__19basic_iosIcNS_11char_traitsIcEEE5rdbufB8ue170006Ev, symObjAddr: 0x17B00, symBinAddr: 0x10001B208, symSize: 0x24 }
  - { offsetInCU: 0x446A8, offset: 0x446A8, size: 0x8, addend: 0x0, symName: __ZNKSt3__18ios_base5rdbufB8ue170006Ev, symObjAddr: 0x17B24, symBinAddr: 0x10001B22C, symSize: 0x18 }
  - { offsetInCU: 0x446CE, offset: 0x446CE, size: 0x8, addend: 0x0, symName: __ZNSt3__111char_traitsIcE11eq_int_typeB8ue170006Eii, symObjAddr: 0x17B3C, symBinAddr: 0x10001B244, symSize: 0x28 }
  - { offsetInCU: 0x44701, offset: 0x44701, size: 0x8, addend: 0x0, symName: __ZNSt3__111char_traitsIcE3eofB8ue170006Ev, symObjAddr: 0x17B64, symBinAddr: 0x10001B26C, symSize: 0x8 }
  - { offsetInCU: 0x44715, offset: 0x44715, size: 0x8, addend: 0x0, symName: __ZNKSt3__19basic_iosIcNS_11char_traitsIcEEE5widenB8ue170006Ec, symObjAddr: 0x17B6C, symBinAddr: 0x10001B274, symSize: 0x84 }
  - { offsetInCU: 0x4474C, offset: 0x4474C, size: 0x8, addend: 0x0, symName: __ZNKSt3__15ctypeIcE5widenB8ue170006Ec, symObjAddr: 0x17C1C, symBinAddr: 0x10001B324, symSize: 0x38 }
  - { offsetInCU: 0x44781, offset: 0x44781, size: 0x8, addend: 0x0, symName: __ZNSt3__18ios_base8setstateB8ue170006Ej, symObjAddr: 0x17C54, symBinAddr: 0x10001B35C, symSize: 0x34 }
  - { offsetInCU: 0x447B8, offset: 0x447B8, size: 0x8, addend: 0x0, symName: __ZNSt3__112basic_stringIcNS_11char_traitsIcEENS_9allocatorIcEEEC2B8ue170006ILi0EEEPKc, symObjAddr: 0x17CAC, symBinAddr: 0x10001B3B4, symSize: 0x58 }
  - { offsetInCU: 0x447F7, offset: 0x447F7, size: 0x8, addend: 0x0, symName: __ZNSt3__113match_resultsINS_11__wrap_iterIPKcEENS_9allocatorINS_9sub_matchIS4_EEEEEC1Ev, symObjAddr: 0x17DA4, symBinAddr: 0x10001B4AC, symSize: 0x40 }
  - { offsetInCU: 0x44821, offset: 0x44821, size: 0x8, addend: 0x0, symName: __ZNSt3__19allocatorINS_9sub_matchINS_11__wrap_iterIPKcEEEEEC1B8ue170006Ev, symObjAddr: 0x17EB4, symBinAddr: 0x10001B5BC, symSize: 0x2C }
  - { offsetInCU: 0x4484B, offset: 0x4484B, size: 0x8, addend: 0x0, symName: __ZNSt3__113match_resultsINS_11__wrap_iterIPKcEENS_9allocatorINS_9sub_matchIS4_EEEEEC1ERKS8_, symObjAddr: 0x17EE0, symBinAddr: 0x10001B5E8, symSize: 0x34 }
  - { offsetInCU: 0x44886, offset: 0x44886, size: 0x8, addend: 0x0, symName: __ZNSt3__19allocatorINS_9sub_matchINS_11__wrap_iterIPKcEEEEEC2B8ue170006Ev, symObjAddr: 0x17F14, symBinAddr: 0x10001B61C, symSize: 0x2C }
  - { offsetInCU: 0x448B0, offset: 0x448B0, size: 0x8, addend: 0x0, symName: __ZNSt3__116__non_trivial_ifILb1ENS_9allocatorINS_9sub_matchINS_11__wrap_iterIPKcEEEEEEEC2B8ue170006Ev, symObjAddr: 0x17F40, symBinAddr: 0x10001B648, symSize: 0x14 }
  - { offsetInCU: 0x448DA, offset: 0x448DA, size: 0x8, addend: 0x0, symName: __ZNSt3__113match_resultsINS_11__wrap_iterIPKcEENS_9allocatorINS_9sub_matchIS4_EEEEEC2ERKS8_, symObjAddr: 0x17F54, symBinAddr: 0x10001B65C, symSize: 0x98 }
  - { offsetInCU: 0x44915, offset: 0x44915, size: 0x8, addend: 0x0, symName: __ZNSt3__16vectorINS_9sub_matchINS_11__wrap_iterIPKcEEEENS_9allocatorIS6_EEEC1B8ue170006ERKS8_, symObjAddr: 0x17FEC, symBinAddr: 0x10001B6F4, symSize: 0x34 }
  - { offsetInCU: 0x4494E, offset: 0x4494E, size: 0x8, addend: 0x0, symName: __ZNSt3__19sub_matchINS_11__wrap_iterIPKcEEEC1B8ue170006Ev, symObjAddr: 0x18020, symBinAddr: 0x10001B728, symSize: 0x2C }
  - { offsetInCU: 0x44978, offset: 0x44978, size: 0x8, addend: 0x0, symName: __ZNSt3__111__wrap_iterIPKcEC1B8ue170006Ev, symObjAddr: 0x1804C, symBinAddr: 0x10001B754, symSize: 0x2C }
  - { offsetInCU: 0x449A2, offset: 0x449A2, size: 0x8, addend: 0x0, symName: __ZNSt3__16vectorINS_9sub_matchINS_11__wrap_iterIPKcEEEENS_9allocatorIS6_EEEC2B8ue170006ERKS8_, symObjAddr: 0x18078, symBinAddr: 0x10001B780, symSize: 0x50 }
  - { offsetInCU: 0x449DB, offset: 0x449DB, size: 0x8, addend: 0x0, symName: __ZNSt3__117__compressed_pairIPNS_9sub_matchINS_11__wrap_iterIPKcEEEENS_9allocatorIS6_EEEC1B8ue170006IDnRKS9_EEOT_OT0_, symObjAddr: 0x180C8, symBinAddr: 0x10001B7D0, symSize: 0x3C }
  - { offsetInCU: 0x44A33, offset: 0x44A33, size: 0x8, addend: 0x0, symName: __ZNSt3__117__compressed_pairIPNS_9sub_matchINS_11__wrap_iterIPKcEEEENS_9allocatorIS6_EEEC2B8ue170006IDnRKS9_EEOT_OT0_, symObjAddr: 0x18104, symBinAddr: 0x10001B80C, symSize: 0x44 }
  - { offsetInCU: 0x44A8B, offset: 0x44A8B, size: 0x8, addend: 0x0, symName: __ZNSt3__122__compressed_pair_elemIPNS_9sub_matchINS_11__wrap_iterIPKcEEEELi0ELb0EEC2B8ue170006IDnvEEOT_, symObjAddr: 0x18148, symBinAddr: 0x10001B850, symSize: 0x1C }
  - { offsetInCU: 0x44ACD, offset: 0x44ACD, size: 0x8, addend: 0x0, symName: __ZNSt3__122__compressed_pair_elemINS_9allocatorINS_9sub_matchINS_11__wrap_iterIPKcEEEEEELi1ELb1EEC2B8ue170006IRKS8_vEEOT_, symObjAddr: 0x18164, symBinAddr: 0x10001B86C, symSize: 0x18 }
  - { offsetInCU: 0x44B0F, offset: 0x44B0F, size: 0x8, addend: 0x0, symName: __ZNSt3__19sub_matchINS_11__wrap_iterIPKcEEEC2B8ue170006Ev, symObjAddr: 0x1817C, symBinAddr: 0x10001B884, symSize: 0x30 }
  - { offsetInCU: 0x44B39, offset: 0x44B39, size: 0x8, addend: 0x0, symName: __ZNSt3__14pairINS_11__wrap_iterIPKcEES4_EC2B8ue170006ILb1ELPv0EEEv, symObjAddr: 0x181AC, symBinAddr: 0x10001B8B4, symSize: 0x38 }
  - { offsetInCU: 0x44B73, offset: 0x44B73, size: 0x8, addend: 0x0, symName: __ZNSt3__111__wrap_iterIPKcEC2B8ue170006Ev, symObjAddr: 0x181E4, symBinAddr: 0x10001B8EC, symSize: 0x18 }
  - { offsetInCU: 0x44B9D, offset: 0x44B9D, size: 0x8, addend: 0x0, symName: __ZNKSt3__113match_resultsINS_11__wrap_iterIPKcEENS_9allocatorINS_9sub_matchIS4_EEEEE6suffixB8ue170006Ev, symObjAddr: 0x18344, symBinAddr: 0x10001BA4C, symSize: 0x18 }
  - { offsetInCU: 0x44BC3, offset: 0x44BC3, size: 0x8, addend: 0x0, symName: __ZNSt3__16vectorINS_9sub_matchINS_11__wrap_iterIPKcEEEENS_9allocatorIS6_EEE5clearB8ue170006Ev, symObjAddr: 0x1835C, symBinAddr: 0x10001BA64, symSize: 0x44 }
  - { offsetInCU: 0x44C30, offset: 0x44C30, size: 0x8, addend: 0x0, symName: __ZNSt3__113match_resultsIPKcNS_9allocatorINS_9sub_matchIS2_EEEEEC1Ev, symObjAddr: 0x183A0, symBinAddr: 0x10001BAA8, symSize: 0x40 }
  - { offsetInCU: 0x44C60, offset: 0x44C60, size: 0x8, addend: 0x0, symName: __ZNKSt3__111basic_regexIcNS_12regex_traitsIcEEE8__searchINS_9allocatorINS_9sub_matchIPKcEEEEEEbS8_S8_RNS_13match_resultsIS8_T_EENS_15regex_constants15match_flag_typeE, symObjAddr: 0x183E0, symBinAddr: 0x10001BAE8, symSize: 0x36C }
  - { offsetInCU: 0x44CCD, offset: 0x44CCD, size: 0x8, addend: 0x0, symName: __ZNKSt3__111__wrap_iterIPKcE4baseB8ue170006Ev, symObjAddr: 0x1874C, symBinAddr: 0x10001BE54, symSize: 0x18 }
  - { offsetInCU: 0x44CF9, offset: 0x44CF9, size: 0x8, addend: 0x0, symName: __ZNSt3__113match_resultsINS_11__wrap_iterIPKcEENS_9allocatorINS_9sub_matchIS4_EEEEE8__assignB8ue170006IS3_NS5_INS6_IS3_EEEEEEvS4_S4_RKNS0_IT_T0_EEb, symObjAddr: 0x18764, symBinAddr: 0x10001BE6C, symSize: 0x310 }
  - { offsetInCU: 0x44DA0, offset: 0x44DA0, size: 0x8, addend: 0x0, symName: __ZNSt3__113match_resultsIPKcNS_9allocatorINS_9sub_matchIS2_EEEEED1Ev, symObjAddr: 0x18A94, symBinAddr: 0x10001C19C, symSize: 0x2C }
  - { offsetInCU: 0x44DCD, offset: 0x44DCD, size: 0x8, addend: 0x0, symName: __ZNSt3__19allocatorINS_9sub_matchIPKcEEEC1B8ue170006Ev, symObjAddr: 0x18AC0, symBinAddr: 0x10001C1C8, symSize: 0x2C }
  - { offsetInCU: 0x44DF7, offset: 0x44DF7, size: 0x8, addend: 0x0, symName: __ZNSt3__113match_resultsIPKcNS_9allocatorINS_9sub_matchIS2_EEEEEC1ERKS6_, symObjAddr: 0x18AEC, symBinAddr: 0x10001C1F4, symSize: 0x34 }
  - { offsetInCU: 0x44E32, offset: 0x44E32, size: 0x8, addend: 0x0, symName: __ZNSt3__19allocatorINS_9sub_matchIPKcEEEC2B8ue170006Ev, symObjAddr: 0x18B20, symBinAddr: 0x10001C228, symSize: 0x2C }
  - { offsetInCU: 0x44E5C, offset: 0x44E5C, size: 0x8, addend: 0x0, symName: __ZNSt3__116__non_trivial_ifILb1ENS_9allocatorINS_9sub_matchIPKcEEEEEC2B8ue170006Ev, symObjAddr: 0x18B4C, symBinAddr: 0x10001C254, symSize: 0x14 }
  - { offsetInCU: 0x44E86, offset: 0x44E86, size: 0x8, addend: 0x0, symName: __ZNSt3__113match_resultsIPKcNS_9allocatorINS_9sub_matchIS2_EEEEEC2ERKS6_, symObjAddr: 0x18B60, symBinAddr: 0x10001C268, symSize: 0x90 }
  - { offsetInCU: 0x44EC1, offset: 0x44EC1, size: 0x8, addend: 0x0, symName: __ZNSt3__16vectorINS_9sub_matchIPKcEENS_9allocatorIS4_EEEC1B8ue170006ERKS6_, symObjAddr: 0x18BF0, symBinAddr: 0x10001C2F8, symSize: 0x34 }
  - { offsetInCU: 0x44EFA, offset: 0x44EFA, size: 0x8, addend: 0x0, symName: __ZNSt3__19sub_matchIPKcEC1B8ue170006Ev, symObjAddr: 0x18C24, symBinAddr: 0x10001C32C, symSize: 0x2C }
  - { offsetInCU: 0x44F24, offset: 0x44F24, size: 0x8, addend: 0x0, symName: __ZNSt3__16vectorINS_9sub_matchIPKcEENS_9allocatorIS4_EEED1B8ue170006Ev, symObjAddr: 0x18C50, symBinAddr: 0x10001C358, symSize: 0x2C }
  - { offsetInCU: 0x44F4E, offset: 0x44F4E, size: 0x8, addend: 0x0, symName: __ZNSt3__16vectorINS_9sub_matchIPKcEENS_9allocatorIS4_EEEC2B8ue170006ERKS6_, symObjAddr: 0x18C7C, symBinAddr: 0x10001C384, symSize: 0x50 }
  - { offsetInCU: 0x44F87, offset: 0x44F87, size: 0x8, addend: 0x0, symName: __ZNSt3__117__compressed_pairIPNS_9sub_matchIPKcEENS_9allocatorIS4_EEEC1B8ue170006IDnRKS7_EEOT_OT0_, symObjAddr: 0x18CCC, symBinAddr: 0x10001C3D4, symSize: 0x3C }
  - { offsetInCU: 0x44FDF, offset: 0x44FDF, size: 0x8, addend: 0x0, symName: __ZNSt3__117__compressed_pairIPNS_9sub_matchIPKcEENS_9allocatorIS4_EEEC2B8ue170006IDnRKS7_EEOT_OT0_, symObjAddr: 0x18D08, symBinAddr: 0x10001C410, symSize: 0x44 }
  - { offsetInCU: 0x45037, offset: 0x45037, size: 0x8, addend: 0x0, symName: __ZNSt3__122__compressed_pair_elemIPNS_9sub_matchIPKcEELi0ELb0EEC2B8ue170006IDnvEEOT_, symObjAddr: 0x18D4C, symBinAddr: 0x10001C454, symSize: 0x1C }
  - { offsetInCU: 0x45079, offset: 0x45079, size: 0x8, addend: 0x0, symName: __ZNSt3__122__compressed_pair_elemINS_9allocatorINS_9sub_matchIPKcEEEELi1ELb1EEC2B8ue170006IRKS6_vEEOT_, symObjAddr: 0x18D68, symBinAddr: 0x10001C470, symSize: 0x18 }
  - { offsetInCU: 0x450BB, offset: 0x450BB, size: 0x8, addend: 0x0, symName: __ZNSt3__19sub_matchIPKcEC2B8ue170006Ev, symObjAddr: 0x18D80, symBinAddr: 0x10001C488, symSize: 0x30 }
  - { offsetInCU: 0x450E5, offset: 0x450E5, size: 0x8, addend: 0x0, symName: __ZNSt3__14pairIPKcS2_EC2B8ue170006ILb1ELPv0EEEv, symObjAddr: 0x18DB0, symBinAddr: 0x10001C4B8, symSize: 0x1C }
  - { offsetInCU: 0x4511F, offset: 0x4511F, size: 0x8, addend: 0x0, symName: __ZNSt3__16vectorINS_9sub_matchIPKcEENS_9allocatorIS4_EEED2B8ue170006Ev, symObjAddr: 0x18DCC, symBinAddr: 0x10001C4D4, symSize: 0x44 }
  - { offsetInCU: 0x45149, offset: 0x45149, size: 0x8, addend: 0x0, symName: __ZNSt3__16vectorINS_9sub_matchIPKcEENS_9allocatorIS4_EEE16__destroy_vectorC1B8ue170006ERS7_, symObjAddr: 0x18E10, symBinAddr: 0x10001C518, symSize: 0x34 }
  - { offsetInCU: 0x45182, offset: 0x45182, size: 0x8, addend: 0x0, symName: __ZNSt3__16vectorINS_9sub_matchIPKcEENS_9allocatorIS4_EEE16__destroy_vectorclB8ue170006Ev, symObjAddr: 0x18E44, symBinAddr: 0x10001C54C, symSize: 0x90 }
  - { offsetInCU: 0x451A8, offset: 0x451A8, size: 0x8, addend: 0x0, symName: __ZNSt3__16vectorINS_9sub_matchIPKcEENS_9allocatorIS4_EEE16__destroy_vectorC2B8ue170006ERS7_, symObjAddr: 0x18ED4, symBinAddr: 0x10001C5DC, symSize: 0x20 }
  - { offsetInCU: 0x451E1, offset: 0x451E1, size: 0x8, addend: 0x0, symName: __ZNSt3__16vectorINS_9sub_matchIPKcEENS_9allocatorIS4_EEE7__clearB8ue170006Ev, symObjAddr: 0x18EF4, symBinAddr: 0x10001C5FC, symSize: 0x28 }
  - { offsetInCU: 0x45207, offset: 0x45207, size: 0x8, addend: 0x0, symName: __ZNKSt3__16vectorINS_9sub_matchIPKcEENS_9allocatorIS4_EEE17__annotate_deleteB8ue170006Ev, symObjAddr: 0x18F1C, symBinAddr: 0x10001C624, symSize: 0xD4 }
  - { offsetInCU: 0x4522D, offset: 0x4522D, size: 0x8, addend: 0x0, symName: __ZNSt3__116allocator_traitsINS_9allocatorINS_9sub_matchIPKcEEEEE10deallocateB8ue170006ERS6_PS5_m, symObjAddr: 0x18FF0, symBinAddr: 0x10001C6F8, symSize: 0x34 }
  - { offsetInCU: 0x4526F, offset: 0x4526F, size: 0x8, addend: 0x0, symName: __ZNSt3__16vectorINS_9sub_matchIPKcEENS_9allocatorIS4_EEE7__allocB8ue170006Ev, symObjAddr: 0x19024, symBinAddr: 0x10001C72C, symSize: 0x28 }
  - { offsetInCU: 0x45295, offset: 0x45295, size: 0x8, addend: 0x0, symName: __ZNKSt3__16vectorINS_9sub_matchIPKcEENS_9allocatorIS4_EEE8capacityB8ue170006Ev, symObjAddr: 0x1904C, symBinAddr: 0x10001C754, symSize: 0x40 }
  - { offsetInCU: 0x452BB, offset: 0x452BB, size: 0x8, addend: 0x0, symName: __ZNSt3__16vectorINS_9sub_matchIPKcEENS_9allocatorIS4_EEE22__base_destruct_at_endB8ue170006EPS4_, symObjAddr: 0x1908C, symBinAddr: 0x10001C794, symSize: 0x8C }
  - { offsetInCU: 0x452FF, offset: 0x452FF, size: 0x8, addend: 0x0, symName: __ZNSt3__116allocator_traitsINS_9allocatorINS_9sub_matchIPKcEEEEE7destroyB8ue170006IS5_vEEvRS6_PT_, symObjAddr: 0x19118, symBinAddr: 0x10001C820, symSize: 0x2C }
  - { offsetInCU: 0x4533C, offset: 0x4533C, size: 0x8, addend: 0x0, symName: __ZNSt3__19allocatorINS_9sub_matchIPKcEEE7destroyB8ue170006EPS4_, symObjAddr: 0x19158, symBinAddr: 0x10001C860, symSize: 0x14 }
  - { offsetInCU: 0x45370, offset: 0x45370, size: 0x8, addend: 0x0, symName: __ZNKSt3__16vectorINS_9sub_matchIPKcEENS_9allocatorIS4_EEE31__annotate_contiguous_containerB8ue170006EPKvS9_S9_S9_, symObjAddr: 0x1916C, symBinAddr: 0x10001C874, symSize: 0x20 }
  - { offsetInCU: 0x453C6, offset: 0x453C6, size: 0x8, addend: 0x0, symName: __ZNKSt3__16vectorINS_9sub_matchIPKcEENS_9allocatorIS4_EEE4dataB8ue170006Ev, symObjAddr: 0x1918C, symBinAddr: 0x10001C894, symSize: 0x28 }
  - { offsetInCU: 0x453EC, offset: 0x453EC, size: 0x8, addend: 0x0, symName: __ZNKSt3__16vectorINS_9sub_matchIPKcEENS_9allocatorIS4_EEE4sizeB8ue170006Ev, symObjAddr: 0x191B4, symBinAddr: 0x10001C8BC, symSize: 0x28 }
  - { offsetInCU: 0x45412, offset: 0x45412, size: 0x8, addend: 0x0, symName: __ZNSt3__19allocatorINS_9sub_matchIPKcEEE10deallocateB8ue170006EPS4_m, symObjAddr: 0x191DC, symBinAddr: 0x10001C8E4, symSize: 0x44 }
  - { offsetInCU: 0x45454, offset: 0x45454, size: 0x8, addend: 0x0, symName: __ZNSt3__117__compressed_pairIPNS_9sub_matchIPKcEENS_9allocatorIS4_EEE6secondB8ue170006Ev, symObjAddr: 0x19220, symBinAddr: 0x10001C928, symSize: 0x24 }
  - { offsetInCU: 0x4547A, offset: 0x4547A, size: 0x8, addend: 0x0, symName: __ZNSt3__122__compressed_pair_elemINS_9allocatorINS_9sub_matchIPKcEEEELi1ELb1EE5__getB8ue170006Ev, symObjAddr: 0x19244, symBinAddr: 0x10001C94C, symSize: 0x14 }
  - { offsetInCU: 0x454A0, offset: 0x454A0, size: 0x8, addend: 0x0, symName: __ZNKSt3__16vectorINS_9sub_matchIPKcEENS_9allocatorIS4_EEE9__end_capB8ue170006Ev, symObjAddr: 0x19258, symBinAddr: 0x10001C960, symSize: 0x28 }
  - { offsetInCU: 0x454C6, offset: 0x454C6, size: 0x8, addend: 0x0, symName: __ZNKSt3__117__compressed_pairIPNS_9sub_matchIPKcEENS_9allocatorIS4_EEE5firstB8ue170006Ev, symObjAddr: 0x19280, symBinAddr: 0x10001C988, symSize: 0x24 }
  - { offsetInCU: 0x454EC, offset: 0x454EC, size: 0x8, addend: 0x0, symName: __ZNKSt3__122__compressed_pair_elemIPNS_9sub_matchIPKcEELi0ELb0EE5__getB8ue170006Ev, symObjAddr: 0x192A4, symBinAddr: 0x10001C9AC, symSize: 0x14 }
  - { offsetInCU: 0x45512, offset: 0x45512, size: 0x8, addend: 0x0, symName: __ZNSt3__113match_resultsIPKcNS_9allocatorINS_9sub_matchIS2_EEEEE6__initEjS2_S2_b, symObjAddr: 0x19310, symBinAddr: 0x10001CA18, symSize: 0xB0 }
  - { offsetInCU: 0x45576, offset: 0x45576, size: 0x8, addend: 0x0, symName: __ZNKSt3__111basic_regexIcNS_12regex_traitsIcEEE10mark_countB8ue170006Ev, symObjAddr: 0x193C0, symBinAddr: 0x10001CAC8, symSize: 0x18 }
  - { offsetInCU: 0x4559C, offset: 0x4559C, size: 0x8, addend: 0x0, symName: __ZNKSt3__111basic_regexIcNS_12regex_traitsIcEEE16__match_at_startINS_9allocatorINS_9sub_matchIPKcEEEEEEbS8_S8_RNS_13match_resultsIS8_T_EENS_15regex_constants15match_flag_typeEb, symObjAddr: 0x193D8, symBinAddr: 0x10001CAE0, symSize: 0x108 }
  - { offsetInCU: 0x45618, offset: 0x45618, size: 0x8, addend: 0x0, symName: __ZNKSt3__113match_resultsIPKcNS_9allocatorINS_9sub_matchIS2_EEEEEixB8ue170006Em, symObjAddr: 0x194E0, symBinAddr: 0x10001CBE8, symSize: 0x70 }
  - { offsetInCU: 0x4564D, offset: 0x4564D, size: 0x8, addend: 0x0, symName: __ZNSt3__16vectorINS_9sub_matchIPKcEENS_9allocatorIS4_EEE6assignEmRKS4_, symObjAddr: 0x1958C, symBinAddr: 0x10001CC94, symSize: 0x110 }
  - { offsetInCU: 0x456B0, offset: 0x456B0, size: 0x8, addend: 0x0, symName: __ZNKSt3__113match_resultsIPKcNS_9allocatorINS_9sub_matchIS2_EEEEE4sizeB8ue170006Ev, symObjAddr: 0x1969C, symBinAddr: 0x10001CDA4, symSize: 0x24 }
  - { offsetInCU: 0x456D6, offset: 0x456D6, size: 0x8, addend: 0x0, symName: __ZNSt3__16vectorINS_9sub_matchIPKcEENS_9allocatorIS4_EEE5clearB8ue170006Ev, symObjAddr: 0x196C0, symBinAddr: 0x10001CDC8, symSize: 0x44 }
  - { offsetInCU: 0x45711, offset: 0x45711, size: 0x8, addend: 0x0, symName: __ZNSt3__19sub_matchIPKcEaSERKS3_, symObjAddr: 0x19704, symBinAddr: 0x10001CE0C, symSize: 0x44 }
  - { offsetInCU: 0x45743, offset: 0x45743, size: 0x8, addend: 0x0, symName: __ZNSt3__14pairIPKcS2_EaSB8ue170006ERKS3_, symObjAddr: 0x19748, symBinAddr: 0x10001CE50, symSize: 0x30 }
  - { offsetInCU: 0x45778, offset: 0x45778, size: 0x8, addend: 0x0, symName: __ZNKSt3__111basic_regexIcNS_12regex_traitsIcEEE21__match_at_start_ecmaINS_9allocatorINS_9sub_matchIPKcEEEEEEbS8_S8_RNS_13match_resultsIS8_T_EENS_15regex_constants15match_flag_typeEb, symObjAddr: 0x19790, symBinAddr: 0x10001CE98, symSize: 0x5A8 }
  - { offsetInCU: 0x4589C, offset: 0x4589C, size: 0x8, addend: 0x0, symName: __ZNKSt3__111basic_regexIcNS_12regex_traitsIcEEE29__match_at_start_posix_nosubsINS_9allocatorINS_9sub_matchIPKcEEEEEEbS8_S8_RNS_13match_resultsIS8_T_EENS_15regex_constants15match_flag_typeEb, symObjAddr: 0x19D60, symBinAddr: 0x10001D468, symSize: 0x604 }
  - { offsetInCU: 0x459BA, offset: 0x459BA, size: 0x8, addend: 0x0, symName: __ZNKSt3__111basic_regexIcNS_12regex_traitsIcEEE27__match_at_start_posix_subsINS_9allocatorINS_9sub_matchIPKcEEEEEEbS8_S8_RNS_13match_resultsIS8_T_EENS_15regex_constants15match_flag_typeEb, symObjAddr: 0x1A38C, symBinAddr: 0x10001DA94, symSize: 0x684 }
  - { offsetInCU: 0x45B16, offset: 0x45B16, size: 0x8, addend: 0x0, symName: __ZNSt3__16vectorINS_7__stateIcEENS_9allocatorIS2_EEEC1B8ue170006Ev, symObjAddr: 0x1AA38, symBinAddr: 0x10001E140, symSize: 0x2C }
  - { offsetInCU: 0x45B40, offset: 0x45B40, size: 0x8, addend: 0x0, symName: __ZNKSt3__110shared_ptrINS_13__empty_stateIcEEE3getB8ue170006Ev, symObjAddr: 0x1AA64, symBinAddr: 0x10001E16C, symSize: 0x18 }
  - { offsetInCU: 0x45B66, offset: 0x45B66, size: 0x8, addend: 0x0, symName: __ZNSt3__16vectorINS_7__stateIcEENS_9allocatorIS2_EEE9push_backB8ue170006EOS2_, symObjAddr: 0x1AA7C, symBinAddr: 0x10001E184, symSize: 0x6C }
  - { offsetInCU: 0x45B9D, offset: 0x45B9D, size: 0x8, addend: 0x0, symName: __ZNSt3__17__stateIcEC1B8ue170006Ev, symObjAddr: 0x1AAE8, symBinAddr: 0x10001E1F0, symSize: 0x2C }
  - { offsetInCU: 0x45BC7, offset: 0x45BC7, size: 0x8, addend: 0x0, symName: __ZNSt3__17__stateIcED1Ev, symObjAddr: 0x1AB14, symBinAddr: 0x10001E21C, symSize: 0x2C }
  - { offsetInCU: 0x45BF4, offset: 0x45BF4, size: 0x8, addend: 0x0, symName: __ZNSt3__16vectorINS_7__stateIcEENS_9allocatorIS2_EEE4backB8ue170006Ev, symObjAddr: 0x1AB40, symBinAddr: 0x10001E248, symSize: 0x1C }
  - { offsetInCU: 0x45C1A, offset: 0x45C1A, size: 0x8, addend: 0x0, symName: __ZNSt3__16vectorINS_9sub_matchIPKcEENS_9allocatorIS4_EEE6resizeEmRKS4_, symObjAddr: 0x1AB5C, symBinAddr: 0x10001E264, symSize: 0xA4 }
  - { offsetInCU: 0x45C6F, offset: 0x45C6F, size: 0x8, addend: 0x0, symName: __ZNSt3__16vectorINS_4pairImPKcEENS_9allocatorIS4_EEE6resizeEm, symObjAddr: 0x1AC00, symBinAddr: 0x10001E308, symSize: 0x94 }
  - { offsetInCU: 0x45CB5, offset: 0x45CB5, size: 0x8, addend: 0x0, symName: __ZNKSt3__111basic_regexIcNS_12regex_traitsIcEEE12__loop_countB8ue170006Ev, symObjAddr: 0x1AC94, symBinAddr: 0x10001E39C, symSize: 0x18 }
  - { offsetInCU: 0x45CDB, offset: 0x45CDB, size: 0x8, addend: 0x0, symName: __ZNSt3__16vectorINS_7__stateIcEENS_9allocatorIS2_EEE8pop_backEv, symObjAddr: 0x1AD0C, symBinAddr: 0x10001E414, symSize: 0x2C }
  - { offsetInCU: 0x45D03, offset: 0x45D03, size: 0x8, addend: 0x0, symName: __ZNSt3__16vectorINS_9sub_matchIPKcEENS_9allocatorIS4_EEEixB8ue170006Em, symObjAddr: 0x1AD38, symBinAddr: 0x10001E440, symSize: 0x2C }
  - { offsetInCU: 0x45D3A, offset: 0x45D3A, size: 0x8, addend: 0x0, symName: __ZNSt3__17__stateIcEC1ERKS1_, symObjAddr: 0x1AD98, symBinAddr: 0x10001E4A0, symSize: 0x34 }
  - { offsetInCU: 0x45D70, offset: 0x45D70, size: 0x8, addend: 0x0, symName: __ZNKSt3__16vectorINS_7__stateIcEENS_9allocatorIS2_EEE5emptyB8ue170006Ev, symObjAddr: 0x1AE2C, symBinAddr: 0x10001E534, symSize: 0x28 }
  - { offsetInCU: 0x45D96, offset: 0x45D96, size: 0x8, addend: 0x0, symName: __ZNSt3__16vectorINS_7__stateIcEENS_9allocatorIS2_EEED1B8ue170006Ev, symObjAddr: 0x1AE54, symBinAddr: 0x10001E55C, symSize: 0x2C }
  - { offsetInCU: 0x45DC0, offset: 0x45DC0, size: 0x8, addend: 0x0, symName: __ZNSt3__16vectorINS_7__stateIcEENS_9allocatorIS2_EEEC2B8ue170006Ev, symObjAddr: 0x1AE80, symBinAddr: 0x10001E588, symSize: 0x4C }
  - { offsetInCU: 0x45DEA, offset: 0x45DEA, size: 0x8, addend: 0x0, symName: __ZNSt3__117__compressed_pairIPNS_7__stateIcEENS_9allocatorIS2_EEEC1B8ue170006IDnNS_18__default_init_tagEEEOT_OT0_, symObjAddr: 0x1AECC, symBinAddr: 0x10001E5D4, symSize: 0x3C }
  - { offsetInCU: 0x45E42, offset: 0x45E42, size: 0x8, addend: 0x0, symName: __ZNSt3__117__compressed_pairIPNS_7__stateIcEENS_9allocatorIS2_EEEC2B8ue170006IDnNS_18__default_init_tagEEEOT_OT0_, symObjAddr: 0x1AF08, symBinAddr: 0x10001E610, symSize: 0x40 }
  - { offsetInCU: 0x45E9A, offset: 0x45E9A, size: 0x8, addend: 0x0, symName: __ZNSt3__122__compressed_pair_elemIPNS_7__stateIcEELi0ELb0EEC2B8ue170006IDnvEEOT_, symObjAddr: 0x1AF48, symBinAddr: 0x10001E650, symSize: 0x1C }
  - { offsetInCU: 0x45EDC, offset: 0x45EDC, size: 0x8, addend: 0x0, symName: __ZNSt3__122__compressed_pair_elemINS_9allocatorINS_7__stateIcEEEELi1ELb1EEC2B8ue170006ENS_18__default_init_tagE, symObjAddr: 0x1AF64, symBinAddr: 0x10001E66C, symSize: 0x2C }
  - { offsetInCU: 0x45F10, offset: 0x45F10, size: 0x8, addend: 0x0, symName: __ZNSt3__19allocatorINS_7__stateIcEEEC2B8ue170006Ev, symObjAddr: 0x1AF90, symBinAddr: 0x10001E698, symSize: 0x2C }
  - { offsetInCU: 0x45F3A, offset: 0x45F3A, size: 0x8, addend: 0x0, symName: __ZNSt3__116__non_trivial_ifILb1ENS_9allocatorINS_7__stateIcEEEEEC2B8ue170006Ev, symObjAddr: 0x1AFBC, symBinAddr: 0x10001E6C4, symSize: 0x14 }
  - { offsetInCU: 0x45F64, offset: 0x45F64, size: 0x8, addend: 0x0, symName: __ZNSt3__16vectorINS_7__stateIcEENS_9allocatorIS2_EEE9__end_capB8ue170006Ev, symObjAddr: 0x1AFD0, symBinAddr: 0x10001E6D8, symSize: 0x28 }
  - { offsetInCU: 0x45F90, offset: 0x45F90, size: 0x8, addend: 0x0, symName: __ZNSt3__16vectorINS_7__stateIcEENS_9allocatorIS2_EEE22__construct_one_at_endB8ue170006IJS2_EEEvDpOT_, symObjAddr: 0x1AFF8, symBinAddr: 0x10001E700, symSize: 0x90 }
  - { offsetInCU: 0x45FDF, offset: 0x45FDF, size: 0x8, addend: 0x0, symName: __ZNSt3__16vectorINS_7__stateIcEENS_9allocatorIS2_EEE21__push_back_slow_pathIS2_EEvOT_, symObjAddr: 0x1B088, symBinAddr: 0x10001E790, symSize: 0xD8 }
  - { offsetInCU: 0x4603D, offset: 0x4603D, size: 0x8, addend: 0x0, symName: __ZNSt3__117__compressed_pairIPNS_7__stateIcEENS_9allocatorIS2_EEE5firstB8ue170006Ev, symObjAddr: 0x1B160, symBinAddr: 0x10001E868, symSize: 0x24 }
  - { offsetInCU: 0x46063, offset: 0x46063, size: 0x8, addend: 0x0, symName: __ZNSt3__122__compressed_pair_elemIPNS_7__stateIcEELi0ELb0EE5__getB8ue170006Ev, symObjAddr: 0x1B184, symBinAddr: 0x10001E88C, symSize: 0x14 }
  - { offsetInCU: 0x460A5, offset: 0x460A5, size: 0x8, addend: 0x0, symName: __ZNSt3__16vectorINS_7__stateIcEENS_9allocatorIS2_EEE21_ConstructTransactionC1B8ue170006ERS5_m, symObjAddr: 0x1B198, symBinAddr: 0x10001E8A0, symSize: 0x3C }
  - { offsetInCU: 0x460ED, offset: 0x460ED, size: 0x8, addend: 0x0, symName: __ZNSt3__116allocator_traitsINS_9allocatorINS_7__stateIcEEEEE9constructB8ue170006IS3_JS3_EvEEvRS4_PT_DpOT0_, symObjAddr: 0x1B1D4, symBinAddr: 0x10001E8DC, symSize: 0x34 }
  - { offsetInCU: 0x46144, offset: 0x46144, size: 0x8, addend: 0x0, symName: __ZNSt3__16vectorINS_7__stateIcEENS_9allocatorIS2_EEE7__allocB8ue170006Ev, symObjAddr: 0x1B208, symBinAddr: 0x10001E910, symSize: 0x28 }
  - { offsetInCU: 0x4616A, offset: 0x4616A, size: 0x8, addend: 0x0, symName: __ZNSt3__16vectorINS_7__stateIcEENS_9allocatorIS2_EEE21_ConstructTransactionD1B8ue170006Ev, symObjAddr: 0x1B244, symBinAddr: 0x10001E94C, symSize: 0x2C }
  - { offsetInCU: 0x46194, offset: 0x46194, size: 0x8, addend: 0x0, symName: __ZNSt3__16vectorINS_7__stateIcEENS_9allocatorIS2_EEE21_ConstructTransactionC2B8ue170006ERS5_m, symObjAddr: 0x1B270, symBinAddr: 0x10001E978, symSize: 0x4C }
  - { offsetInCU: 0x461DC, offset: 0x461DC, size: 0x8, addend: 0x0, symName: __ZNSt3__19allocatorINS_7__stateIcEEE9constructB8ue170006IS2_JS2_EEEvPT_DpOT0_, symObjAddr: 0x1B2BC, symBinAddr: 0x10001E9C4, symSize: 0x30 }
  - { offsetInCU: 0x46232, offset: 0x46232, size: 0x8, addend: 0x0, symName: __ZNSt3__17__stateIcEC1EOS1_, symObjAddr: 0x1B2EC, symBinAddr: 0x10001E9F4, symSize: 0x34 }
  - { offsetInCU: 0x46268, offset: 0x46268, size: 0x8, addend: 0x0, symName: __ZNSt3__17__stateIcEC2EOS1_, symObjAddr: 0x1B320, symBinAddr: 0x10001EA28, symSize: 0x78 }
  - { offsetInCU: 0x4629E, offset: 0x4629E, size: 0x8, addend: 0x0, symName: __ZNSt3__16vectorINS_9sub_matchIPKcEENS_9allocatorIS4_EEEC1B8ue170006EOS7_, symObjAddr: 0x1B398, symBinAddr: 0x10001EAA0, symSize: 0x34 }
  - { offsetInCU: 0x462D9, offset: 0x462D9, size: 0x8, addend: 0x0, symName: __ZNSt3__16vectorINS_4pairImPKcEENS_9allocatorIS4_EEEC1B8ue170006EOS7_, symObjAddr: 0x1B3CC, symBinAddr: 0x10001EAD4, symSize: 0x34 }
  - { offsetInCU: 0x46314, offset: 0x46314, size: 0x8, addend: 0x0, symName: __ZNSt3__16vectorINS_9sub_matchIPKcEENS_9allocatorIS4_EEEC2B8ue170006EOS7_, symObjAddr: 0x1B400, symBinAddr: 0x10001EB08, symSize: 0xC4 }
  - { offsetInCU: 0x46355, offset: 0x46355, size: 0x8, addend: 0x0, symName: __ZNSt3__117__compressed_pairIPNS_9sub_matchIPKcEENS_9allocatorIS4_EEEC1B8ue170006IDnS7_EEOT_OT0_, symObjAddr: 0x1B4C4, symBinAddr: 0x10001EBCC, symSize: 0x3C }
  - { offsetInCU: 0x463AD, offset: 0x463AD, size: 0x8, addend: 0x0, symName: __ZNSt3__16vectorINS_9sub_matchIPKcEENS_9allocatorIS4_EEE9__end_capB8ue170006Ev, symObjAddr: 0x1B500, symBinAddr: 0x10001EC08, symSize: 0x28 }
  - { offsetInCU: 0x463D3, offset: 0x463D3, size: 0x8, addend: 0x0, symName: __ZNSt3__117__compressed_pairIPNS_9sub_matchIPKcEENS_9allocatorIS4_EEEC2B8ue170006IDnS7_EEOT_OT0_, symObjAddr: 0x1B528, symBinAddr: 0x10001EC30, symSize: 0x44 }
  - { offsetInCU: 0x4642B, offset: 0x4642B, size: 0x8, addend: 0x0, symName: __ZNSt3__122__compressed_pair_elemINS_9allocatorINS_9sub_matchIPKcEEEELi1ELb1EEC2B8ue170006IS6_vEEOT_, symObjAddr: 0x1B56C, symBinAddr: 0x10001EC74, symSize: 0x18 }
  - { offsetInCU: 0x4646D, offset: 0x4646D, size: 0x8, addend: 0x0, symName: __ZNSt3__117__compressed_pairIPNS_9sub_matchIPKcEENS_9allocatorIS4_EEE5firstB8ue170006Ev, symObjAddr: 0x1B584, symBinAddr: 0x10001EC8C, symSize: 0x24 }
  - { offsetInCU: 0x46493, offset: 0x46493, size: 0x8, addend: 0x0, symName: __ZNSt3__122__compressed_pair_elemIPNS_9sub_matchIPKcEELi0ELb0EE5__getB8ue170006Ev, symObjAddr: 0x1B5A8, symBinAddr: 0x10001ECB0, symSize: 0x14 }
  - { offsetInCU: 0x464B9, offset: 0x464B9, size: 0x8, addend: 0x0, symName: __ZNSt3__16vectorINS_4pairImPKcEENS_9allocatorIS4_EEEC2B8ue170006EOS7_, symObjAddr: 0x1B5BC, symBinAddr: 0x10001ECC4, symSize: 0xC4 }
  - { offsetInCU: 0x464F4, offset: 0x464F4, size: 0x8, addend: 0x0, symName: __ZNSt3__16vectorINS_4pairImPKcEENS_9allocatorIS4_EEE7__allocB8ue170006Ev, symObjAddr: 0x1B680, symBinAddr: 0x10001ED88, symSize: 0x28 }
  - { offsetInCU: 0x46520, offset: 0x46520, size: 0x8, addend: 0x0, symName: __ZNSt3__117__compressed_pairIPNS_4pairImPKcEENS_9allocatorIS4_EEEC1B8ue170006IDnS7_EEOT_OT0_, symObjAddr: 0x1B6A8, symBinAddr: 0x10001EDB0, symSize: 0x3C }
  - { offsetInCU: 0x46578, offset: 0x46578, size: 0x8, addend: 0x0, symName: __ZNSt3__16vectorINS_4pairImPKcEENS_9allocatorIS4_EEE9__end_capB8ue170006Ev, symObjAddr: 0x1B6E4, symBinAddr: 0x10001EDEC, symSize: 0x28 }
  - { offsetInCU: 0x4659E, offset: 0x4659E, size: 0x8, addend: 0x0, symName: __ZNSt3__117__compressed_pairIPNS_4pairImPKcEENS_9allocatorIS4_EEE6secondB8ue170006Ev, symObjAddr: 0x1B70C, symBinAddr: 0x10001EE14, symSize: 0x24 }
  - { offsetInCU: 0x465C4, offset: 0x465C4, size: 0x8, addend: 0x0, symName: __ZNSt3__122__compressed_pair_elemINS_9allocatorINS_4pairImPKcEEEELi1ELb1EE5__getB8ue170006Ev, symObjAddr: 0x1B730, symBinAddr: 0x10001EE38, symSize: 0x14 }
  - { offsetInCU: 0x465EA, offset: 0x465EA, size: 0x8, addend: 0x0, symName: __ZNSt3__117__compressed_pairIPNS_4pairImPKcEENS_9allocatorIS4_EEEC2B8ue170006IDnS7_EEOT_OT0_, symObjAddr: 0x1B744, symBinAddr: 0x10001EE4C, symSize: 0x44 }
  - { offsetInCU: 0x46642, offset: 0x46642, size: 0x8, addend: 0x0, symName: __ZNSt3__122__compressed_pair_elemIPNS_4pairImPKcEELi0ELb0EEC2B8ue170006IDnvEEOT_, symObjAddr: 0x1B788, symBinAddr: 0x10001EE90, symSize: 0x1C }
  - { offsetInCU: 0x46684, offset: 0x46684, size: 0x8, addend: 0x0, symName: __ZNSt3__122__compressed_pair_elemINS_9allocatorINS_4pairImPKcEEEELi1ELb1EEC2B8ue170006IS6_vEEOT_, symObjAddr: 0x1B7A4, symBinAddr: 0x10001EEAC, symSize: 0x18 }
  - { offsetInCU: 0x466C6, offset: 0x466C6, size: 0x8, addend: 0x0, symName: __ZNSt3__117__compressed_pairIPNS_4pairImPKcEENS_9allocatorIS4_EEE5firstB8ue170006Ev, symObjAddr: 0x1B7BC, symBinAddr: 0x10001EEC4, symSize: 0x24 }
  - { offsetInCU: 0x466EC, offset: 0x466EC, size: 0x8, addend: 0x0, symName: __ZNSt3__122__compressed_pair_elemIPNS_4pairImPKcEELi0ELb0EE5__getB8ue170006Ev, symObjAddr: 0x1B7E0, symBinAddr: 0x10001EEE8, symSize: 0x14 }
  - { offsetInCU: 0x46712, offset: 0x46712, size: 0x8, addend: 0x0, symName: __ZNSt3__117__compressed_pairIPNS_7__stateIcEENS_9allocatorIS2_EEE6secondB8ue170006Ev, symObjAddr: 0x1B7F4, symBinAddr: 0x10001EEFC, symSize: 0x24 }
  - { offsetInCU: 0x46738, offset: 0x46738, size: 0x8, addend: 0x0, symName: __ZNSt3__122__compressed_pair_elemINS_9allocatorINS_7__stateIcEEEELi1ELb1EE5__getB8ue170006Ev, symObjAddr: 0x1B818, symBinAddr: 0x10001EF20, symSize: 0x14 }
  - { offsetInCU: 0x4675E, offset: 0x4675E, size: 0x8, addend: 0x0, symName: __ZNSt3__16vectorINS_7__stateIcEENS_9allocatorIS2_EEE21_ConstructTransactionD2B8ue170006Ev, symObjAddr: 0x1B82C, symBinAddr: 0x10001EF34, symSize: 0x20 }
  - { offsetInCU: 0x46788, offset: 0x46788, size: 0x8, addend: 0x0, symName: __ZNKSt3__16vectorINS_7__stateIcEENS_9allocatorIS2_EEE11__recommendB8ue170006Em, symObjAddr: 0x1B84C, symBinAddr: 0x10001EF54, symSize: 0xB4 }
  - { offsetInCU: 0x467DD, offset: 0x467DD, size: 0x8, addend: 0x0, symName: __ZNKSt3__16vectorINS_7__stateIcEENS_9allocatorIS2_EEE4sizeB8ue170006Ev, symObjAddr: 0x1B900, symBinAddr: 0x10001F008, symSize: 0x28 }
  - { offsetInCU: 0x46803, offset: 0x46803, size: 0x8, addend: 0x0, symName: __ZNSt3__114__split_bufferINS_7__stateIcEERNS_9allocatorIS2_EEEC1EmmS5_, symObjAddr: 0x1B928, symBinAddr: 0x10001F030, symSize: 0x44 }
  - { offsetInCU: 0x46859, offset: 0x46859, size: 0x8, addend: 0x0, symName: __ZNSt3__114__split_bufferINS_7__stateIcEERNS_9allocatorIS2_EEED1Ev, symObjAddr: 0x1BA7C, symBinAddr: 0x10001F184, symSize: 0x2C }
  - { offsetInCU: 0x46885, offset: 0x46885, size: 0x8, addend: 0x0, symName: __ZNKSt3__16vectorINS_7__stateIcEENS_9allocatorIS2_EEE8max_sizeEv, symObjAddr: 0x1BAA8, symBinAddr: 0x10001F1B0, symSize: 0x60 }
  - { offsetInCU: 0x468AD, offset: 0x468AD, size: 0x8, addend: 0x0, symName: __ZNKSt3__16vectorINS_7__stateIcEENS_9allocatorIS2_EEE20__throw_length_errorB8ue170006Ev, symObjAddr: 0x1BB08, symBinAddr: 0x10001F210, symSize: 0x1C }
  - { offsetInCU: 0x468D3, offset: 0x468D3, size: 0x8, addend: 0x0, symName: __ZNKSt3__16vectorINS_7__stateIcEENS_9allocatorIS2_EEE8capacityB8ue170006Ev, symObjAddr: 0x1BB24, symBinAddr: 0x10001F22C, symSize: 0x40 }
  - { offsetInCU: 0x46904, offset: 0x46904, size: 0x8, addend: 0x0, symName: __ZNSt3__116allocator_traitsINS_9allocatorINS_7__stateIcEEEEE8max_sizeB8ue170006IS4_vEEmRKS4_, symObjAddr: 0x1BB90, symBinAddr: 0x10001F298, symSize: 0x24 }
  - { offsetInCU: 0x46932, offset: 0x46932, size: 0x8, addend: 0x0, symName: __ZNKSt3__16vectorINS_7__stateIcEENS_9allocatorIS2_EEE7__allocB8ue170006Ev, symObjAddr: 0x1BBB4, symBinAddr: 0x10001F2BC, symSize: 0x28 }
  - { offsetInCU: 0x46958, offset: 0x46958, size: 0x8, addend: 0x0, symName: __ZNKSt3__19allocatorINS_7__stateIcEEE8max_sizeB8ue170006Ev, symObjAddr: 0x1BBDC, symBinAddr: 0x10001F2E4, symSize: 0x18 }
  - { offsetInCU: 0x4697E, offset: 0x4697E, size: 0x8, addend: 0x0, symName: __ZNKSt3__117__compressed_pairIPNS_7__stateIcEENS_9allocatorIS2_EEE6secondB8ue170006Ev, symObjAddr: 0x1BBF4, symBinAddr: 0x10001F2FC, symSize: 0x24 }
  - { offsetInCU: 0x469A4, offset: 0x469A4, size: 0x8, addend: 0x0, symName: __ZNKSt3__122__compressed_pair_elemINS_9allocatorINS_7__stateIcEEEELi1ELb1EE5__getB8ue170006Ev, symObjAddr: 0x1BC18, symBinAddr: 0x10001F320, symSize: 0x14 }
  - { offsetInCU: 0x469CA, offset: 0x469CA, size: 0x8, addend: 0x0, symName: __ZNKSt3__16vectorINS_7__stateIcEENS_9allocatorIS2_EEE9__end_capB8ue170006Ev, symObjAddr: 0x1BC2C, symBinAddr: 0x10001F334, symSize: 0x28 }
  - { offsetInCU: 0x469F0, offset: 0x469F0, size: 0x8, addend: 0x0, symName: __ZNKSt3__117__compressed_pairIPNS_7__stateIcEENS_9allocatorIS2_EEE5firstB8ue170006Ev, symObjAddr: 0x1BC54, symBinAddr: 0x10001F35C, symSize: 0x24 }
  - { offsetInCU: 0x46A16, offset: 0x46A16, size: 0x8, addend: 0x0, symName: __ZNKSt3__122__compressed_pair_elemIPNS_7__stateIcEELi0ELb0EE5__getB8ue170006Ev, symObjAddr: 0x1BC78, symBinAddr: 0x10001F380, symSize: 0x14 }
  - { offsetInCU: 0x46A3C, offset: 0x46A3C, size: 0x8, addend: 0x0, symName: __ZNSt3__114__split_bufferINS_7__stateIcEERNS_9allocatorIS2_EEEC2EmmS5_, symObjAddr: 0x1BCE0, symBinAddr: 0x10001F3E8, symSize: 0xE0 }
  - { offsetInCU: 0x46AAF, offset: 0x46AAF, size: 0x8, addend: 0x0, symName: __ZNSt3__117__compressed_pairIPNS_7__stateIcEERNS_9allocatorIS2_EEEC1B8ue170006IDnS6_EEOT_OT0_, symObjAddr: 0x1BDC0, symBinAddr: 0x10001F4C8, symSize: 0x3C }
  - { offsetInCU: 0x46B07, offset: 0x46B07, size: 0x8, addend: 0x0, symName: __ZNSt3__114__split_bufferINS_7__stateIcEERNS_9allocatorIS2_EEE7__allocB8ue170006Ev, symObjAddr: 0x1BE3C, symBinAddr: 0x10001F544, symSize: 0x28 }
  - { offsetInCU: 0x46B2D, offset: 0x46B2D, size: 0x8, addend: 0x0, symName: __ZNSt3__114__split_bufferINS_7__stateIcEERNS_9allocatorIS2_EEE9__end_capB8ue170006Ev, symObjAddr: 0x1BE64, symBinAddr: 0x10001F56C, symSize: 0x28 }
  - { offsetInCU: 0x46B53, offset: 0x46B53, size: 0x8, addend: 0x0, symName: __ZNSt3__117__compressed_pairIPNS_7__stateIcEERNS_9allocatorIS2_EEEC2B8ue170006IDnS6_EEOT_OT0_, symObjAddr: 0x1BE8C, symBinAddr: 0x10001F594, symSize: 0x48 }
  - { offsetInCU: 0x46BAB, offset: 0x46BAB, size: 0x8, addend: 0x0, symName: __ZNSt3__122__compressed_pair_elemIRNS_9allocatorINS_7__stateIcEEEELi1ELb0EEC2B8ue170006IS5_vEEOT_, symObjAddr: 0x1BED4, symBinAddr: 0x10001F5DC, symSize: 0x20 }
  - { offsetInCU: 0x46BED, offset: 0x46BED, size: 0x8, addend: 0x0, symName: __ZNSt3__19allocatorINS_7__stateIcEEE8allocateB8ue170006Em, symObjAddr: 0x1BEF4, symBinAddr: 0x10001F5FC, symSize: 0x5C }
  - { offsetInCU: 0x46C21, offset: 0x46C21, size: 0x8, addend: 0x0, symName: __ZNSt3__117__compressed_pairIPNS_7__stateIcEERNS_9allocatorIS2_EEE6secondB8ue170006Ev, symObjAddr: 0x1BF50, symBinAddr: 0x10001F658, symSize: 0x28 }
  - { offsetInCU: 0x46C47, offset: 0x46C47, size: 0x8, addend: 0x0, symName: __ZNSt3__122__compressed_pair_elemIRNS_9allocatorINS_7__stateIcEEEELi1ELb0EE5__getB8ue170006Ev, symObjAddr: 0x1BF78, symBinAddr: 0x10001F680, symSize: 0x18 }
  - { offsetInCU: 0x46C6D, offset: 0x46C6D, size: 0x8, addend: 0x0, symName: __ZNSt3__117__compressed_pairIPNS_7__stateIcEERNS_9allocatorIS2_EEE5firstB8ue170006Ev, symObjAddr: 0x1BF90, symBinAddr: 0x10001F698, symSize: 0x24 }
  - { offsetInCU: 0x46C93, offset: 0x46C93, size: 0x8, addend: 0x0, symName: __ZNKSt3__16vectorINS_7__stateIcEENS_9allocatorIS2_EEE17__annotate_deleteB8ue170006Ev, symObjAddr: 0x1BFB4, symBinAddr: 0x10001F6BC, symSize: 0xD4 }
  - { offsetInCU: 0x46CB9, offset: 0x46CB9, size: 0x8, addend: 0x0, symName: __ZNSt3__116reverse_iteratorIPNS_7__stateIcEEEC1B8ue170006ES3_, symObjAddr: 0x1C1B4, symBinAddr: 0x10001F8BC, symSize: 0x34 }
  - { offsetInCU: 0x46CF1, offset: 0x46CF1, size: 0x8, addend: 0x0, symName: __ZNKSt3__116reverse_iteratorIPNS_7__stateIcEEE4baseB8ue170006Ev, symObjAddr: 0x1C1E8, symBinAddr: 0x10001F8F0, symSize: 0x18 }
  - { offsetInCU: 0x46D17, offset: 0x46D17, size: 0x8, addend: 0x0, symName: __ZNKSt3__16vectorINS_7__stateIcEENS_9allocatorIS2_EEE14__annotate_newB8ue170006Em, symObjAddr: 0x1C23C, symBinAddr: 0x10001F944, symSize: 0xC8 }
  - { offsetInCU: 0x46D4C, offset: 0x46D4C, size: 0x8, addend: 0x0, symName: __ZNKSt3__16vectorINS_7__stateIcEENS_9allocatorIS2_EEE31__annotate_contiguous_containerB8ue170006EPKvS7_S7_S7_, symObjAddr: 0x1C304, symBinAddr: 0x10001FA0C, symSize: 0x20 }
  - { offsetInCU: 0x46DA2, offset: 0x46DA2, size: 0x8, addend: 0x0, symName: __ZNKSt3__16vectorINS_7__stateIcEENS_9allocatorIS2_EEE4dataB8ue170006Ev, symObjAddr: 0x1C324, symBinAddr: 0x10001FA2C, symSize: 0x28 }
  - { offsetInCU: 0x46DC8, offset: 0x46DC8, size: 0x8, addend: 0x0, symName: __ZNSt3__129_AllocatorDestroyRangeReverseINS_9allocatorINS_7__stateIcEEEENS_16reverse_iteratorIPS3_EEEC1B8ue170006ERS4_RS7_SA_, symObjAddr: 0x1C398, symBinAddr: 0x10001FAA0, symSize: 0x44 }
  - { offsetInCU: 0x46E1F, offset: 0x46E1F, size: 0x8, addend: 0x0, symName: __ZNKSt3__116reverse_iteratorIPNS_7__stateIcEEEdeB8ue170006Ev, symObjAddr: 0x1C448, symBinAddr: 0x10001FB50, symSize: 0x28 }
  - { offsetInCU: 0x46E53, offset: 0x46E53, size: 0x8, addend: 0x0, symName: __ZNSt3__116reverse_iteratorIPNS_7__stateIcEEEppB8ue170006Ev, symObjAddr: 0x1C470, symBinAddr: 0x10001FB78, symSize: 0x20 }
  - { offsetInCU: 0x46E79, offset: 0x46E79, size: 0x8, addend: 0x0, symName: __ZNSt3__128__exception_guard_exceptionsINS_29_AllocatorDestroyRangeReverseINS_9allocatorINS_7__stateIcEEEENS_16reverse_iteratorIPS4_EEEEE10__completeB8ue170006Ev, symObjAddr: 0x1C490, symBinAddr: 0x10001FB98, symSize: 0x1C }
  - { offsetInCU: 0x46E9F, offset: 0x46E9F, size: 0x8, addend: 0x0, symName: __ZNSt3__128__exception_guard_exceptionsINS_29_AllocatorDestroyRangeReverseINS_9allocatorINS_7__stateIcEEEENS_16reverse_iteratorIPS4_EEEEED1B8ue170006Ev, symObjAddr: 0x1C4AC, symBinAddr: 0x10001FBB4, symSize: 0x2C }
  - { offsetInCU: 0x46EC9, offset: 0x46EC9, size: 0x8, addend: 0x0, symName: __ZNSt3__128__exception_guard_exceptionsINS_29_AllocatorDestroyRangeReverseINS_9allocatorINS_7__stateIcEEEENS_16reverse_iteratorIPS4_EEEEEC1B8ue170006ES9_, symObjAddr: 0x1C4D8, symBinAddr: 0x10001FBE0, symSize: 0x34 }
  - { offsetInCU: 0x46F02, offset: 0x46F02, size: 0x8, addend: 0x0, symName: __ZNSt3__128__exception_guard_exceptionsINS_29_AllocatorDestroyRangeReverseINS_9allocatorINS_7__stateIcEEEENS_16reverse_iteratorIPS4_EEEEEC2B8ue170006ES9_, symObjAddr: 0x1C50C, symBinAddr: 0x10001FC14, symSize: 0x30 }
  - { offsetInCU: 0x46F3B, offset: 0x46F3B, size: 0x8, addend: 0x0, symName: __ZNSt3__129_AllocatorDestroyRangeReverseINS_9allocatorINS_7__stateIcEEEENS_16reverse_iteratorIPS3_EEEC2B8ue170006ERS4_RS7_SA_, symObjAddr: 0x1C53C, symBinAddr: 0x10001FC44, symSize: 0x38 }
  - { offsetInCU: 0x46F98, offset: 0x46F98, size: 0x8, addend: 0x0, symName: __ZNSt3__119__to_address_helperINS_16reverse_iteratorIPNS_7__stateIcEEEEvE6__callB8ue170006ERKS5_, symObjAddr: 0x1C574, symBinAddr: 0x10001FC7C, symSize: 0x38 }
  - { offsetInCU: 0x46FBB, offset: 0x46FBB, size: 0x8, addend: 0x0, symName: __ZNKSt3__116reverse_iteratorIPNS_7__stateIcEEEptB8ue170006Ev, symObjAddr: 0x1C5AC, symBinAddr: 0x10001FCB4, symSize: 0x24 }
  - { offsetInCU: 0x46FE1, offset: 0x46FE1, size: 0x8, addend: 0x0, symName: __ZNSt3__128__exception_guard_exceptionsINS_29_AllocatorDestroyRangeReverseINS_9allocatorINS_7__stateIcEEEENS_16reverse_iteratorIPS4_EEEEED2B8ue170006Ev, symObjAddr: 0x1C5D0, symBinAddr: 0x10001FCD8, symSize: 0x50 }
  - { offsetInCU: 0x4700B, offset: 0x4700B, size: 0x8, addend: 0x0, symName: __ZNKSt3__129_AllocatorDestroyRangeReverseINS_9allocatorINS_7__stateIcEEEENS_16reverse_iteratorIPS3_EEEclB8ue170006Ev, symObjAddr: 0x1C620, symBinAddr: 0x10001FD28, symSize: 0xB4 }
  - { offsetInCU: 0x47032, offset: 0x47032, size: 0x8, addend: 0x0, symName: __ZNSt3__116reverse_iteratorINS0_IPNS_7__stateIcEEEEEC1B8ue170006ES4_, symObjAddr: 0x1C744, symBinAddr: 0x10001FE4C, symSize: 0x3C }
  - { offsetInCU: 0x4706A, offset: 0x4706A, size: 0x8, addend: 0x0, symName: __ZNSt3__116allocator_traitsINS_9allocatorINS_7__stateIcEEEEE7destroyB8ue170006IS3_vEEvRS4_PT_, symObjAddr: 0x1C7E0, symBinAddr: 0x10001FEE8, symSize: 0x2C }
  - { offsetInCU: 0x470A7, offset: 0x470A7, size: 0x8, addend: 0x0, symName: __ZNSt3__116reverse_iteratorINS0_IPNS_7__stateIcEEEEEppB8ue170006Ev, symObjAddr: 0x1C830, symBinAddr: 0x10001FF38, symSize: 0x30 }
  - { offsetInCU: 0x470CD, offset: 0x470CD, size: 0x8, addend: 0x0, symName: __ZNKSt3__116reverse_iteratorINS0_IPNS_7__stateIcEEEEE4baseB8ue170006Ev, symObjAddr: 0x1C860, symBinAddr: 0x10001FF68, symSize: 0x24 }
  - { offsetInCU: 0x470F3, offset: 0x470F3, size: 0x8, addend: 0x0, symName: __ZNSt3__19allocatorINS_7__stateIcEEE7destroyB8ue170006EPS2_, symObjAddr: 0x1C884, symBinAddr: 0x10001FF8C, symSize: 0x28 }
  - { offsetInCU: 0x4712D, offset: 0x4712D, size: 0x8, addend: 0x0, symName: __ZNSt3__119__to_address_helperINS_16reverse_iteratorINS1_IPNS_7__stateIcEEEEEEvE6__callB8ue170006ERKS6_, symObjAddr: 0x1C8AC, symBinAddr: 0x10001FFB4, symSize: 0x38 }
  - { offsetInCU: 0x47150, offset: 0x47150, size: 0x8, addend: 0x0, symName: __ZNKSt3__116reverse_iteratorINS0_IPNS_7__stateIcEEEEEptB8ue170006Ev, symObjAddr: 0x1C8E4, symBinAddr: 0x10001FFEC, symSize: 0x24 }
  - { offsetInCU: 0x47176, offset: 0x47176, size: 0x8, addend: 0x0, symName: __ZNKSt3__116reverse_iteratorINS0_IPNS_7__stateIcEEEEEdeB8ue170006Ev, symObjAddr: 0x1C908, symBinAddr: 0x100020010, symSize: 0x34 }
  - { offsetInCU: 0x471AA, offset: 0x471AA, size: 0x8, addend: 0x0, symName: __ZNSt3__116reverse_iteratorIPNS_7__stateIcEEEmmB8ue170006Ev, symObjAddr: 0x1C93C, symBinAddr: 0x100020044, symSize: 0x20 }
  - { offsetInCU: 0x471D0, offset: 0x471D0, size: 0x8, addend: 0x0, symName: __ZNSt3__116reverse_iteratorINS0_IPNS_7__stateIcEEEEEC2B8ue170006ES4_, symObjAddr: 0x1C95C, symBinAddr: 0x100020064, symSize: 0x2C }
  - { offsetInCU: 0x47208, offset: 0x47208, size: 0x8, addend: 0x0, symName: __ZNSt3__116reverse_iteratorIPNS_7__stateIcEEEC2B8ue170006ES3_, symObjAddr: 0x1C988, symBinAddr: 0x100020090, symSize: 0x28 }
  - { offsetInCU: 0x47240, offset: 0x47240, size: 0x8, addend: 0x0, symName: __ZNSt3__114__split_bufferINS_7__stateIcEERNS_9allocatorIS2_EEED2Ev, symObjAddr: 0x1C9B0, symBinAddr: 0x1000200B8, symSize: 0x8C }
  - { offsetInCU: 0x4726C, offset: 0x4726C, size: 0x8, addend: 0x0, symName: __ZNSt3__114__split_bufferINS_7__stateIcEERNS_9allocatorIS2_EEE5clearB8ue170006Ev, symObjAddr: 0x1CA3C, symBinAddr: 0x100020144, symSize: 0x28 }
  - { offsetInCU: 0x47292, offset: 0x47292, size: 0x8, addend: 0x0, symName: __ZNSt3__116allocator_traitsINS_9allocatorINS_7__stateIcEEEEE10deallocateB8ue170006ERS4_PS3_m, symObjAddr: 0x1CA64, symBinAddr: 0x10002016C, symSize: 0x34 }
  - { offsetInCU: 0x472D4, offset: 0x472D4, size: 0x8, addend: 0x0, symName: __ZNKSt3__114__split_bufferINS_7__stateIcEERNS_9allocatorIS2_EEE8capacityB8ue170006Ev, symObjAddr: 0x1CA98, symBinAddr: 0x1000201A0, symSize: 0x40 }
  - { offsetInCU: 0x472FA, offset: 0x472FA, size: 0x8, addend: 0x0, symName: __ZNSt3__114__split_bufferINS_7__stateIcEERNS_9allocatorIS2_EEE17__destruct_at_endB8ue170006EPS2_, symObjAddr: 0x1CAD8, symBinAddr: 0x1000201E0, symSize: 0x2C }
  - { offsetInCU: 0x4732E, offset: 0x4732E, size: 0x8, addend: 0x0, symName: __ZNSt3__114__split_bufferINS_7__stateIcEERNS_9allocatorIS2_EEE17__destruct_at_endB8ue170006EPS2_NS_17integral_constantIbLb0EEE, symObjAddr: 0x1CB04, symBinAddr: 0x10002020C, symSize: 0x80 }
  - { offsetInCU: 0x4736E, offset: 0x4736E, size: 0x8, addend: 0x0, symName: __ZNSt3__19allocatorINS_7__stateIcEEE10deallocateB8ue170006EPS2_m, symObjAddr: 0x1CB84, symBinAddr: 0x10002028C, symSize: 0x44 }
  - { offsetInCU: 0x473B0, offset: 0x473B0, size: 0x8, addend: 0x0, symName: __ZNKSt3__114__split_bufferINS_7__stateIcEERNS_9allocatorIS2_EEE9__end_capB8ue170006Ev, symObjAddr: 0x1CBC8, symBinAddr: 0x1000202D0, symSize: 0x28 }
  - { offsetInCU: 0x473D6, offset: 0x473D6, size: 0x8, addend: 0x0, symName: __ZNKSt3__117__compressed_pairIPNS_7__stateIcEERNS_9allocatorIS2_EEE5firstB8ue170006Ev, symObjAddr: 0x1CBF0, symBinAddr: 0x1000202F8, symSize: 0x24 }
  - { offsetInCU: 0x473FC, offset: 0x473FC, size: 0x8, addend: 0x0, symName: __ZNSt3__17__stateIcEC2B8ue170006Ev, symObjAddr: 0x1CC14, symBinAddr: 0x10002031C, symSize: 0x54 }
  - { offsetInCU: 0x47426, offset: 0x47426, size: 0x8, addend: 0x0, symName: __ZNSt3__16vectorINS_9sub_matchIPKcEENS_9allocatorIS4_EEEC1B8ue170006Ev, symObjAddr: 0x1CC68, symBinAddr: 0x100020370, symSize: 0x2C }
  - { offsetInCU: 0x47450, offset: 0x47450, size: 0x8, addend: 0x0, symName: __ZNSt3__16vectorINS_4pairImPKcEENS_9allocatorIS4_EEEC1B8ue170006Ev, symObjAddr: 0x1CC94, symBinAddr: 0x10002039C, symSize: 0x2C }
  - { offsetInCU: 0x4747A, offset: 0x4747A, size: 0x8, addend: 0x0, symName: __ZNSt3__16vectorINS_9sub_matchIPKcEENS_9allocatorIS4_EEEC2B8ue170006Ev, symObjAddr: 0x1CCC0, symBinAddr: 0x1000203C8, symSize: 0x4C }
  - { offsetInCU: 0x474A4, offset: 0x474A4, size: 0x8, addend: 0x0, symName: __ZNSt3__117__compressed_pairIPNS_9sub_matchIPKcEENS_9allocatorIS4_EEEC1B8ue170006IDnNS_18__default_init_tagEEEOT_OT0_, symObjAddr: 0x1CD0C, symBinAddr: 0x100020414, symSize: 0x3C }
  - { offsetInCU: 0x474FC, offset: 0x474FC, size: 0x8, addend: 0x0, symName: __ZNSt3__117__compressed_pairIPNS_9sub_matchIPKcEENS_9allocatorIS4_EEEC2B8ue170006IDnNS_18__default_init_tagEEEOT_OT0_, symObjAddr: 0x1CD48, symBinAddr: 0x100020450, symSize: 0x40 }
  - { offsetInCU: 0x47554, offset: 0x47554, size: 0x8, addend: 0x0, symName: __ZNSt3__122__compressed_pair_elemINS_9allocatorINS_9sub_matchIPKcEEEELi1ELb1EEC2B8ue170006ENS_18__default_init_tagE, symObjAddr: 0x1CD88, symBinAddr: 0x100020490, symSize: 0x2C }
  - { offsetInCU: 0x47588, offset: 0x47588, size: 0x8, addend: 0x0, symName: __ZNSt3__16vectorINS_4pairImPKcEENS_9allocatorIS4_EEEC2B8ue170006Ev, symObjAddr: 0x1CDB4, symBinAddr: 0x1000204BC, symSize: 0x4C }
  - { offsetInCU: 0x475B2, offset: 0x475B2, size: 0x8, addend: 0x0, symName: __ZNSt3__117__compressed_pairIPNS_4pairImPKcEENS_9allocatorIS4_EEEC1B8ue170006IDnNS_18__default_init_tagEEEOT_OT0_, symObjAddr: 0x1CE00, symBinAddr: 0x100020508, symSize: 0x3C }
  - { offsetInCU: 0x4760A, offset: 0x4760A, size: 0x8, addend: 0x0, symName: __ZNSt3__117__compressed_pairIPNS_4pairImPKcEENS_9allocatorIS4_EEEC2B8ue170006IDnNS_18__default_init_tagEEEOT_OT0_, symObjAddr: 0x1CE3C, symBinAddr: 0x100020544, symSize: 0x40 }
  - { offsetInCU: 0x47662, offset: 0x47662, size: 0x8, addend: 0x0, symName: __ZNSt3__122__compressed_pair_elemINS_9allocatorINS_4pairImPKcEEEELi1ELb1EEC2B8ue170006ENS_18__default_init_tagE, symObjAddr: 0x1CE7C, symBinAddr: 0x100020584, symSize: 0x2C }
  - { offsetInCU: 0x47696, offset: 0x47696, size: 0x8, addend: 0x0, symName: __ZNSt3__19allocatorINS_4pairImPKcEEEC2B8ue170006Ev, symObjAddr: 0x1CEA8, symBinAddr: 0x1000205B0, symSize: 0x2C }
  - { offsetInCU: 0x476C0, offset: 0x476C0, size: 0x8, addend: 0x0, symName: __ZNSt3__116__non_trivial_ifILb1ENS_9allocatorINS_4pairImPKcEEEEEC2B8ue170006Ev, symObjAddr: 0x1CED4, symBinAddr: 0x1000205DC, symSize: 0x14 }
  - { offsetInCU: 0x476EA, offset: 0x476EA, size: 0x8, addend: 0x0, symName: __ZNSt3__17__stateIcED2Ev, symObjAddr: 0x1CEE8, symBinAddr: 0x1000205F0, symSize: 0x3C }
  - { offsetInCU: 0x47717, offset: 0x47717, size: 0x8, addend: 0x0, symName: __ZNSt3__16vectorINS_4pairImPKcEENS_9allocatorIS4_EEED1B8ue170006Ev, symObjAddr: 0x1CF24, symBinAddr: 0x10002062C, symSize: 0x2C }
  - { offsetInCU: 0x47741, offset: 0x47741, size: 0x8, addend: 0x0, symName: __ZNSt3__16vectorINS_4pairImPKcEENS_9allocatorIS4_EEED2B8ue170006Ev, symObjAddr: 0x1CF50, symBinAddr: 0x100020658, symSize: 0x44 }
  - { offsetInCU: 0x4776B, offset: 0x4776B, size: 0x8, addend: 0x0, symName: __ZNSt3__16vectorINS_4pairImPKcEENS_9allocatorIS4_EEE16__destroy_vectorC1B8ue170006ERS7_, symObjAddr: 0x1CF94, symBinAddr: 0x10002069C, symSize: 0x34 }
  - { offsetInCU: 0x477A4, offset: 0x477A4, size: 0x8, addend: 0x0, symName: __ZNSt3__16vectorINS_4pairImPKcEENS_9allocatorIS4_EEE16__destroy_vectorclB8ue170006Ev, symObjAddr: 0x1CFC8, symBinAddr: 0x1000206D0, symSize: 0x90 }
  - { offsetInCU: 0x477CA, offset: 0x477CA, size: 0x8, addend: 0x0, symName: __ZNSt3__16vectorINS_4pairImPKcEENS_9allocatorIS4_EEE16__destroy_vectorC2B8ue170006ERS7_, symObjAddr: 0x1D058, symBinAddr: 0x100020760, symSize: 0x20 }
  - { offsetInCU: 0x47803, offset: 0x47803, size: 0x8, addend: 0x0, symName: __ZNSt3__16vectorINS_4pairImPKcEENS_9allocatorIS4_EEE7__clearB8ue170006Ev, symObjAddr: 0x1D078, symBinAddr: 0x100020780, symSize: 0x28 }
  - { offsetInCU: 0x47829, offset: 0x47829, size: 0x8, addend: 0x0, symName: __ZNKSt3__16vectorINS_4pairImPKcEENS_9allocatorIS4_EEE17__annotate_deleteB8ue170006Ev, symObjAddr: 0x1D0A0, symBinAddr: 0x1000207A8, symSize: 0xB8 }
  - { offsetInCU: 0x4784F, offset: 0x4784F, size: 0x8, addend: 0x0, symName: __ZNSt3__116allocator_traitsINS_9allocatorINS_4pairImPKcEEEEE10deallocateB8ue170006ERS6_PS5_m, symObjAddr: 0x1D158, symBinAddr: 0x100020860, symSize: 0x34 }
  - { offsetInCU: 0x47891, offset: 0x47891, size: 0x8, addend: 0x0, symName: __ZNKSt3__16vectorINS_4pairImPKcEENS_9allocatorIS4_EEE8capacityB8ue170006Ev, symObjAddr: 0x1D18C, symBinAddr: 0x100020894, symSize: 0x40 }
  - { offsetInCU: 0x478B7, offset: 0x478B7, size: 0x8, addend: 0x0, symName: __ZNSt3__16vectorINS_4pairImPKcEENS_9allocatorIS4_EEE22__base_destruct_at_endB8ue170006EPS4_, symObjAddr: 0x1D1CC, symBinAddr: 0x1000208D4, symSize: 0x8C }
  - { offsetInCU: 0x478FB, offset: 0x478FB, size: 0x8, addend: 0x0, symName: __ZNSt3__116allocator_traitsINS_9allocatorINS_4pairImPKcEEEEE7destroyB8ue170006IS5_vEEvRS6_PT_, symObjAddr: 0x1D258, symBinAddr: 0x100020960, symSize: 0x2C }
  - { offsetInCU: 0x47938, offset: 0x47938, size: 0x8, addend: 0x0, symName: __ZNSt3__19allocatorINS_4pairImPKcEEE7destroyB8ue170006EPS4_, symObjAddr: 0x1D298, symBinAddr: 0x1000209A0, symSize: 0x14 }
  - { offsetInCU: 0x4796C, offset: 0x4796C, size: 0x8, addend: 0x0, symName: __ZNKSt3__16vectorINS_4pairImPKcEENS_9allocatorIS4_EEE31__annotate_contiguous_containerB8ue170006EPKvS9_S9_S9_, symObjAddr: 0x1D2AC, symBinAddr: 0x1000209B4, symSize: 0x20 }
  - { offsetInCU: 0x479C2, offset: 0x479C2, size: 0x8, addend: 0x0, symName: __ZNKSt3__16vectorINS_4pairImPKcEENS_9allocatorIS4_EEE4dataB8ue170006Ev, symObjAddr: 0x1D2CC, symBinAddr: 0x1000209D4, symSize: 0x28 }
  - { offsetInCU: 0x479E8, offset: 0x479E8, size: 0x8, addend: 0x0, symName: __ZNKSt3__16vectorINS_4pairImPKcEENS_9allocatorIS4_EEE4sizeB8ue170006Ev, symObjAddr: 0x1D2F4, symBinAddr: 0x1000209FC, symSize: 0x28 }
  - { offsetInCU: 0x47A0E, offset: 0x47A0E, size: 0x8, addend: 0x0, symName: __ZNSt3__19allocatorINS_4pairImPKcEEE10deallocateB8ue170006EPS4_m, symObjAddr: 0x1D31C, symBinAddr: 0x100020A24, symSize: 0x40 }
  - { offsetInCU: 0x47A50, offset: 0x47A50, size: 0x8, addend: 0x0, symName: __ZNKSt3__16vectorINS_4pairImPKcEENS_9allocatorIS4_EEE9__end_capB8ue170006Ev, symObjAddr: 0x1D35C, symBinAddr: 0x100020A64, symSize: 0x28 }
  - { offsetInCU: 0x47A76, offset: 0x47A76, size: 0x8, addend: 0x0, symName: __ZNKSt3__117__compressed_pairIPNS_4pairImPKcEENS_9allocatorIS4_EEE5firstB8ue170006Ev, symObjAddr: 0x1D384, symBinAddr: 0x100020A8C, symSize: 0x24 }
  - { offsetInCU: 0x47A9C, offset: 0x47A9C, size: 0x8, addend: 0x0, symName: __ZNKSt3__122__compressed_pair_elemIPNS_4pairImPKcEELi0ELb0EE5__getB8ue170006Ev, symObjAddr: 0x1D3A8, symBinAddr: 0x100020AB0, symSize: 0x14 }
  - { offsetInCU: 0x47AC2, offset: 0x47AC2, size: 0x8, addend: 0x0, symName: __ZNSt3__16vectorINS_9sub_matchIPKcEENS_9allocatorIS4_EEE8__appendEmRKS4_, symObjAddr: 0x1D3BC, symBinAddr: 0x100020AC4, symSize: 0x114 }
  - { offsetInCU: 0x47B2C, offset: 0x47B2C, size: 0x8, addend: 0x0, symName: __ZNSt3__16vectorINS_9sub_matchIPKcEENS_9allocatorIS4_EEE17__destruct_at_endB8ue170006EPS4_, symObjAddr: 0x1D4D0, symBinAddr: 0x100020BD8, symSize: 0x4C }
  - { offsetInCU: 0x47B70, offset: 0x47B70, size: 0x8, addend: 0x0, symName: __ZNSt3__16vectorINS_9sub_matchIPKcEENS_9allocatorIS4_EEE18__construct_at_endEmRKS4_, symObjAddr: 0x1D51C, symBinAddr: 0x100020C24, symSize: 0xD0 }
  - { offsetInCU: 0x47BF1, offset: 0x47BF1, size: 0x8, addend: 0x0, symName: __ZNKSt3__16vectorINS_9sub_matchIPKcEENS_9allocatorIS4_EEE11__recommendB8ue170006Em, symObjAddr: 0x1D5EC, symBinAddr: 0x100020CF4, symSize: 0xB4 }
  - { offsetInCU: 0x47C46, offset: 0x47C46, size: 0x8, addend: 0x0, symName: __ZNSt3__114__split_bufferINS_9sub_matchIPKcEERNS_9allocatorIS4_EEEC1EmmS7_, symObjAddr: 0x1D6A0, symBinAddr: 0x100020DA8, symSize: 0x44 }
  - { offsetInCU: 0x47C9C, offset: 0x47C9C, size: 0x8, addend: 0x0, symName: __ZNSt3__114__split_bufferINS_9sub_matchIPKcEERNS_9allocatorIS4_EEE18__construct_at_endEmRKS4_, symObjAddr: 0x1D6E4, symBinAddr: 0x100020DEC, symSize: 0xBC }
  - { offsetInCU: 0x47CEF, offset: 0x47CEF, size: 0x8, addend: 0x0, symName: __ZNSt3__114__split_bufferINS_9sub_matchIPKcEERNS_9allocatorIS4_EEED1Ev, symObjAddr: 0x1D8B0, symBinAddr: 0x100020FB8, symSize: 0x2C }
  - { offsetInCU: 0x47D37, offset: 0x47D37, size: 0x8, addend: 0x0, symName: __ZNSt3__16vectorINS_9sub_matchIPKcEENS_9allocatorIS4_EEE21_ConstructTransactionC1B8ue170006ERS7_m, symObjAddr: 0x1D8DC, symBinAddr: 0x100020FE4, symSize: 0x3C }
  - { offsetInCU: 0x47D7F, offset: 0x47D7F, size: 0x8, addend: 0x0, symName: __ZNSt3__116allocator_traitsINS_9allocatorINS_9sub_matchIPKcEEEEE9constructB8ue170006IS5_JRKS5_EvEEvRS6_PT_DpOT0_, symObjAddr: 0x1D918, symBinAddr: 0x100021020, symSize: 0x34 }
  - { offsetInCU: 0x47DD6, offset: 0x47DD6, size: 0x8, addend: 0x0, symName: __ZNSt3__16vectorINS_9sub_matchIPKcEENS_9allocatorIS4_EEE21_ConstructTransactionD1B8ue170006Ev, symObjAddr: 0x1D94C, symBinAddr: 0x100021054, symSize: 0x2C }
  - { offsetInCU: 0x47E00, offset: 0x47E00, size: 0x8, addend: 0x0, symName: __ZNSt3__16vectorINS_9sub_matchIPKcEENS_9allocatorIS4_EEE21_ConstructTransactionC2B8ue170006ERS7_m, symObjAddr: 0x1D978, symBinAddr: 0x100021080, symSize: 0x4C }
  - { offsetInCU: 0x47E48, offset: 0x47E48, size: 0x8, addend: 0x0, symName: __ZNSt3__19allocatorINS_9sub_matchIPKcEEE9constructB8ue170006IS4_JRKS4_EEEvPT_DpOT0_, symObjAddr: 0x1D9C4, symBinAddr: 0x1000210CC, symSize: 0x30 }
  - { offsetInCU: 0x47E9E, offset: 0x47E9E, size: 0x8, addend: 0x0, symName: __ZNSt3__16vectorINS_9sub_matchIPKcEENS_9allocatorIS4_EEE21_ConstructTransactionD2B8ue170006Ev, symObjAddr: 0x1D9F4, symBinAddr: 0x1000210FC, symSize: 0x20 }
  - { offsetInCU: 0x47EC8, offset: 0x47EC8, size: 0x8, addend: 0x0, symName: __ZNKSt3__16vectorINS_9sub_matchIPKcEENS_9allocatorIS4_EEE8max_sizeEv, symObjAddr: 0x1DA14, symBinAddr: 0x10002111C, symSize: 0x60 }
  - { offsetInCU: 0x47EF0, offset: 0x47EF0, size: 0x8, addend: 0x0, symName: __ZNKSt3__16vectorINS_9sub_matchIPKcEENS_9allocatorIS4_EEE20__throw_length_errorB8ue170006Ev, symObjAddr: 0x1DA74, symBinAddr: 0x10002117C, symSize: 0x1C }
  - { offsetInCU: 0x47F21, offset: 0x47F21, size: 0x8, addend: 0x0, symName: __ZNSt3__116allocator_traitsINS_9allocatorINS_9sub_matchIPKcEEEEE8max_sizeB8ue170006IS6_vEEmRKS6_, symObjAddr: 0x1DA90, symBinAddr: 0x100021198, symSize: 0x24 }
  - { offsetInCU: 0x47F4F, offset: 0x47F4F, size: 0x8, addend: 0x0, symName: __ZNKSt3__16vectorINS_9sub_matchIPKcEENS_9allocatorIS4_EEE7__allocB8ue170006Ev, symObjAddr: 0x1DAB4, symBinAddr: 0x1000211BC, symSize: 0x28 }
  - { offsetInCU: 0x47F75, offset: 0x47F75, size: 0x8, addend: 0x0, symName: __ZNKSt3__19allocatorINS_9sub_matchIPKcEEE8max_sizeB8ue170006Ev, symObjAddr: 0x1DADC, symBinAddr: 0x1000211E4, symSize: 0x18 }
  - { offsetInCU: 0x47F9B, offset: 0x47F9B, size: 0x8, addend: 0x0, symName: __ZNKSt3__117__compressed_pairIPNS_9sub_matchIPKcEENS_9allocatorIS4_EEE6secondB8ue170006Ev, symObjAddr: 0x1DAF4, symBinAddr: 0x1000211FC, symSize: 0x24 }
  - { offsetInCU: 0x47FC1, offset: 0x47FC1, size: 0x8, addend: 0x0, symName: __ZNKSt3__122__compressed_pair_elemINS_9allocatorINS_9sub_matchIPKcEEEELi1ELb1EE5__getB8ue170006Ev, symObjAddr: 0x1DB18, symBinAddr: 0x100021220, symSize: 0x14 }
  - { offsetInCU: 0x47FE7, offset: 0x47FE7, size: 0x8, addend: 0x0, symName: __ZNSt3__114__split_bufferINS_9sub_matchIPKcEERNS_9allocatorIS4_EEEC2EmmS7_, symObjAddr: 0x1DB2C, symBinAddr: 0x100021234, symSize: 0xE0 }
  - { offsetInCU: 0x4805A, offset: 0x4805A, size: 0x8, addend: 0x0, symName: __ZNSt3__117__compressed_pairIPNS_9sub_matchIPKcEERNS_9allocatorIS4_EEEC1B8ue170006IDnS8_EEOT_OT0_, symObjAddr: 0x1DC0C, symBinAddr: 0x100021314, symSize: 0x3C }
  - { offsetInCU: 0x480B2, offset: 0x480B2, size: 0x8, addend: 0x0, symName: __ZNSt3__114__split_bufferINS_9sub_matchIPKcEERNS_9allocatorIS4_EEE7__allocB8ue170006Ev, symObjAddr: 0x1DC88, symBinAddr: 0x100021390, symSize: 0x28 }
  - { offsetInCU: 0x480D8, offset: 0x480D8, size: 0x8, addend: 0x0, symName: __ZNSt3__114__split_bufferINS_9sub_matchIPKcEERNS_9allocatorIS4_EEE9__end_capB8ue170006Ev, symObjAddr: 0x1DCB0, symBinAddr: 0x1000213B8, symSize: 0x28 }
  - { offsetInCU: 0x480FE, offset: 0x480FE, size: 0x8, addend: 0x0, symName: __ZNSt3__117__compressed_pairIPNS_9sub_matchIPKcEERNS_9allocatorIS4_EEEC2B8ue170006IDnS8_EEOT_OT0_, symObjAddr: 0x1DCD8, symBinAddr: 0x1000213E0, symSize: 0x48 }
  - { offsetInCU: 0x48156, offset: 0x48156, size: 0x8, addend: 0x0, symName: __ZNSt3__122__compressed_pair_elemIRNS_9allocatorINS_9sub_matchIPKcEEEELi1ELb0EEC2B8ue170006IS7_vEEOT_, symObjAddr: 0x1DD20, symBinAddr: 0x100021428, symSize: 0x20 }
  - { offsetInCU: 0x48198, offset: 0x48198, size: 0x8, addend: 0x0, symName: __ZNSt3__19allocatorINS_9sub_matchIPKcEEE8allocateB8ue170006Em, symObjAddr: 0x1DD40, symBinAddr: 0x100021448, symSize: 0x5C }
  - { offsetInCU: 0x481CC, offset: 0x481CC, size: 0x8, addend: 0x0, symName: __ZNSt3__117__compressed_pairIPNS_9sub_matchIPKcEERNS_9allocatorIS4_EEE6secondB8ue170006Ev, symObjAddr: 0x1DD9C, symBinAddr: 0x1000214A4, symSize: 0x28 }
  - { offsetInCU: 0x481F2, offset: 0x481F2, size: 0x8, addend: 0x0, symName: __ZNSt3__122__compressed_pair_elemIRNS_9allocatorINS_9sub_matchIPKcEEEELi1ELb0EE5__getB8ue170006Ev, symObjAddr: 0x1DDC4, symBinAddr: 0x1000214CC, symSize: 0x18 }
  - { offsetInCU: 0x48218, offset: 0x48218, size: 0x8, addend: 0x0, symName: __ZNSt3__117__compressed_pairIPNS_9sub_matchIPKcEERNS_9allocatorIS4_EEE5firstB8ue170006Ev, symObjAddr: 0x1DDDC, symBinAddr: 0x1000214E4, symSize: 0x24 }
  - { offsetInCU: 0x4824A, offset: 0x4824A, size: 0x8, addend: 0x0, symName: __ZNSt3__114__split_bufferINS_9sub_matchIPKcEERNS_9allocatorIS4_EEE21_ConstructTransactionC1B8ue170006EPPS4_m, symObjAddr: 0x1DE00, symBinAddr: 0x100021508, symSize: 0x3C }
  - { offsetInCU: 0x48290, offset: 0x48290, size: 0x8, addend: 0x0, symName: __ZNSt3__114__split_bufferINS_9sub_matchIPKcEERNS_9allocatorIS4_EEE21_ConstructTransactionD1B8ue170006Ev, symObjAddr: 0x1DE3C, symBinAddr: 0x100021544, symSize: 0x2C }
  - { offsetInCU: 0x482BA, offset: 0x482BA, size: 0x8, addend: 0x0, symName: __ZNSt3__114__split_bufferINS_9sub_matchIPKcEERNS_9allocatorIS4_EEE21_ConstructTransactionC2B8ue170006EPPS4_m, symObjAddr: 0x1DE68, symBinAddr: 0x100021570, symSize: 0x4C }
  - { offsetInCU: 0x48300, offset: 0x48300, size: 0x8, addend: 0x0, symName: __ZNSt3__114__split_bufferINS_9sub_matchIPKcEERNS_9allocatorIS4_EEE21_ConstructTransactionD2B8ue170006Ev, symObjAddr: 0x1DEB4, symBinAddr: 0x1000215BC, symSize: 0x20 }
  - { offsetInCU: 0x4832A, offset: 0x4832A, size: 0x8, addend: 0x0, symName: __ZNSt3__116reverse_iteratorIPNS_9sub_matchIPKcEEEC1B8ue170006ES5_, symObjAddr: 0x1E000, symBinAddr: 0x100021708, symSize: 0x34 }
  - { offsetInCU: 0x48362, offset: 0x48362, size: 0x8, addend: 0x0, symName: __ZNKSt3__116reverse_iteratorIPNS_9sub_matchIPKcEEE4baseB8ue170006Ev, symObjAddr: 0x1E034, symBinAddr: 0x10002173C, symSize: 0x18 }
  - { offsetInCU: 0x48388, offset: 0x48388, size: 0x8, addend: 0x0, symName: __ZNKSt3__16vectorINS_9sub_matchIPKcEENS_9allocatorIS4_EEE14__annotate_newB8ue170006Em, symObjAddr: 0x1E088, symBinAddr: 0x100021790, symSize: 0xC8 }
  - { offsetInCU: 0x483BD, offset: 0x483BD, size: 0x8, addend: 0x0, symName: __ZNSt3__129_AllocatorDestroyRangeReverseINS_9allocatorINS_9sub_matchIPKcEEEENS_16reverse_iteratorIPS5_EEEC1B8ue170006ERS6_RS9_SC_, symObjAddr: 0x1E19C, symBinAddr: 0x1000218A4, symSize: 0x44 }
  - { offsetInCU: 0x4841A, offset: 0x4841A, size: 0x8, addend: 0x0, symName: __ZNSt3__116allocator_traitsINS_9allocatorINS_9sub_matchIPKcEEEEE9constructB8ue170006IS5_JS5_EvEEvRS6_PT_DpOT0_, symObjAddr: 0x1E228, symBinAddr: 0x100021930, symSize: 0x34 }
  - { offsetInCU: 0x48471, offset: 0x48471, size: 0x8, addend: 0x0, symName: __ZNKSt3__116reverse_iteratorIPNS_9sub_matchIPKcEEEdeB8ue170006Ev, symObjAddr: 0x1E280, symBinAddr: 0x100021988, symSize: 0x28 }
  - { offsetInCU: 0x484A5, offset: 0x484A5, size: 0x8, addend: 0x0, symName: __ZNSt3__116reverse_iteratorIPNS_9sub_matchIPKcEEEppB8ue170006Ev, symObjAddr: 0x1E2A8, symBinAddr: 0x1000219B0, symSize: 0x20 }
  - { offsetInCU: 0x484CB, offset: 0x484CB, size: 0x8, addend: 0x0, symName: __ZNSt3__128__exception_guard_exceptionsINS_29_AllocatorDestroyRangeReverseINS_9allocatorINS_9sub_matchIPKcEEEENS_16reverse_iteratorIPS6_EEEEE10__completeB8ue170006Ev, symObjAddr: 0x1E2C8, symBinAddr: 0x1000219D0, symSize: 0x1C }
  - { offsetInCU: 0x484F1, offset: 0x484F1, size: 0x8, addend: 0x0, symName: __ZNSt3__128__exception_guard_exceptionsINS_29_AllocatorDestroyRangeReverseINS_9allocatorINS_9sub_matchIPKcEEEENS_16reverse_iteratorIPS6_EEEEED1B8ue170006Ev, symObjAddr: 0x1E2E4, symBinAddr: 0x1000219EC, symSize: 0x2C }
  - { offsetInCU: 0x4851B, offset: 0x4851B, size: 0x8, addend: 0x0, symName: __ZNSt3__128__exception_guard_exceptionsINS_29_AllocatorDestroyRangeReverseINS_9allocatorINS_9sub_matchIPKcEEEENS_16reverse_iteratorIPS6_EEEEEC1B8ue170006ESB_, symObjAddr: 0x1E310, symBinAddr: 0x100021A18, symSize: 0x34 }
  - { offsetInCU: 0x48554, offset: 0x48554, size: 0x8, addend: 0x0, symName: __ZNSt3__128__exception_guard_exceptionsINS_29_AllocatorDestroyRangeReverseINS_9allocatorINS_9sub_matchIPKcEEEENS_16reverse_iteratorIPS6_EEEEEC2B8ue170006ESB_, symObjAddr: 0x1E344, symBinAddr: 0x100021A4C, symSize: 0x30 }
  - { offsetInCU: 0x4858D, offset: 0x4858D, size: 0x8, addend: 0x0, symName: __ZNSt3__129_AllocatorDestroyRangeReverseINS_9allocatorINS_9sub_matchIPKcEEEENS_16reverse_iteratorIPS5_EEEC2B8ue170006ERS6_RS9_SC_, symObjAddr: 0x1E374, symBinAddr: 0x100021A7C, symSize: 0x38 }
  - { offsetInCU: 0x485E4, offset: 0x485E4, size: 0x8, addend: 0x0, symName: __ZNSt3__19allocatorINS_9sub_matchIPKcEEE9constructB8ue170006IS4_JS4_EEEvPT_DpOT0_, symObjAddr: 0x1E3AC, symBinAddr: 0x100021AB4, symSize: 0x30 }
  - { offsetInCU: 0x48640, offset: 0x48640, size: 0x8, addend: 0x0, symName: __ZNSt3__119__to_address_helperINS_16reverse_iteratorIPNS_9sub_matchIPKcEEEEvE6__callB8ue170006ERKS7_, symObjAddr: 0x1E3DC, symBinAddr: 0x100021AE4, symSize: 0x38 }
  - { offsetInCU: 0x48663, offset: 0x48663, size: 0x8, addend: 0x0, symName: __ZNKSt3__116reverse_iteratorIPNS_9sub_matchIPKcEEEptB8ue170006Ev, symObjAddr: 0x1E414, symBinAddr: 0x100021B1C, symSize: 0x24 }
  - { offsetInCU: 0x48689, offset: 0x48689, size: 0x8, addend: 0x0, symName: __ZNSt3__128__exception_guard_exceptionsINS_29_AllocatorDestroyRangeReverseINS_9allocatorINS_9sub_matchIPKcEEEENS_16reverse_iteratorIPS6_EEEEED2B8ue170006Ev, symObjAddr: 0x1E438, symBinAddr: 0x100021B40, symSize: 0x50 }
  - { offsetInCU: 0x486B3, offset: 0x486B3, size: 0x8, addend: 0x0, symName: __ZNKSt3__129_AllocatorDestroyRangeReverseINS_9allocatorINS_9sub_matchIPKcEEEENS_16reverse_iteratorIPS5_EEEclB8ue170006Ev, symObjAddr: 0x1E488, symBinAddr: 0x100021B90, symSize: 0xB4 }
  - { offsetInCU: 0x486DA, offset: 0x486DA, size: 0x8, addend: 0x0, symName: __ZNSt3__116reverse_iteratorINS0_IPNS_9sub_matchIPKcEEEEEC1B8ue170006ES6_, symObjAddr: 0x1E5AC, symBinAddr: 0x100021CB4, symSize: 0x3C }
  - { offsetInCU: 0x48712, offset: 0x48712, size: 0x8, addend: 0x0, symName: __ZNSt3__116reverse_iteratorINS0_IPNS_9sub_matchIPKcEEEEEppB8ue170006Ev, symObjAddr: 0x1E66C, symBinAddr: 0x100021D74, symSize: 0x30 }
  - { offsetInCU: 0x48738, offset: 0x48738, size: 0x8, addend: 0x0, symName: __ZNKSt3__116reverse_iteratorINS0_IPNS_9sub_matchIPKcEEEEE4baseB8ue170006Ev, symObjAddr: 0x1E69C, symBinAddr: 0x100021DA4, symSize: 0x24 }
  - { offsetInCU: 0x48764, offset: 0x48764, size: 0x8, addend: 0x0, symName: __ZNSt3__119__to_address_helperINS_16reverse_iteratorINS1_IPNS_9sub_matchIPKcEEEEEEvE6__callB8ue170006ERKS8_, symObjAddr: 0x1E6C0, symBinAddr: 0x100021DC8, symSize: 0x38 }
  - { offsetInCU: 0x48787, offset: 0x48787, size: 0x8, addend: 0x0, symName: __ZNKSt3__116reverse_iteratorINS0_IPNS_9sub_matchIPKcEEEEEptB8ue170006Ev, symObjAddr: 0x1E6F8, symBinAddr: 0x100021E00, symSize: 0x24 }
  - { offsetInCU: 0x487AD, offset: 0x487AD, size: 0x8, addend: 0x0, symName: __ZNKSt3__116reverse_iteratorINS0_IPNS_9sub_matchIPKcEEEEEdeB8ue170006Ev, symObjAddr: 0x1E71C, symBinAddr: 0x100021E24, symSize: 0x34 }
  - { offsetInCU: 0x487E1, offset: 0x487E1, size: 0x8, addend: 0x0, symName: __ZNSt3__116reverse_iteratorIPNS_9sub_matchIPKcEEEmmB8ue170006Ev, symObjAddr: 0x1E750, symBinAddr: 0x100021E58, symSize: 0x20 }
  - { offsetInCU: 0x48807, offset: 0x48807, size: 0x8, addend: 0x0, symName: __ZNSt3__116reverse_iteratorINS0_IPNS_9sub_matchIPKcEEEEEC2B8ue170006ES6_, symObjAddr: 0x1E770, symBinAddr: 0x100021E78, symSize: 0x2C }
  - { offsetInCU: 0x4883F, offset: 0x4883F, size: 0x8, addend: 0x0, symName: __ZNSt3__116reverse_iteratorIPNS_9sub_matchIPKcEEEC2B8ue170006ES5_, symObjAddr: 0x1E79C, symBinAddr: 0x100021EA4, symSize: 0x28 }
  - { offsetInCU: 0x48877, offset: 0x48877, size: 0x8, addend: 0x0, symName: __ZNSt3__114__split_bufferINS_9sub_matchIPKcEERNS_9allocatorIS4_EEED2Ev, symObjAddr: 0x1E7C4, symBinAddr: 0x100021ECC, symSize: 0x8C }
  - { offsetInCU: 0x488A3, offset: 0x488A3, size: 0x8, addend: 0x0, symName: __ZNSt3__114__split_bufferINS_9sub_matchIPKcEERNS_9allocatorIS4_EEE5clearB8ue170006Ev, symObjAddr: 0x1E850, symBinAddr: 0x100021F58, symSize: 0x28 }
  - { offsetInCU: 0x488C9, offset: 0x488C9, size: 0x8, addend: 0x0, symName: __ZNKSt3__114__split_bufferINS_9sub_matchIPKcEERNS_9allocatorIS4_EEE8capacityB8ue170006Ev, symObjAddr: 0x1E878, symBinAddr: 0x100021F80, symSize: 0x40 }
  - { offsetInCU: 0x488EF, offset: 0x488EF, size: 0x8, addend: 0x0, symName: __ZNSt3__114__split_bufferINS_9sub_matchIPKcEERNS_9allocatorIS4_EEE17__destruct_at_endB8ue170006EPS4_, symObjAddr: 0x1E8B8, symBinAddr: 0x100021FC0, symSize: 0x2C }
  - { offsetInCU: 0x48923, offset: 0x48923, size: 0x8, addend: 0x0, symName: __ZNSt3__114__split_bufferINS_9sub_matchIPKcEERNS_9allocatorIS4_EEE17__destruct_at_endB8ue170006EPS4_NS_17integral_constantIbLb0EEE, symObjAddr: 0x1E8E4, symBinAddr: 0x100021FEC, symSize: 0x80 }
  - { offsetInCU: 0x48963, offset: 0x48963, size: 0x8, addend: 0x0, symName: __ZNKSt3__114__split_bufferINS_9sub_matchIPKcEERNS_9allocatorIS4_EEE9__end_capB8ue170006Ev, symObjAddr: 0x1E964, symBinAddr: 0x10002206C, symSize: 0x28 }
  - { offsetInCU: 0x48989, offset: 0x48989, size: 0x8, addend: 0x0, symName: __ZNKSt3__117__compressed_pairIPNS_9sub_matchIPKcEERNS_9allocatorIS4_EEE5firstB8ue170006Ev, symObjAddr: 0x1E98C, symBinAddr: 0x100022094, symSize: 0x24 }
  - { offsetInCU: 0x489AF, offset: 0x489AF, size: 0x8, addend: 0x0, symName: __ZNKSt3__16vectorINS_9sub_matchIPKcEENS_9allocatorIS4_EEE17__annotate_shrinkB8ue170006Em, symObjAddr: 0x1E9B0, symBinAddr: 0x1000220B8, symSize: 0xD0 }
  - { offsetInCU: 0x489E4, offset: 0x489E4, size: 0x8, addend: 0x0, symName: __ZNSt3__16vectorINS_4pairImPKcEENS_9allocatorIS4_EEE8__appendEm, symObjAddr: 0x1EA80, symBinAddr: 0x100022188, symSize: 0x108 }
  - { offsetInCU: 0x48A3F, offset: 0x48A3F, size: 0x8, addend: 0x0, symName: __ZNSt3__16vectorINS_4pairImPKcEENS_9allocatorIS4_EEE17__destruct_at_endB8ue170006EPS4_, symObjAddr: 0x1EB88, symBinAddr: 0x100022290, symSize: 0x4C }
  - { offsetInCU: 0x48A83, offset: 0x48A83, size: 0x8, addend: 0x0, symName: __ZNSt3__16vectorINS_4pairImPKcEENS_9allocatorIS4_EEE18__construct_at_endEm, symObjAddr: 0x1EBD4, symBinAddr: 0x1000222DC, symSize: 0xC8 }
  - { offsetInCU: 0x48AF5, offset: 0x48AF5, size: 0x8, addend: 0x0, symName: __ZNKSt3__16vectorINS_4pairImPKcEENS_9allocatorIS4_EEE11__recommendB8ue170006Em, symObjAddr: 0x1EC9C, symBinAddr: 0x1000223A4, symSize: 0xB4 }
  - { offsetInCU: 0x48B4A, offset: 0x48B4A, size: 0x8, addend: 0x0, symName: __ZNSt3__114__split_bufferINS_4pairImPKcEERNS_9allocatorIS4_EEEC1EmmS7_, symObjAddr: 0x1ED50, symBinAddr: 0x100022458, symSize: 0x44 }
  - { offsetInCU: 0x48BA0, offset: 0x48BA0, size: 0x8, addend: 0x0, symName: __ZNSt3__114__split_bufferINS_4pairImPKcEERNS_9allocatorIS4_EEE18__construct_at_endEm, symObjAddr: 0x1ED94, symBinAddr: 0x10002249C, symSize: 0xB4 }
  - { offsetInCU: 0x48BE5, offset: 0x48BE5, size: 0x8, addend: 0x0, symName: __ZNSt3__114__split_bufferINS_4pairImPKcEERNS_9allocatorIS4_EEED1Ev, symObjAddr: 0x1EF58, symBinAddr: 0x100022660, symSize: 0x2C }
  - { offsetInCU: 0x48C2D, offset: 0x48C2D, size: 0x8, addend: 0x0, symName: __ZNSt3__16vectorINS_4pairImPKcEENS_9allocatorIS4_EEE21_ConstructTransactionC1B8ue170006ERS7_m, symObjAddr: 0x1EF84, symBinAddr: 0x10002268C, symSize: 0x3C }
  - { offsetInCU: 0x48C75, offset: 0x48C75, size: 0x8, addend: 0x0, symName: __ZNSt3__116allocator_traitsINS_9allocatorINS_4pairImPKcEEEEE9constructB8ue170006IS5_JEvEEvRS6_PT_DpOT0_, symObjAddr: 0x1EFC0, symBinAddr: 0x1000226C8, symSize: 0x2C }
  - { offsetInCU: 0x48CB7, offset: 0x48CB7, size: 0x8, addend: 0x0, symName: __ZNSt3__16vectorINS_4pairImPKcEENS_9allocatorIS4_EEE21_ConstructTransactionD1B8ue170006Ev, symObjAddr: 0x1EFEC, symBinAddr: 0x1000226F4, symSize: 0x2C }
  - { offsetInCU: 0x48CE1, offset: 0x48CE1, size: 0x8, addend: 0x0, symName: __ZNSt3__16vectorINS_4pairImPKcEENS_9allocatorIS4_EEE21_ConstructTransactionC2B8ue170006ERS7_m, symObjAddr: 0x1F018, symBinAddr: 0x100022720, symSize: 0x44 }
  - { offsetInCU: 0x48D29, offset: 0x48D29, size: 0x8, addend: 0x0, symName: __ZNSt3__19allocatorINS_4pairImPKcEEE9constructB8ue170006IS4_JEEEvPT_DpOT0_, symObjAddr: 0x1F05C, symBinAddr: 0x100022764, symSize: 0x28 }
  - { offsetInCU: 0x48D6B, offset: 0x48D6B, size: 0x8, addend: 0x0, symName: __ZNSt3__14pairImPKcEC1B8ue170006ILb1ELPv0EEEv, symObjAddr: 0x1F084, symBinAddr: 0x10002278C, symSize: 0x2C }
  - { offsetInCU: 0x48DA5, offset: 0x48DA5, size: 0x8, addend: 0x0, symName: __ZNSt3__14pairImPKcEC2B8ue170006ILb1ELPv0EEEv, symObjAddr: 0x1F0B0, symBinAddr: 0x1000227B8, symSize: 0x1C }
  - { offsetInCU: 0x48DDF, offset: 0x48DDF, size: 0x8, addend: 0x0, symName: __ZNSt3__16vectorINS_4pairImPKcEENS_9allocatorIS4_EEE21_ConstructTransactionD2B8ue170006Ev, symObjAddr: 0x1F0CC, symBinAddr: 0x1000227D4, symSize: 0x20 }
  - { offsetInCU: 0x48E09, offset: 0x48E09, size: 0x8, addend: 0x0, symName: __ZNKSt3__16vectorINS_4pairImPKcEENS_9allocatorIS4_EEE8max_sizeEv, symObjAddr: 0x1F0EC, symBinAddr: 0x1000227F4, symSize: 0x60 }
  - { offsetInCU: 0x48E31, offset: 0x48E31, size: 0x8, addend: 0x0, symName: __ZNKSt3__16vectorINS_4pairImPKcEENS_9allocatorIS4_EEE20__throw_length_errorB8ue170006Ev, symObjAddr: 0x1F14C, symBinAddr: 0x100022854, symSize: 0x1C }
  - { offsetInCU: 0x48E62, offset: 0x48E62, size: 0x8, addend: 0x0, symName: __ZNSt3__116allocator_traitsINS_9allocatorINS_4pairImPKcEEEEE8max_sizeB8ue170006IS6_vEEmRKS6_, symObjAddr: 0x1F168, symBinAddr: 0x100022870, symSize: 0x24 }
  - { offsetInCU: 0x48E90, offset: 0x48E90, size: 0x8, addend: 0x0, symName: __ZNKSt3__16vectorINS_4pairImPKcEENS_9allocatorIS4_EEE7__allocB8ue170006Ev, symObjAddr: 0x1F18C, symBinAddr: 0x100022894, symSize: 0x28 }
  - { offsetInCU: 0x48EB6, offset: 0x48EB6, size: 0x8, addend: 0x0, symName: __ZNKSt3__19allocatorINS_4pairImPKcEEE8max_sizeB8ue170006Ev, symObjAddr: 0x1F1B4, symBinAddr: 0x1000228BC, symSize: 0x14 }
  - { offsetInCU: 0x48EDC, offset: 0x48EDC, size: 0x8, addend: 0x0, symName: __ZNKSt3__117__compressed_pairIPNS_4pairImPKcEENS_9allocatorIS4_EEE6secondB8ue170006Ev, symObjAddr: 0x1F1C8, symBinAddr: 0x1000228D0, symSize: 0x24 }
  - { offsetInCU: 0x48F02, offset: 0x48F02, size: 0x8, addend: 0x0, symName: __ZNKSt3__122__compressed_pair_elemINS_9allocatorINS_4pairImPKcEEEELi1ELb1EE5__getB8ue170006Ev, symObjAddr: 0x1F1EC, symBinAddr: 0x1000228F4, symSize: 0x14 }
  - { offsetInCU: 0x48F28, offset: 0x48F28, size: 0x8, addend: 0x0, symName: __ZNSt3__114__split_bufferINS_4pairImPKcEERNS_9allocatorIS4_EEEC2EmmS7_, symObjAddr: 0x1F200, symBinAddr: 0x100022908, symSize: 0xD4 }
  - { offsetInCU: 0x48F9B, offset: 0x48F9B, size: 0x8, addend: 0x0, symName: __ZNSt3__117__compressed_pairIPNS_4pairImPKcEERNS_9allocatorIS4_EEEC1B8ue170006IDnS8_EEOT_OT0_, symObjAddr: 0x1F2D4, symBinAddr: 0x1000229DC, symSize: 0x3C }
  - { offsetInCU: 0x48FF3, offset: 0x48FF3, size: 0x8, addend: 0x0, symName: __ZNSt3__114__split_bufferINS_4pairImPKcEERNS_9allocatorIS4_EEE7__allocB8ue170006Ev, symObjAddr: 0x1F350, symBinAddr: 0x100022A58, symSize: 0x28 }
  - { offsetInCU: 0x49019, offset: 0x49019, size: 0x8, addend: 0x0, symName: __ZNSt3__114__split_bufferINS_4pairImPKcEERNS_9allocatorIS4_EEE9__end_capB8ue170006Ev, symObjAddr: 0x1F378, symBinAddr: 0x100022A80, symSize: 0x28 }
  - { offsetInCU: 0x4903F, offset: 0x4903F, size: 0x8, addend: 0x0, symName: __ZNSt3__117__compressed_pairIPNS_4pairImPKcEERNS_9allocatorIS4_EEEC2B8ue170006IDnS8_EEOT_OT0_, symObjAddr: 0x1F3A0, symBinAddr: 0x100022AA8, symSize: 0x48 }
  - { offsetInCU: 0x49097, offset: 0x49097, size: 0x8, addend: 0x0, symName: __ZNSt3__122__compressed_pair_elemIRNS_9allocatorINS_4pairImPKcEEEELi1ELb0EEC2B8ue170006IS7_vEEOT_, symObjAddr: 0x1F3E8, symBinAddr: 0x100022AF0, symSize: 0x20 }
  - { offsetInCU: 0x490D9, offset: 0x490D9, size: 0x8, addend: 0x0, symName: __ZNSt3__19allocatorINS_4pairImPKcEEE8allocateB8ue170006Em, symObjAddr: 0x1F408, symBinAddr: 0x100022B10, symSize: 0x58 }
  - { offsetInCU: 0x4910D, offset: 0x4910D, size: 0x8, addend: 0x0, symName: __ZNSt3__117__compressed_pairIPNS_4pairImPKcEERNS_9allocatorIS4_EEE6secondB8ue170006Ev, symObjAddr: 0x1F460, symBinAddr: 0x100022B68, symSize: 0x28 }
  - { offsetInCU: 0x49133, offset: 0x49133, size: 0x8, addend: 0x0, symName: __ZNSt3__122__compressed_pair_elemIRNS_9allocatorINS_4pairImPKcEEEELi1ELb0EE5__getB8ue170006Ev, symObjAddr: 0x1F488, symBinAddr: 0x100022B90, symSize: 0x18 }
  - { offsetInCU: 0x49159, offset: 0x49159, size: 0x8, addend: 0x0, symName: __ZNSt3__117__compressed_pairIPNS_4pairImPKcEERNS_9allocatorIS4_EEE5firstB8ue170006Ev, symObjAddr: 0x1F4A0, symBinAddr: 0x100022BA8, symSize: 0x24 }
  - { offsetInCU: 0x4918B, offset: 0x4918B, size: 0x8, addend: 0x0, symName: __ZNSt3__114__split_bufferINS_4pairImPKcEERNS_9allocatorIS4_EEE21_ConstructTransactionC1B8ue170006EPPS4_m, symObjAddr: 0x1F4C4, symBinAddr: 0x100022BCC, symSize: 0x3C }
  - { offsetInCU: 0x491D1, offset: 0x491D1, size: 0x8, addend: 0x0, symName: __ZNSt3__114__split_bufferINS_4pairImPKcEERNS_9allocatorIS4_EEE21_ConstructTransactionD1B8ue170006Ev, symObjAddr: 0x1F500, symBinAddr: 0x100022C08, symSize: 0x2C }
  - { offsetInCU: 0x491FB, offset: 0x491FB, size: 0x8, addend: 0x0, symName: __ZNSt3__114__split_bufferINS_4pairImPKcEERNS_9allocatorIS4_EEE21_ConstructTransactionC2B8ue170006EPPS4_m, symObjAddr: 0x1F52C, symBinAddr: 0x100022C34, symSize: 0x44 }
  - { offsetInCU: 0x49241, offset: 0x49241, size: 0x8, addend: 0x0, symName: __ZNSt3__114__split_bufferINS_4pairImPKcEERNS_9allocatorIS4_EEE21_ConstructTransactionD2B8ue170006Ev, symObjAddr: 0x1F570, symBinAddr: 0x100022C78, symSize: 0x20 }
  - { offsetInCU: 0x4926B, offset: 0x4926B, size: 0x8, addend: 0x0, symName: __ZNSt3__116reverse_iteratorIPNS_4pairImPKcEEEC1B8ue170006ES5_, symObjAddr: 0x1F6BC, symBinAddr: 0x100022DC4, symSize: 0x34 }
  - { offsetInCU: 0x492A3, offset: 0x492A3, size: 0x8, addend: 0x0, symName: __ZNKSt3__116reverse_iteratorIPNS_4pairImPKcEEE4baseB8ue170006Ev, symObjAddr: 0x1F6F0, symBinAddr: 0x100022DF8, symSize: 0x18 }
  - { offsetInCU: 0x492C9, offset: 0x492C9, size: 0x8, addend: 0x0, symName: __ZNKSt3__16vectorINS_4pairImPKcEENS_9allocatorIS4_EEE14__annotate_newB8ue170006Em, symObjAddr: 0x1F744, symBinAddr: 0x100022E4C, symSize: 0xAC }
  - { offsetInCU: 0x492FE, offset: 0x492FE, size: 0x8, addend: 0x0, symName: __ZNSt3__129_AllocatorDestroyRangeReverseINS_9allocatorINS_4pairImPKcEEEENS_16reverse_iteratorIPS5_EEEC1B8ue170006ERS6_RS9_SC_, symObjAddr: 0x1F83C, symBinAddr: 0x100022F44, symSize: 0x44 }
  - { offsetInCU: 0x49355, offset: 0x49355, size: 0x8, addend: 0x0, symName: __ZNSt3__116allocator_traitsINS_9allocatorINS_4pairImPKcEEEEE9constructB8ue170006IS5_JS5_EvEEvRS6_PT_DpOT0_, symObjAddr: 0x1F8C8, symBinAddr: 0x100022FD0, symSize: 0x34 }
  - { offsetInCU: 0x493AC, offset: 0x493AC, size: 0x8, addend: 0x0, symName: __ZNKSt3__116reverse_iteratorIPNS_4pairImPKcEEEdeB8ue170006Ev, symObjAddr: 0x1F920, symBinAddr: 0x100023028, symSize: 0x28 }
  - { offsetInCU: 0x493E0, offset: 0x493E0, size: 0x8, addend: 0x0, symName: __ZNSt3__116reverse_iteratorIPNS_4pairImPKcEEEppB8ue170006Ev, symObjAddr: 0x1F948, symBinAddr: 0x100023050, symSize: 0x20 }
  - { offsetInCU: 0x49406, offset: 0x49406, size: 0x8, addend: 0x0, symName: __ZNSt3__128__exception_guard_exceptionsINS_29_AllocatorDestroyRangeReverseINS_9allocatorINS_4pairImPKcEEEENS_16reverse_iteratorIPS6_EEEEE10__completeB8ue170006Ev, symObjAddr: 0x1F968, symBinAddr: 0x100023070, symSize: 0x1C }
  - { offsetInCU: 0x4942C, offset: 0x4942C, size: 0x8, addend: 0x0, symName: __ZNSt3__128__exception_guard_exceptionsINS_29_AllocatorDestroyRangeReverseINS_9allocatorINS_4pairImPKcEEEENS_16reverse_iteratorIPS6_EEEEED1B8ue170006Ev, symObjAddr: 0x1F984, symBinAddr: 0x10002308C, symSize: 0x2C }
  - { offsetInCU: 0x49456, offset: 0x49456, size: 0x8, addend: 0x0, symName: __ZNSt3__128__exception_guard_exceptionsINS_29_AllocatorDestroyRangeReverseINS_9allocatorINS_4pairImPKcEEEENS_16reverse_iteratorIPS6_EEEEEC1B8ue170006ESB_, symObjAddr: 0x1F9B0, symBinAddr: 0x1000230B8, symSize: 0x34 }
  - { offsetInCU: 0x4948F, offset: 0x4948F, size: 0x8, addend: 0x0, symName: __ZNSt3__128__exception_guard_exceptionsINS_29_AllocatorDestroyRangeReverseINS_9allocatorINS_4pairImPKcEEEENS_16reverse_iteratorIPS6_EEEEEC2B8ue170006ESB_, symObjAddr: 0x1F9E4, symBinAddr: 0x1000230EC, symSize: 0x30 }
  - { offsetInCU: 0x494C8, offset: 0x494C8, size: 0x8, addend: 0x0, symName: __ZNSt3__129_AllocatorDestroyRangeReverseINS_9allocatorINS_4pairImPKcEEEENS_16reverse_iteratorIPS5_EEEC2B8ue170006ERS6_RS9_SC_, symObjAddr: 0x1FA14, symBinAddr: 0x10002311C, symSize: 0x38 }
  - { offsetInCU: 0x4951F, offset: 0x4951F, size: 0x8, addend: 0x0, symName: __ZNSt3__19allocatorINS_4pairImPKcEEE9constructB8ue170006IS4_JS4_EEEvPT_DpOT0_, symObjAddr: 0x1FA4C, symBinAddr: 0x100023154, symSize: 0x28 }
  - { offsetInCU: 0x4957B, offset: 0x4957B, size: 0x8, addend: 0x0, symName: __ZNSt3__119__to_address_helperINS_16reverse_iteratorIPNS_4pairImPKcEEEEvE6__callB8ue170006ERKS7_, symObjAddr: 0x1FA74, symBinAddr: 0x10002317C, symSize: 0x38 }
  - { offsetInCU: 0x4959E, offset: 0x4959E, size: 0x8, addend: 0x0, symName: __ZNKSt3__116reverse_iteratorIPNS_4pairImPKcEEEptB8ue170006Ev, symObjAddr: 0x1FAAC, symBinAddr: 0x1000231B4, symSize: 0x24 }
  - { offsetInCU: 0x495C4, offset: 0x495C4, size: 0x8, addend: 0x0, symName: __ZNSt3__128__exception_guard_exceptionsINS_29_AllocatorDestroyRangeReverseINS_9allocatorINS_4pairImPKcEEEENS_16reverse_iteratorIPS6_EEEEED2B8ue170006Ev, symObjAddr: 0x1FAD0, symBinAddr: 0x1000231D8, symSize: 0x50 }
  - { offsetInCU: 0x495EE, offset: 0x495EE, size: 0x8, addend: 0x0, symName: __ZNKSt3__129_AllocatorDestroyRangeReverseINS_9allocatorINS_4pairImPKcEEEENS_16reverse_iteratorIPS5_EEEclB8ue170006Ev, symObjAddr: 0x1FB20, symBinAddr: 0x100023228, symSize: 0xB4 }
  - { offsetInCU: 0x49615, offset: 0x49615, size: 0x8, addend: 0x0, symName: __ZNSt3__116reverse_iteratorINS0_IPNS_4pairImPKcEEEEEC1B8ue170006ES6_, symObjAddr: 0x1FC44, symBinAddr: 0x10002334C, symSize: 0x3C }
  - { offsetInCU: 0x4964D, offset: 0x4964D, size: 0x8, addend: 0x0, symName: __ZNSt3__116reverse_iteratorINS0_IPNS_4pairImPKcEEEEEppB8ue170006Ev, symObjAddr: 0x1FD04, symBinAddr: 0x10002340C, symSize: 0x30 }
  - { offsetInCU: 0x49673, offset: 0x49673, size: 0x8, addend: 0x0, symName: __ZNKSt3__116reverse_iteratorINS0_IPNS_4pairImPKcEEEEE4baseB8ue170006Ev, symObjAddr: 0x1FD34, symBinAddr: 0x10002343C, symSize: 0x24 }
  - { offsetInCU: 0x4969F, offset: 0x4969F, size: 0x8, addend: 0x0, symName: __ZNSt3__119__to_address_helperINS_16reverse_iteratorINS1_IPNS_4pairImPKcEEEEEEvE6__callB8ue170006ERKS8_, symObjAddr: 0x1FD58, symBinAddr: 0x100023460, symSize: 0x38 }
  - { offsetInCU: 0x496C2, offset: 0x496C2, size: 0x8, addend: 0x0, symName: __ZNKSt3__116reverse_iteratorINS0_IPNS_4pairImPKcEEEEEptB8ue170006Ev, symObjAddr: 0x1FD90, symBinAddr: 0x100023498, symSize: 0x24 }
  - { offsetInCU: 0x496E8, offset: 0x496E8, size: 0x8, addend: 0x0, symName: __ZNKSt3__116reverse_iteratorINS0_IPNS_4pairImPKcEEEEEdeB8ue170006Ev, symObjAddr: 0x1FDB4, symBinAddr: 0x1000234BC, symSize: 0x34 }
  - { offsetInCU: 0x4971C, offset: 0x4971C, size: 0x8, addend: 0x0, symName: __ZNSt3__116reverse_iteratorIPNS_4pairImPKcEEEmmB8ue170006Ev, symObjAddr: 0x1FDE8, symBinAddr: 0x1000234F0, symSize: 0x20 }
  - { offsetInCU: 0x49742, offset: 0x49742, size: 0x8, addend: 0x0, symName: __ZNSt3__116reverse_iteratorINS0_IPNS_4pairImPKcEEEEEC2B8ue170006ES6_, symObjAddr: 0x1FE08, symBinAddr: 0x100023510, symSize: 0x2C }
  - { offsetInCU: 0x4977A, offset: 0x4977A, size: 0x8, addend: 0x0, symName: __ZNSt3__116reverse_iteratorIPNS_4pairImPKcEEEC2B8ue170006ES5_, symObjAddr: 0x1FE34, symBinAddr: 0x10002353C, symSize: 0x28 }
  - { offsetInCU: 0x497B2, offset: 0x497B2, size: 0x8, addend: 0x0, symName: __ZNSt3__114__split_bufferINS_4pairImPKcEERNS_9allocatorIS4_EEED2Ev, symObjAddr: 0x1FE5C, symBinAddr: 0x100023564, symSize: 0x8C }
  - { offsetInCU: 0x497DE, offset: 0x497DE, size: 0x8, addend: 0x0, symName: __ZNSt3__114__split_bufferINS_4pairImPKcEERNS_9allocatorIS4_EEE5clearB8ue170006Ev, symObjAddr: 0x1FEE8, symBinAddr: 0x1000235F0, symSize: 0x28 }
  - { offsetInCU: 0x49804, offset: 0x49804, size: 0x8, addend: 0x0, symName: __ZNKSt3__114__split_bufferINS_4pairImPKcEERNS_9allocatorIS4_EEE8capacityB8ue170006Ev, symObjAddr: 0x1FF10, symBinAddr: 0x100023618, symSize: 0x40 }
  - { offsetInCU: 0x4982A, offset: 0x4982A, size: 0x8, addend: 0x0, symName: __ZNSt3__114__split_bufferINS_4pairImPKcEERNS_9allocatorIS4_EEE17__destruct_at_endB8ue170006EPS4_, symObjAddr: 0x1FF50, symBinAddr: 0x100023658, symSize: 0x2C }
  - { offsetInCU: 0x4985E, offset: 0x4985E, size: 0x8, addend: 0x0, symName: __ZNSt3__114__split_bufferINS_4pairImPKcEERNS_9allocatorIS4_EEE17__destruct_at_endB8ue170006EPS4_NS_17integral_constantIbLb0EEE, symObjAddr: 0x1FF7C, symBinAddr: 0x100023684, symSize: 0x80 }
  - { offsetInCU: 0x4989E, offset: 0x4989E, size: 0x8, addend: 0x0, symName: __ZNKSt3__114__split_bufferINS_4pairImPKcEERNS_9allocatorIS4_EEE9__end_capB8ue170006Ev, symObjAddr: 0x1FFFC, symBinAddr: 0x100023704, symSize: 0x28 }
  - { offsetInCU: 0x498C4, offset: 0x498C4, size: 0x8, addend: 0x0, symName: __ZNKSt3__117__compressed_pairIPNS_4pairImPKcEERNS_9allocatorIS4_EEE5firstB8ue170006Ev, symObjAddr: 0x20024, symBinAddr: 0x10002372C, symSize: 0x24 }
  - { offsetInCU: 0x498EA, offset: 0x498EA, size: 0x8, addend: 0x0, symName: __ZNKSt3__16vectorINS_4pairImPKcEENS_9allocatorIS4_EEE17__annotate_shrinkB8ue170006Em, symObjAddr: 0x20048, symBinAddr: 0x100023750, symSize: 0xB4 }
  - { offsetInCU: 0x4991F, offset: 0x4991F, size: 0x8, addend: 0x0, symName: __ZNSt3__16vectorINS_7__stateIcEENS_9allocatorIS2_EEE17__destruct_at_endB8ue170006EPS2_, symObjAddr: 0x200FC, symBinAddr: 0x100023804, symSize: 0x4C }
  - { offsetInCU: 0x49963, offset: 0x49963, size: 0x8, addend: 0x0, symName: __ZNSt3__16vectorINS_7__stateIcEENS_9allocatorIS2_EEE22__base_destruct_at_endB8ue170006EPS2_, symObjAddr: 0x20148, symBinAddr: 0x100023850, symSize: 0x8C }
  - { offsetInCU: 0x499A7, offset: 0x499A7, size: 0x8, addend: 0x0, symName: __ZNKSt3__16vectorINS_7__stateIcEENS_9allocatorIS2_EEE17__annotate_shrinkB8ue170006Em, symObjAddr: 0x201D4, symBinAddr: 0x1000238DC, symSize: 0xD0 }
  - { offsetInCU: 0x499DC, offset: 0x499DC, size: 0x8, addend: 0x0, symName: __ZNSt3__17__stateIcEC2ERKS1_, symObjAddr: 0x20318, symBinAddr: 0x100023A20, symSize: 0xA4 }
  - { offsetInCU: 0x49A12, offset: 0x49A12, size: 0x8, addend: 0x0, symName: __ZNSt3__16vectorINS_9sub_matchIPKcEENS_9allocatorIS4_EEEC1ERKS7_, symObjAddr: 0x203BC, symBinAddr: 0x100023AC4, symSize: 0x34 }
  - { offsetInCU: 0x49A4D, offset: 0x49A4D, size: 0x8, addend: 0x0, symName: __ZNSt3__16vectorINS_4pairImPKcEENS_9allocatorIS4_EEEC1ERKS7_, symObjAddr: 0x203F0, symBinAddr: 0x100023AF8, symSize: 0x34 }
  - { offsetInCU: 0x49A88, offset: 0x49A88, size: 0x8, addend: 0x0, symName: __ZNSt3__16vectorINS_9sub_matchIPKcEENS_9allocatorIS4_EEEC2ERKS7_, symObjAddr: 0x20424, symBinAddr: 0x100023B2C, symSize: 0x94 }
  - { offsetInCU: 0x49AC3, offset: 0x49AC3, size: 0x8, addend: 0x0, symName: __ZNSt3__116allocator_traitsINS_9allocatorINS_9sub_matchIPKcEEEEE37select_on_container_copy_constructionB8ue170006IS6_vvEES6_RKS6_, symObjAddr: 0x204B8, symBinAddr: 0x100023BC0, symSize: 0x10 }
  - { offsetInCU: 0x49AF2, offset: 0x49AF2, size: 0x8, addend: 0x0, symName: __ZNSt3__16vectorINS_9sub_matchIPKcEENS_9allocatorIS4_EEE16__init_with_sizeB8ue170006IPS4_S9_EEvT_T0_m, symObjAddr: 0x204C8, symBinAddr: 0x100023BD0, symSize: 0xB8 }
  - { offsetInCU: 0x49B66, offset: 0x49B66, size: 0x8, addend: 0x0, symName: __ZNSt3__16vectorINS_9sub_matchIPKcEENS_9allocatorIS4_EEE11__vallocateB8ue170006Em, symObjAddr: 0x205C0, symBinAddr: 0x100023CC8, symSize: 0xB4 }
  - { offsetInCU: 0x49BAA, offset: 0x49BAA, size: 0x8, addend: 0x0, symName: __ZNSt3__16vectorINS_9sub_matchIPKcEENS_9allocatorIS4_EEE18__construct_at_endIPS4_S9_EEvT_T0_m, symObjAddr: 0x20674, symBinAddr: 0x100023D7C, symSize: 0x8C }
  - { offsetInCU: 0x49C20, offset: 0x49C20, size: 0x8, addend: 0x0, symName: __ZNSt3__128__exception_guard_exceptionsINS_6vectorINS_9sub_matchIPKcEENS_9allocatorIS5_EEE16__destroy_vectorEE10__completeB8ue170006Ev, symObjAddr: 0x20700, symBinAddr: 0x100023E08, symSize: 0x1C }
  - { offsetInCU: 0x49C46, offset: 0x49C46, size: 0x8, addend: 0x0, symName: __ZNSt3__128__exception_guard_exceptionsINS_6vectorINS_9sub_matchIPKcEENS_9allocatorIS5_EEE16__destroy_vectorEED1B8ue170006Ev, symObjAddr: 0x2071C, symBinAddr: 0x100023E24, symSize: 0x2C }
  - { offsetInCU: 0x49C70, offset: 0x49C70, size: 0x8, addend: 0x0, symName: __ZNSt3__128__exception_guard_exceptionsINS_6vectorINS_9sub_matchIPKcEENS_9allocatorIS5_EEE16__destroy_vectorEEC1B8ue170006ES9_, symObjAddr: 0x20748, symBinAddr: 0x100023E50, symSize: 0x34 }
  - { offsetInCU: 0x49CA8, offset: 0x49CA8, size: 0x8, addend: 0x0, symName: __ZNSt3__128__exception_guard_exceptionsINS_6vectorINS_9sub_matchIPKcEENS_9allocatorIS5_EEE16__destroy_vectorEEC2B8ue170006ES9_, symObjAddr: 0x2077C, symBinAddr: 0x100023E84, symSize: 0x24 }
  - { offsetInCU: 0x49D03, offset: 0x49D03, size: 0x8, addend: 0x0, symName: __ZNSt3__14pairIPNS_9sub_matchIPKcEES5_EC1B8ue170006IS5_S5_LPv0EEEOT_OT0_, symObjAddr: 0x20A0C, symBinAddr: 0x100024114, symSize: 0x3C }
  - { offsetInCU: 0x49D61, offset: 0x49D61, size: 0x8, addend: 0x0, symName: __ZNSt3__14pairIPNS_9sub_matchIPKcEES5_EC2B8ue170006IS5_S5_LPv0EEEOT_OT0_, symObjAddr: 0x20A48, symBinAddr: 0x100024150, symSize: 0x34 }
  - { offsetInCU: 0x49DBF, offset: 0x49DBF, size: 0x8, addend: 0x0, symName: __ZNSt3__129_AllocatorDestroyRangeReverseINS_9allocatorINS_9sub_matchIPKcEEEEPS5_EC1B8ue170006ERS6_RS7_SA_, symObjAddr: 0x20AC8, symBinAddr: 0x1000241D0, symSize: 0x44 }
  - { offsetInCU: 0x49E16, offset: 0x49E16, size: 0x8, addend: 0x0, symName: __ZNSt3__116allocator_traitsINS_9allocatorINS_9sub_matchIPKcEEEEE9constructB8ue170006IS5_JRS5_EvEEvRS6_PT_DpOT0_, symObjAddr: 0x20B0C, symBinAddr: 0x100024214, symSize: 0x34 }
  - { offsetInCU: 0x49E6D, offset: 0x49E6D, size: 0x8, addend: 0x0, symName: __ZNSt3__128__exception_guard_exceptionsINS_29_AllocatorDestroyRangeReverseINS_9allocatorINS_9sub_matchIPKcEEEEPS6_EEE10__completeB8ue170006Ev, symObjAddr: 0x20B40, symBinAddr: 0x100024248, symSize: 0x1C }
  - { offsetInCU: 0x49E93, offset: 0x49E93, size: 0x8, addend: 0x0, symName: __ZNSt3__128__exception_guard_exceptionsINS_29_AllocatorDestroyRangeReverseINS_9allocatorINS_9sub_matchIPKcEEEEPS6_EEED1B8ue170006Ev, symObjAddr: 0x20B5C, symBinAddr: 0x100024264, symSize: 0x2C }
  - { offsetInCU: 0x49EBD, offset: 0x49EBD, size: 0x8, addend: 0x0, symName: __ZNSt3__128__exception_guard_exceptionsINS_29_AllocatorDestroyRangeReverseINS_9allocatorINS_9sub_matchIPKcEEEEPS6_EEEC1B8ue170006ES9_, symObjAddr: 0x20B88, symBinAddr: 0x100024290, symSize: 0x34 }
  - { offsetInCU: 0x49EF6, offset: 0x49EF6, size: 0x8, addend: 0x0, symName: __ZNSt3__128__exception_guard_exceptionsINS_29_AllocatorDestroyRangeReverseINS_9allocatorINS_9sub_matchIPKcEEEEPS6_EEEC2B8ue170006ES9_, symObjAddr: 0x20BBC, symBinAddr: 0x1000242C4, symSize: 0x30 }
  - { offsetInCU: 0x49F2F, offset: 0x49F2F, size: 0x8, addend: 0x0, symName: __ZNSt3__129_AllocatorDestroyRangeReverseINS_9allocatorINS_9sub_matchIPKcEEEEPS5_EC2B8ue170006ERS6_RS7_SA_, symObjAddr: 0x20BEC, symBinAddr: 0x1000242F4, symSize: 0x38 }
  - { offsetInCU: 0x49F86, offset: 0x49F86, size: 0x8, addend: 0x0, symName: __ZNSt3__19allocatorINS_9sub_matchIPKcEEE9constructB8ue170006IS4_JRS4_EEEvPT_DpOT0_, symObjAddr: 0x20C24, symBinAddr: 0x10002432C, symSize: 0x30 }
  - { offsetInCU: 0x49FDC, offset: 0x49FDC, size: 0x8, addend: 0x0, symName: __ZNSt3__128__exception_guard_exceptionsINS_29_AllocatorDestroyRangeReverseINS_9allocatorINS_9sub_matchIPKcEEEEPS6_EEED2B8ue170006Ev, symObjAddr: 0x20C54, symBinAddr: 0x10002435C, symSize: 0x50 }
  - { offsetInCU: 0x4A006, offset: 0x4A006, size: 0x8, addend: 0x0, symName: __ZNKSt3__129_AllocatorDestroyRangeReverseINS_9allocatorINS_9sub_matchIPKcEEEEPS5_EclB8ue170006Ev, symObjAddr: 0x20CA4, symBinAddr: 0x1000243AC, symSize: 0x68 }
  - { offsetInCU: 0x4A02C, offset: 0x4A02C, size: 0x8, addend: 0x0, symName: __ZNSt3__118__unwrap_iter_implIPNS_9sub_matchIPKcEELb1EE8__unwrapB8ue170006ES5_, symObjAddr: 0x20D7C, symBinAddr: 0x100024484, symSize: 0x24 }
  - { offsetInCU: 0x4A04F, offset: 0x4A04F, size: 0x8, addend: 0x0, symName: __ZNSt3__118__unwrap_iter_implIPNS_9sub_matchIPKcEELb1EE8__rewrapB8ue170006ES5_S5_, symObjAddr: 0x20DA0, symBinAddr: 0x1000244A8, symSize: 0x58 }
  - { offsetInCU: 0x4A080, offset: 0x4A080, size: 0x8, addend: 0x0, symName: __ZNSt3__128__exception_guard_exceptionsINS_6vectorINS_9sub_matchIPKcEENS_9allocatorIS5_EEE16__destroy_vectorEED2B8ue170006Ev, symObjAddr: 0x20DF8, symBinAddr: 0x100024500, symSize: 0x48 }
  - { offsetInCU: 0x4A0AA, offset: 0x4A0AA, size: 0x8, addend: 0x0, symName: __ZNSt3__16vectorINS_4pairImPKcEENS_9allocatorIS4_EEEC2ERKS7_, symObjAddr: 0x20E40, symBinAddr: 0x100024548, symSize: 0x94 }
  - { offsetInCU: 0x4A0E5, offset: 0x4A0E5, size: 0x8, addend: 0x0, symName: __ZNSt3__116allocator_traitsINS_9allocatorINS_4pairImPKcEEEEE37select_on_container_copy_constructionB8ue170006IS6_vvEES6_RKS6_, symObjAddr: 0x20ED4, symBinAddr: 0x1000245DC, symSize: 0x10 }
  - { offsetInCU: 0x4A114, offset: 0x4A114, size: 0x8, addend: 0x0, symName: __ZNSt3__16vectorINS_4pairImPKcEENS_9allocatorIS4_EEE16__init_with_sizeB8ue170006IPS4_S9_EEvT_T0_m, symObjAddr: 0x20EE4, symBinAddr: 0x1000245EC, symSize: 0xB8 }
  - { offsetInCU: 0x4A188, offset: 0x4A188, size: 0x8, addend: 0x0, symName: __ZNSt3__16vectorINS_4pairImPKcEENS_9allocatorIS4_EEE11__vallocateB8ue170006Em, symObjAddr: 0x20FDC, symBinAddr: 0x1000246E4, symSize: 0xAC }
  - { offsetInCU: 0x4A1CC, offset: 0x4A1CC, size: 0x8, addend: 0x0, symName: __ZNSt3__16vectorINS_4pairImPKcEENS_9allocatorIS4_EEE18__construct_at_endIPS4_S9_EEvT_T0_m, symObjAddr: 0x21088, symBinAddr: 0x100024790, symSize: 0x8C }
  - { offsetInCU: 0x4A242, offset: 0x4A242, size: 0x8, addend: 0x0, symName: __ZNSt3__128__exception_guard_exceptionsINS_6vectorINS_4pairImPKcEENS_9allocatorIS5_EEE16__destroy_vectorEE10__completeB8ue170006Ev, symObjAddr: 0x21114, symBinAddr: 0x10002481C, symSize: 0x1C }
  - { offsetInCU: 0x4A268, offset: 0x4A268, size: 0x8, addend: 0x0, symName: __ZNSt3__128__exception_guard_exceptionsINS_6vectorINS_4pairImPKcEENS_9allocatorIS5_EEE16__destroy_vectorEED1B8ue170006Ev, symObjAddr: 0x21130, symBinAddr: 0x100024838, symSize: 0x2C }
  - { offsetInCU: 0x4A292, offset: 0x4A292, size: 0x8, addend: 0x0, symName: __ZNSt3__128__exception_guard_exceptionsINS_6vectorINS_4pairImPKcEENS_9allocatorIS5_EEE16__destroy_vectorEEC1B8ue170006ES9_, symObjAddr: 0x2115C, symBinAddr: 0x100024864, symSize: 0x34 }
  - { offsetInCU: 0x4A2CA, offset: 0x4A2CA, size: 0x8, addend: 0x0, symName: __ZNSt3__128__exception_guard_exceptionsINS_6vectorINS_4pairImPKcEENS_9allocatorIS5_EEE16__destroy_vectorEEC2B8ue170006ES9_, symObjAddr: 0x21190, symBinAddr: 0x100024898, symSize: 0x24 }
  - { offsetInCU: 0x4A325, offset: 0x4A325, size: 0x8, addend: 0x0, symName: __ZNSt3__14pairIPNS0_ImPKcEES4_EC1B8ue170006IS4_S4_LPv0EEEOT_OT0_, symObjAddr: 0x21420, symBinAddr: 0x100024B28, symSize: 0x3C }
  - { offsetInCU: 0x4A383, offset: 0x4A383, size: 0x8, addend: 0x0, symName: __ZNSt3__14pairIPNS0_ImPKcEES4_EC2B8ue170006IS4_S4_LPv0EEEOT_OT0_, symObjAddr: 0x2145C, symBinAddr: 0x100024B64, symSize: 0x34 }
  - { offsetInCU: 0x4A3E1, offset: 0x4A3E1, size: 0x8, addend: 0x0, symName: __ZNSt3__129_AllocatorDestroyRangeReverseINS_9allocatorINS_4pairImPKcEEEEPS5_EC1B8ue170006ERS6_RS7_SA_, symObjAddr: 0x214DC, symBinAddr: 0x100024BE4, symSize: 0x44 }
  - { offsetInCU: 0x4A438, offset: 0x4A438, size: 0x8, addend: 0x0, symName: __ZNSt3__116allocator_traitsINS_9allocatorINS_4pairImPKcEEEEE9constructB8ue170006IS5_JRS5_EvEEvRS6_PT_DpOT0_, symObjAddr: 0x21520, symBinAddr: 0x100024C28, symSize: 0x34 }
  - { offsetInCU: 0x4A48F, offset: 0x4A48F, size: 0x8, addend: 0x0, symName: __ZNSt3__128__exception_guard_exceptionsINS_29_AllocatorDestroyRangeReverseINS_9allocatorINS_4pairImPKcEEEEPS6_EEE10__completeB8ue170006Ev, symObjAddr: 0x21554, symBinAddr: 0x100024C5C, symSize: 0x1C }
  - { offsetInCU: 0x4A4B5, offset: 0x4A4B5, size: 0x8, addend: 0x0, symName: __ZNSt3__128__exception_guard_exceptionsINS_29_AllocatorDestroyRangeReverseINS_9allocatorINS_4pairImPKcEEEEPS6_EEED1B8ue170006Ev, symObjAddr: 0x21570, symBinAddr: 0x100024C78, symSize: 0x2C }
  - { offsetInCU: 0x4A4DF, offset: 0x4A4DF, size: 0x8, addend: 0x0, symName: __ZNSt3__128__exception_guard_exceptionsINS_29_AllocatorDestroyRangeReverseINS_9allocatorINS_4pairImPKcEEEEPS6_EEEC1B8ue170006ES9_, symObjAddr: 0x2159C, symBinAddr: 0x100024CA4, symSize: 0x34 }
  - { offsetInCU: 0x4A518, offset: 0x4A518, size: 0x8, addend: 0x0, symName: __ZNSt3__128__exception_guard_exceptionsINS_29_AllocatorDestroyRangeReverseINS_9allocatorINS_4pairImPKcEEEEPS6_EEEC2B8ue170006ES9_, symObjAddr: 0x215D0, symBinAddr: 0x100024CD8, symSize: 0x30 }
  - { offsetInCU: 0x4A551, offset: 0x4A551, size: 0x8, addend: 0x0, symName: __ZNSt3__129_AllocatorDestroyRangeReverseINS_9allocatorINS_4pairImPKcEEEEPS5_EC2B8ue170006ERS6_RS7_SA_, symObjAddr: 0x21600, symBinAddr: 0x100024D08, symSize: 0x38 }
  - { offsetInCU: 0x4A5A8, offset: 0x4A5A8, size: 0x8, addend: 0x0, symName: __ZNSt3__19allocatorINS_4pairImPKcEEE9constructB8ue170006IS4_JRS4_EEEvPT_DpOT0_, symObjAddr: 0x21638, symBinAddr: 0x100024D40, symSize: 0x28 }
  - { offsetInCU: 0x4A5FE, offset: 0x4A5FE, size: 0x8, addend: 0x0, symName: __ZNSt3__128__exception_guard_exceptionsINS_29_AllocatorDestroyRangeReverseINS_9allocatorINS_4pairImPKcEEEEPS6_EEED2B8ue170006Ev, symObjAddr: 0x21660, symBinAddr: 0x100024D68, symSize: 0x50 }
  - { offsetInCU: 0x4A628, offset: 0x4A628, size: 0x8, addend: 0x0, symName: __ZNKSt3__129_AllocatorDestroyRangeReverseINS_9allocatorINS_4pairImPKcEEEEPS5_EclB8ue170006Ev, symObjAddr: 0x216B0, symBinAddr: 0x100024DB8, symSize: 0x68 }
  - { offsetInCU: 0x4A64E, offset: 0x4A64E, size: 0x8, addend: 0x0, symName: __ZNSt3__118__unwrap_iter_implIPNS_4pairImPKcEELb1EE8__unwrapB8ue170006ES5_, symObjAddr: 0x21788, symBinAddr: 0x100024E90, symSize: 0x24 }
  - { offsetInCU: 0x4A671, offset: 0x4A671, size: 0x8, addend: 0x0, symName: __ZNSt3__118__unwrap_iter_implIPNS_4pairImPKcEELb1EE8__rewrapB8ue170006ES5_S5_, symObjAddr: 0x217AC, symBinAddr: 0x100024EB4, symSize: 0x50 }
  - { offsetInCU: 0x4A6A2, offset: 0x4A6A2, size: 0x8, addend: 0x0, symName: __ZNSt3__128__exception_guard_exceptionsINS_6vectorINS_4pairImPKcEENS_9allocatorIS5_EEE16__destroy_vectorEED2B8ue170006Ev, symObjAddr: 0x217FC, symBinAddr: 0x100024F04, symSize: 0x48 }
  - { offsetInCU: 0x4A6CC, offset: 0x4A6CC, size: 0x8, addend: 0x0, symName: __ZNSt3__16vectorINS_7__stateIcEENS_9allocatorIS2_EEED2B8ue170006Ev, symObjAddr: 0x21844, symBinAddr: 0x100024F4C, symSize: 0x44 }
  - { offsetInCU: 0x4A6F6, offset: 0x4A6F6, size: 0x8, addend: 0x0, symName: __ZNSt3__16vectorINS_7__stateIcEENS_9allocatorIS2_EEE16__destroy_vectorC1B8ue170006ERS5_, symObjAddr: 0x21888, symBinAddr: 0x100024F90, symSize: 0x34 }
  - { offsetInCU: 0x4A72F, offset: 0x4A72F, size: 0x8, addend: 0x0, symName: __ZNSt3__16vectorINS_7__stateIcEENS_9allocatorIS2_EEE16__destroy_vectorclB8ue170006Ev, symObjAddr: 0x218BC, symBinAddr: 0x100024FC4, symSize: 0x90 }
  - { offsetInCU: 0x4A755, offset: 0x4A755, size: 0x8, addend: 0x0, symName: __ZNSt3__16vectorINS_7__stateIcEENS_9allocatorIS2_EEE16__destroy_vectorC2B8ue170006ERS5_, symObjAddr: 0x2194C, symBinAddr: 0x100025054, symSize: 0x20 }
  - { offsetInCU: 0x4A78E, offset: 0x4A78E, size: 0x8, addend: 0x0, symName: __ZNSt3__16vectorINS_7__stateIcEENS_9allocatorIS2_EEE7__clearB8ue170006Ev, symObjAddr: 0x2196C, symBinAddr: 0x100025074, symSize: 0x28 }
  - { offsetInCU: 0x4A7B4, offset: 0x4A7B4, size: 0x8, addend: 0x0, symName: __ZNSt3__15dequeINS_7__stateIcEENS_9allocatorIS2_EEEC1B8ue170006Ev, symObjAddr: 0x21994, symBinAddr: 0x10002509C, symSize: 0x2C }
  - { offsetInCU: 0x4A7DE, offset: 0x4A7DE, size: 0x8, addend: 0x0, symName: __ZNSt3__15dequeINS_7__stateIcEENS_9allocatorIS2_EEE9push_backEOS2_, symObjAddr: 0x219EC, symBinAddr: 0x1000250F4, symSize: 0xAC }
  - { offsetInCU: 0x4A824, offset: 0x4A824, size: 0x8, addend: 0x0, symName: __ZNSt3__15dequeINS_7__stateIcEENS_9allocatorIS2_EEE4backEv, symObjAddr: 0x21A98, symBinAddr: 0x1000251A0, symSize: 0x70 }
  - { offsetInCU: 0x4A85B, offset: 0x4A85B, size: 0x8, addend: 0x0, symName: __ZNSt3__15dequeINS_7__stateIcEENS_9allocatorIS2_EEE8pop_backEv, symObjAddr: 0x21B08, symBinAddr: 0x100025210, symSize: 0xE8 }
  - { offsetInCU: 0x4A8BF, offset: 0x4A8BF, size: 0x8, addend: 0x0, symName: __ZNSt3__15dequeINS_7__stateIcEENS_9allocatorIS2_EEE5clearEv, symObjAddr: 0x21BF0, symBinAddr: 0x1000252F8, symSize: 0x170 }
  - { offsetInCU: 0x4A91A, offset: 0x4A91A, size: 0x8, addend: 0x0, symName: __ZNSt3__15dequeINS_7__stateIcEENS_9allocatorIS2_EEE10push_frontEOS2_, symObjAddr: 0x21D60, symBinAddr: 0x100025468, symSize: 0xBC }
  - { offsetInCU: 0x4A960, offset: 0x4A960, size: 0x8, addend: 0x0, symName: __ZNKSt3__15dequeINS_7__stateIcEENS_9allocatorIS2_EEE5emptyB8ue170006Ev, symObjAddr: 0x21E1C, symBinAddr: 0x100025524, symSize: 0x30 }
  - { offsetInCU: 0x4A986, offset: 0x4A986, size: 0x8, addend: 0x0, symName: __ZNSt3__15dequeINS_7__stateIcEENS_9allocatorIS2_EEED1B8ue170006Ev, symObjAddr: 0x21E4C, symBinAddr: 0x100025554, symSize: 0x2C }
  - { offsetInCU: 0x4A9B0, offset: 0x4A9B0, size: 0x8, addend: 0x0, symName: __ZNSt3__15dequeINS_7__stateIcEENS_9allocatorIS2_EEEC2B8ue170006Ev, symObjAddr: 0x21E78, symBinAddr: 0x100025580, symSize: 0x5C }
  - { offsetInCU: 0x4A9DA, offset: 0x4A9DA, size: 0x8, addend: 0x0, symName: __ZNSt3__114__split_bufferIPNS_7__stateIcEENS_9allocatorIS3_EEEC1B8ue170006Ev, symObjAddr: 0x21ED4, symBinAddr: 0x1000255DC, symSize: 0x2C }
  - { offsetInCU: 0x4AA0A, offset: 0x4AA0A, size: 0x8, addend: 0x0, symName: __ZNSt3__117__compressed_pairImNS_9allocatorINS_7__stateIcEEEEEC1B8ue170006IiNS_18__default_init_tagEEEOT_OT0_, symObjAddr: 0x21F00, symBinAddr: 0x100025608, symSize: 0x3C }
  - { offsetInCU: 0x4AA62, offset: 0x4AA62, size: 0x8, addend: 0x0, symName: __ZNKSt3__15dequeINS_7__stateIcEENS_9allocatorIS2_EEE14__annotate_newB8ue170006Em, symObjAddr: 0x21F3C, symBinAddr: 0x100025644, symSize: 0xD0 }
  - { offsetInCU: 0x4AA97, offset: 0x4AA97, size: 0x8, addend: 0x0, symName: __ZNSt3__114__split_bufferIPNS_7__stateIcEENS_9allocatorIS3_EEEC2B8ue170006Ev, symObjAddr: 0x2200C, symBinAddr: 0x100025714, symSize: 0x50 }
  - { offsetInCU: 0x4AAC1, offset: 0x4AAC1, size: 0x8, addend: 0x0, symName: __ZNSt3__117__compressed_pairIPPNS_7__stateIcEENS_9allocatorIS3_EEEC1B8ue170006IDnNS_18__default_init_tagEEEOT_OT0_, symObjAddr: 0x2205C, symBinAddr: 0x100025764, symSize: 0x3C }
  - { offsetInCU: 0x4AB19, offset: 0x4AB19, size: 0x8, addend: 0x0, symName: __ZNSt3__117__compressed_pairIPPNS_7__stateIcEENS_9allocatorIS3_EEEC2B8ue170006IDnNS_18__default_init_tagEEEOT_OT0_, symObjAddr: 0x22098, symBinAddr: 0x1000257A0, symSize: 0x40 }
  - { offsetInCU: 0x4AB71, offset: 0x4AB71, size: 0x8, addend: 0x0, symName: __ZNSt3__122__compressed_pair_elemIPPNS_7__stateIcEELi0ELb0EEC2B8ue170006IDnvEEOT_, symObjAddr: 0x220D8, symBinAddr: 0x1000257E0, symSize: 0x1C }
  - { offsetInCU: 0x4ABB3, offset: 0x4ABB3, size: 0x8, addend: 0x0, symName: __ZNSt3__122__compressed_pair_elemINS_9allocatorIPNS_7__stateIcEEEELi1ELb1EEC2B8ue170006ENS_18__default_init_tagE, symObjAddr: 0x220F4, symBinAddr: 0x1000257FC, symSize: 0x2C }
  - { offsetInCU: 0x4ABE7, offset: 0x4ABE7, size: 0x8, addend: 0x0, symName: __ZNSt3__19allocatorIPNS_7__stateIcEEEC2B8ue170006Ev, symObjAddr: 0x22120, symBinAddr: 0x100025828, symSize: 0x2C }
  - { offsetInCU: 0x4AC11, offset: 0x4AC11, size: 0x8, addend: 0x0, symName: __ZNSt3__116__non_trivial_ifILb1ENS_9allocatorIPNS_7__stateIcEEEEEC2B8ue170006Ev, symObjAddr: 0x2214C, symBinAddr: 0x100025854, symSize: 0x14 }
  - { offsetInCU: 0x4AC3B, offset: 0x4AC3B, size: 0x8, addend: 0x0, symName: __ZNSt3__117__compressed_pairImNS_9allocatorINS_7__stateIcEEEEEC2B8ue170006IiNS_18__default_init_tagEEEOT_OT0_, symObjAddr: 0x22160, symBinAddr: 0x100025868, symSize: 0x40 }
  - { offsetInCU: 0x4AC93, offset: 0x4AC93, size: 0x8, addend: 0x0, symName: __ZNSt3__122__compressed_pair_elemImLi0ELb0EEC2B8ue170006IivEEOT_, symObjAddr: 0x221A0, symBinAddr: 0x1000258A8, symSize: 0x24 }
  - { offsetInCU: 0x4ACD5, offset: 0x4ACD5, size: 0x8, addend: 0x0, symName: __ZNKSt3__15dequeINS_7__stateIcEENS_9allocatorIS2_EEE18__annotate_from_toB8ue170006EmmNS5_22__asan_annotation_typeENS5_23__asan_annotation_placeE, symObjAddr: 0x221C4, symBinAddr: 0x1000258CC, symSize: 0x598 }
  - { offsetInCU: 0x4AE91, offset: 0x4AE91, size: 0x8, addend: 0x0, symName: __ZNKSt3__114__split_bufferIPNS_7__stateIcEENS_9allocatorIS3_EEE4sizeB8ue170006Ev, symObjAddr: 0x2275C, symBinAddr: 0x100025E64, symSize: 0x28 }
  - { offsetInCU: 0x4AEB7, offset: 0x4AEB7, size: 0x8, addend: 0x0, symName: __ZNKSt3__114__split_bufferIPNS_7__stateIcEENS_9allocatorIS3_EEE5beginB8ue170006Ev, symObjAddr: 0x22784, symBinAddr: 0x100025E8C, symSize: 0x18 }
  - { offsetInCU: 0x4AEDD, offset: 0x4AEDD, size: 0x8, addend: 0x0, symName: __ZNKSt3__15dequeINS_7__stateIcEENS_9allocatorIS2_EEE4sizeB8ue170006Ev, symObjAddr: 0x2279C, symBinAddr: 0x100025EA4, symSize: 0x28 }
  - { offsetInCU: 0x4AF03, offset: 0x4AF03, size: 0x8, addend: 0x0, symName: __ZNKSt3__15dequeINS_7__stateIcEENS_9allocatorIS2_EEE44__annotate_double_ended_contiguous_containerB8ue170006EPKvS7_S7_S7_S7_S7_, symObjAddr: 0x227C4, symBinAddr: 0x100025ECC, symSize: 0x28 }
  - { offsetInCU: 0x4AF71, offset: 0x4AF71, size: 0x8, addend: 0x0, symName: __ZNKSt3__15dequeINS_7__stateIcEENS_9allocatorIS2_EEE6__sizeB8ue170006Ev, symObjAddr: 0x227EC, symBinAddr: 0x100025EF4, symSize: 0x28 }
  - { offsetInCU: 0x4AF97, offset: 0x4AF97, size: 0x8, addend: 0x0, symName: __ZNKSt3__117__compressed_pairImNS_9allocatorINS_7__stateIcEEEEE5firstB8ue170006Ev, symObjAddr: 0x22814, symBinAddr: 0x100025F1C, symSize: 0x24 }
  - { offsetInCU: 0x4AFBD, offset: 0x4AFBD, size: 0x8, addend: 0x0, symName: __ZNSt3__15dequeINS_7__stateIcEENS_9allocatorIS2_EEE7__allocB8ue170006Ev, symObjAddr: 0x22858, symBinAddr: 0x100025F60, symSize: 0x28 }
  - { offsetInCU: 0x4AFE3, offset: 0x4AFE3, size: 0x8, addend: 0x0, symName: __ZNKSt3__15dequeINS_7__stateIcEENS_9allocatorIS2_EEE12__back_spareB8ue170006Ev, symObjAddr: 0x22880, symBinAddr: 0x100025F88, symSize: 0x54 }
  - { offsetInCU: 0x4B009, offset: 0x4B009, size: 0x8, addend: 0x0, symName: __ZNSt3__15dequeINS_7__stateIcEENS_9allocatorIS2_EEE19__add_back_capacityEv, symObjAddr: 0x228D4, symBinAddr: 0x100025FDC, symSize: 0x34C }
  - { offsetInCU: 0x4B0BE, offset: 0x4B0BE, size: 0x8, addend: 0x0, symName: __ZNKSt3__15dequeINS_7__stateIcEENS_9allocatorIS2_EEE24__annotate_increase_backB8ue170006Em, symObjAddr: 0x22C20, symBinAddr: 0x100026328, symSize: 0x7C }
  - { offsetInCU: 0x4B0F3, offset: 0x4B0F3, size: 0x8, addend: 0x0, symName: __ZNSt3__15dequeINS_7__stateIcEENS_9allocatorIS2_EEE3endB8ue170006Ev, symObjAddr: 0x22C9C, symBinAddr: 0x1000263A4, symSize: 0xD4 }
  - { offsetInCU: 0x4B137, offset: 0x4B137, size: 0x8, addend: 0x0, symName: __ZNKSt3__116__deque_iteratorINS_7__stateIcEEPS2_RS2_PS3_lLl42EEdeB8ue170006Ev, symObjAddr: 0x22D70, symBinAddr: 0x100026478, symSize: 0x18 }
  - { offsetInCU: 0x4B15D, offset: 0x4B15D, size: 0x8, addend: 0x0, symName: __ZNSt3__15dequeINS_7__stateIcEENS_9allocatorIS2_EEE6__sizeB8ue170006Ev, symObjAddr: 0x22D88, symBinAddr: 0x100026490, symSize: 0x28 }
  - { offsetInCU: 0x4B183, offset: 0x4B183, size: 0x8, addend: 0x0, symName: __ZNSt3__117__compressed_pairImNS_9allocatorINS_7__stateIcEEEEE6secondB8ue170006Ev, symObjAddr: 0x22DB0, symBinAddr: 0x1000264B8, symSize: 0x24 }
  - { offsetInCU: 0x4B1A9, offset: 0x4B1A9, size: 0x8, addend: 0x0, symName: __ZNKSt3__15dequeINS_7__stateIcEENS_9allocatorIS2_EEE10__capacityB8ue170006Ev, symObjAddr: 0x22DD4, symBinAddr: 0x1000264DC, symSize: 0x64 }
  - { offsetInCU: 0x4B1CF, offset: 0x4B1CF, size: 0x8, addend: 0x0, symName: __ZNKSt3__15dequeINS_7__stateIcEENS_9allocatorIS2_EEE13__front_spareB8ue170006Ev, symObjAddr: 0x22E38, symBinAddr: 0x100026540, symSize: 0x18 }
  - { offsetInCU: 0x4B1F5, offset: 0x4B1F5, size: 0x8, addend: 0x0, symName: __ZNSt3__114__split_bufferIPNS_7__stateIcEENS_9allocatorIS3_EEE5frontB8ue170006Ev, symObjAddr: 0x22E50, symBinAddr: 0x100026558, symSize: 0x18 }
  - { offsetInCU: 0x4B21B, offset: 0x4B21B, size: 0x8, addend: 0x0, symName: __ZNSt3__114__split_bufferIPNS_7__stateIcEENS_9allocatorIS3_EEE9pop_frontB8ue170006Ev, symObjAddr: 0x22E68, symBinAddr: 0x100026570, symSize: 0x2C }
  - { offsetInCU: 0x4B241, offset: 0x4B241, size: 0x8, addend: 0x0, symName: __ZNSt3__114__split_bufferIPNS_7__stateIcEENS_9allocatorIS3_EEE9push_backB8ue170006ERKS3_, symObjAddr: 0x22E94, symBinAddr: 0x10002659C, symSize: 0x260 }
  - { offsetInCU: 0x4B2B9, offset: 0x4B2B9, size: 0x8, addend: 0x0, symName: __ZNKSt3__114__split_bufferIPNS_7__stateIcEENS_9allocatorIS3_EEE8capacityB8ue170006Ev, symObjAddr: 0x230F4, symBinAddr: 0x1000267FC, symSize: 0x40 }
  - { offsetInCU: 0x4B2DF, offset: 0x4B2DF, size: 0x8, addend: 0x0, symName: __ZNKSt3__114__split_bufferIPNS_7__stateIcEENS_9allocatorIS3_EEE12__back_spareB8ue170006Ev, symObjAddr: 0x23134, symBinAddr: 0x10002683C, symSize: 0x40 }
  - { offsetInCU: 0x4B305, offset: 0x4B305, size: 0x8, addend: 0x0, symName: __ZNSt3__114__split_bufferIPNS_7__stateIcEENS_9allocatorIS3_EEE9push_backEOS3_, symObjAddr: 0x23174, symBinAddr: 0x10002687C, symSize: 0x260 }
  - { offsetInCU: 0x4B37D, offset: 0x4B37D, size: 0x8, addend: 0x0, symName: __ZNSt3__116allocator_traitsINS_9allocatorINS_7__stateIcEEEEE8allocateB8ue170006ERS4_m, symObjAddr: 0x233D4, symBinAddr: 0x100026ADC, symSize: 0x2C }
  - { offsetInCU: 0x4B3B0, offset: 0x4B3B0, size: 0x8, addend: 0x0, symName: __ZNSt3__114__split_bufferIPNS_7__stateIcEENS_9allocatorIS3_EEE10push_frontEOS3_, symObjAddr: 0x23400, symBinAddr: 0x100026B08, symSize: 0x25C }
  - { offsetInCU: 0x4B428, offset: 0x4B428, size: 0x8, addend: 0x0, symName: __ZNKSt3__15dequeINS_7__stateIcEENS_9allocatorIS2_EEE22__annotate_whole_blockB8ue170006EmNS5_22__asan_annotation_typeE, symObjAddr: 0x2365C, symBinAddr: 0x100026D64, symSize: 0xAC }
  - { offsetInCU: 0x4B499, offset: 0x4B499, size: 0x8, addend: 0x0, symName: __ZNSt3__114__split_bufferIPNS_7__stateIcEENS_9allocatorIS3_EEE7__allocB8ue170006Ev, symObjAddr: 0x23708, symBinAddr: 0x100026E10, symSize: 0x28 }
  - { offsetInCU: 0x4B4BF, offset: 0x4B4BF, size: 0x8, addend: 0x0, symName: __ZNSt3__114__split_bufferIPNS_7__stateIcEERNS_9allocatorIS3_EEEC1EmmS6_, symObjAddr: 0x23730, symBinAddr: 0x100026E38, symSize: 0x44 }
  - { offsetInCU: 0x4B51B, offset: 0x4B51B, size: 0x8, addend: 0x0, symName: __ZNSt3__122__allocator_destructorINS_9allocatorINS_7__stateIcEEEEEC1B8ue170006ERS4_m, symObjAddr: 0x23774, symBinAddr: 0x100026E7C, symSize: 0x3C }
  - { offsetInCU: 0x4B5DA, offset: 0x4B5DA, size: 0x8, addend: 0x0, symName: __ZNSt3__110unique_ptrIPNS_7__stateIcEENS_22__allocator_destructorINS_9allocatorIS2_EEEEEC1B8ue170006ILb1EvEES3_NS_16__dependent_typeINS_27__unique_ptr_deleter_sfinaeIS7_EEXT_EE20__good_rval_ref_typeE, symObjAddr: 0x237B0, symBinAddr: 0x100026EB8, symSize: 0x3C }
  - { offsetInCU: 0x4B62B, offset: 0x4B62B, size: 0x8, addend: 0x0, symName: __ZNSt3__114__split_bufferIPNS_7__stateIcEERNS_9allocatorIS3_EEE9push_backEOS3_, symObjAddr: 0x237EC, symBinAddr: 0x100026EF4, symSize: 0x260 }
  - { offsetInCU: 0x4B6A3, offset: 0x4B6A3, size: 0x8, addend: 0x0, symName: __ZNKSt3__110unique_ptrIPNS_7__stateIcEENS_22__allocator_destructorINS_9allocatorIS2_EEEEE3getB8ue170006Ev, symObjAddr: 0x23A4C, symBinAddr: 0x100027154, symSize: 0x28 }
  - { offsetInCU: 0x4B6C9, offset: 0x4B6C9, size: 0x8, addend: 0x0, symName: __ZNSt3__110unique_ptrIPNS_7__stateIcEENS_22__allocator_destructorINS_9allocatorIS2_EEEEE7releaseB8ue170006Ev, symObjAddr: 0x23A74, symBinAddr: 0x10002717C, symSize: 0x44 }
  - { offsetInCU: 0x4B6FE, offset: 0x4B6FE, size: 0x8, addend: 0x0, symName: __ZNSt3__114__split_bufferIPNS_7__stateIcEENS_9allocatorIS3_EEE3endB8ue170006Ev, symObjAddr: 0x23AB8, symBinAddr: 0x1000271C0, symSize: 0x18 }
  - { offsetInCU: 0x4B724, offset: 0x4B724, size: 0x8, addend: 0x0, symName: __ZNSt3__114__split_bufferIPNS_7__stateIcEENS_9allocatorIS3_EEE5beginB8ue170006Ev, symObjAddr: 0x23AD0, symBinAddr: 0x1000271D8, symSize: 0x18 }
  - { offsetInCU: 0x4B74A, offset: 0x4B74A, size: 0x8, addend: 0x0, symName: __ZNSt3__114__split_bufferIPNS_7__stateIcEERNS_9allocatorIS3_EEE10push_frontERKS3_, symObjAddr: 0x23AE8, symBinAddr: 0x1000271F0, symSize: 0x25C }
  - { offsetInCU: 0x4B7C2, offset: 0x4B7C2, size: 0x8, addend: 0x0, symName: __ZNSt3__114__split_bufferIPNS_7__stateIcEENS_9allocatorIS3_EEE9__end_capB8ue170006Ev, symObjAddr: 0x23D80, symBinAddr: 0x100027488, symSize: 0x28 }
  - { offsetInCU: 0x4B7E8, offset: 0x4B7E8, size: 0x8, addend: 0x0, symName: __ZNSt3__114__split_bufferIPNS_7__stateIcEERNS_9allocatorIS3_EEE9__end_capB8ue170006Ev, symObjAddr: 0x23DA8, symBinAddr: 0x1000274B0, symSize: 0x28 }
  - { offsetInCU: 0x4B80E, offset: 0x4B80E, size: 0x8, addend: 0x0, symName: __ZNSt3__110unique_ptrIPNS_7__stateIcEENS_22__allocator_destructorINS_9allocatorIS2_EEEEED1B8ue170006Ev, symObjAddr: 0x23DD0, symBinAddr: 0x1000274D8, symSize: 0x2C }
  - { offsetInCU: 0x4B838, offset: 0x4B838, size: 0x8, addend: 0x0, symName: __ZNSt3__114__split_bufferIPNS_7__stateIcEERNS_9allocatorIS3_EEED1Ev, symObjAddr: 0x23DFC, symBinAddr: 0x100027504, symSize: 0x2C }
  - { offsetInCU: 0x4B864, offset: 0x4B864, size: 0x8, addend: 0x0, symName: __ZNSt3__114__split_bufferIPNS_7__stateIcEENS_9allocatorIS3_EEE19__destruct_at_beginB8ue170006EPS3_, symObjAddr: 0x23E28, symBinAddr: 0x100027530, symSize: 0x2C }
  - { offsetInCU: 0x4B898, offset: 0x4B898, size: 0x8, addend: 0x0, symName: __ZNSt3__114__split_bufferIPNS_7__stateIcEENS_9allocatorIS3_EEE19__destruct_at_beginEPS3_NS_17integral_constantIbLb1EEE, symObjAddr: 0x23E54, symBinAddr: 0x10002755C, symSize: 0x20 }
  - { offsetInCU: 0x4B8D8, offset: 0x4B8D8, size: 0x8, addend: 0x0, symName: __ZNSt3__114__split_bufferIPNS_7__stateIcEERNS_9allocatorIS3_EEE18__construct_at_endINS_13move_iteratorIPS3_EEEENS_9enable_ifIXsr31__has_forward_iterator_categoryIT_EE5valueEvE4typeESD_SD_, symObjAddr: 0x23EB4, symBinAddr: 0x1000275BC, symSize: 0x60 }
  - { offsetInCU: 0x4B925, offset: 0x4B925, size: 0x8, addend: 0x0, symName: __ZNSt3__113move_iteratorIPPNS_7__stateIcEEEC1B8ue170006ES4_, symObjAddr: 0x23F14, symBinAddr: 0x10002761C, symSize: 0x34 }
  - { offsetInCU: 0x4B95D, offset: 0x4B95D, size: 0x8, addend: 0x0, symName: __ZNSt3__116allocator_traitsINS_9allocatorIPNS_7__stateIcEEEEE9constructB8ue170006IS4_JRKS4_EvEEvRS5_PT_DpOT0_, symObjAddr: 0x23F48, symBinAddr: 0x100027650, symSize: 0x34 }
  - { offsetInCU: 0x4B9DC, offset: 0x4B9DC, size: 0x8, addend: 0x0, symName: __ZNKSt3__114__move_trivialclB8ue170006IPNS_7__stateIcEES4_Li0EEENS_4pairIPT_PT0_EES7_S7_S9_, symObjAddr: 0x2412C, symBinAddr: 0x100027834, symSize: 0x48 }
  - { offsetInCU: 0x4BA4A, offset: 0x4BA4A, size: 0x8, addend: 0x0, symName: __ZNSt3__14pairIPPNS_7__stateIcEES4_EC1B8ue170006IRS4_S4_LPv0EEEOT_OT0_, symObjAddr: 0x24354, symBinAddr: 0x100027A5C, symSize: 0x3C }
  - { offsetInCU: 0x4BAA8, offset: 0x4BAA8, size: 0x8, addend: 0x0, symName: __ZNSt3__14pairIPPNS_7__stateIcEES4_EC2B8ue170006IRS4_S4_LPv0EEEOT_OT0_, symObjAddr: 0x24390, symBinAddr: 0x100027A98, symSize: 0x34 }
  - { offsetInCU: 0x4BB06, offset: 0x4BB06, size: 0x8, addend: 0x0, symName: __ZNSt3__118__unwrap_iter_implIPPNS_7__stateIcEELb1EE8__unwrapB8ue170006ES4_, symObjAddr: 0x243C4, symBinAddr: 0x100027ACC, symSize: 0x24 }
  - { offsetInCU: 0x4BB29, offset: 0x4BB29, size: 0x8, addend: 0x0, symName: __ZNSt3__14pairIPPNS_7__stateIcEES4_EC1B8ue170006IS4_S4_LPv0EEEOT_OT0_, symObjAddr: 0x243E8, symBinAddr: 0x100027AF0, symSize: 0x3C }
  - { offsetInCU: 0x4BB87, offset: 0x4BB87, size: 0x8, addend: 0x0, symName: __ZNSt3__14pairIPPNS_7__stateIcEES4_EC2B8ue170006IS4_S4_LPv0EEEOT_OT0_, symObjAddr: 0x24424, symBinAddr: 0x100027B2C, symSize: 0x34 }
  - { offsetInCU: 0x4BBE5, offset: 0x4BBE5, size: 0x8, addend: 0x0, symName: __ZNSt3__118__unwrap_iter_implIPPNS_7__stateIcEELb1EE8__rewrapB8ue170006ES4_S4_, symObjAddr: 0x24458, symBinAddr: 0x100027B60, symSize: 0x50 }
  - { offsetInCU: 0x4BC16, offset: 0x4BC16, size: 0x8, addend: 0x0, symName: __ZNSt3__114__split_bufferIPNS_7__stateIcEERNS_9allocatorIS3_EEE28__construct_at_end_with_sizeINS_13move_iteratorIPS3_EEEEvT_m, symObjAddr: 0x244A8, symBinAddr: 0x100027BB0, symSize: 0xDC }
  - { offsetInCU: 0x4BC7E, offset: 0x4BC7E, size: 0x8, addend: 0x0, symName: __ZNSt3__114__split_bufferIPNS_7__stateIcEERNS_9allocatorIS3_EEE21_ConstructTransactionC1B8ue170006EPPS3_m, symObjAddr: 0x245C0, symBinAddr: 0x100027CC8, symSize: 0x3C }
  - { offsetInCU: 0x4BCC4, offset: 0x4BCC4, size: 0x8, addend: 0x0, symName: __ZNSt3__116allocator_traitsINS_9allocatorIPNS_7__stateIcEEEEE9constructB8ue170006IS4_JS4_EvEEvRS5_PT_DpOT0_, symObjAddr: 0x245FC, symBinAddr: 0x100027D04, symSize: 0x34 }
  - { offsetInCU: 0x4BD1B, offset: 0x4BD1B, size: 0x8, addend: 0x0, symName: __ZNSt3__114__split_bufferIPNS_7__stateIcEERNS_9allocatorIS3_EEE7__allocB8ue170006Ev, symObjAddr: 0x24630, symBinAddr: 0x100027D38, symSize: 0x28 }
  - { offsetInCU: 0x4BD41, offset: 0x4BD41, size: 0x8, addend: 0x0, symName: __ZNKSt3__113move_iteratorIPPNS_7__stateIcEEEdeB8ue170006Ev, symObjAddr: 0x24658, symBinAddr: 0x100027D60, symSize: 0x18 }
  - { offsetInCU: 0x4BD67, offset: 0x4BD67, size: 0x8, addend: 0x0, symName: __ZNSt3__113move_iteratorIPPNS_7__stateIcEEEppB8ue170006Ev, symObjAddr: 0x24670, symBinAddr: 0x100027D78, symSize: 0x20 }
  - { offsetInCU: 0x4BD8D, offset: 0x4BD8D, size: 0x8, addend: 0x0, symName: __ZNSt3__114__split_bufferIPNS_7__stateIcEERNS_9allocatorIS3_EEE21_ConstructTransactionD1B8ue170006Ev, symObjAddr: 0x24690, symBinAddr: 0x100027D98, symSize: 0x2C }
  - { offsetInCU: 0x4BDB7, offset: 0x4BDB7, size: 0x8, addend: 0x0, symName: __ZNSt3__114__split_bufferIPNS_7__stateIcEERNS_9allocatorIS3_EEE21_ConstructTransactionC2B8ue170006EPPS3_m, symObjAddr: 0x246BC, symBinAddr: 0x100027DC4, symSize: 0x44 }
  - { offsetInCU: 0x4BDFD, offset: 0x4BDFD, size: 0x8, addend: 0x0, symName: __ZNSt3__19allocatorIPNS_7__stateIcEEE9constructB8ue170006IS3_JS3_EEEvPT_DpOT0_, symObjAddr: 0x24700, symBinAddr: 0x100027E08, symSize: 0x28 }
  - { offsetInCU: 0x4BE53, offset: 0x4BE53, size: 0x8, addend: 0x0, symName: __ZNSt3__117__compressed_pairIPPNS_7__stateIcEERNS_9allocatorIS3_EEE6secondB8ue170006Ev, symObjAddr: 0x24728, symBinAddr: 0x100027E30, symSize: 0x28 }
  - { offsetInCU: 0x4BE79, offset: 0x4BE79, size: 0x8, addend: 0x0, symName: __ZNSt3__122__compressed_pair_elemIRNS_9allocatorIPNS_7__stateIcEEEELi1ELb0EE5__getB8ue170006Ev, symObjAddr: 0x24750, symBinAddr: 0x100027E58, symSize: 0x18 }
  - { offsetInCU: 0x4BE9F, offset: 0x4BE9F, size: 0x8, addend: 0x0, symName: __ZNSt3__114__split_bufferIPNS_7__stateIcEERNS_9allocatorIS3_EEE21_ConstructTransactionD2B8ue170006Ev, symObjAddr: 0x24768, symBinAddr: 0x100027E70, symSize: 0x20 }
  - { offsetInCU: 0x4BEC9, offset: 0x4BEC9, size: 0x8, addend: 0x0, symName: __ZNKSt3__113move_iteratorIPPNS_7__stateIcEEE4baseB8ue170006Ev, symObjAddr: 0x24800, symBinAddr: 0x100027F08, symSize: 0x18 }
  - { offsetInCU: 0x4BEEF, offset: 0x4BEEF, size: 0x8, addend: 0x0, symName: __ZNSt3__113move_iteratorIPPNS_7__stateIcEEEC2B8ue170006ES4_, symObjAddr: 0x24818, symBinAddr: 0x100027F20, symSize: 0x20 }
  - { offsetInCU: 0x4BF27, offset: 0x4BF27, size: 0x8, addend: 0x0, symName: __ZNSt3__19allocatorIPNS_7__stateIcEEE9constructB8ue170006IS3_JRKS3_EEEvPT_DpOT0_, symObjAddr: 0x24838, symBinAddr: 0x100027F40, symSize: 0x28 }
  - { offsetInCU: 0x4BF7D, offset: 0x4BF7D, size: 0x8, addend: 0x0, symName: __ZNKSt3__114__split_bufferIPNS_7__stateIcEENS_9allocatorIS3_EEE9__end_capB8ue170006Ev, symObjAddr: 0x24860, symBinAddr: 0x100027F68, symSize: 0x28 }
  - { offsetInCU: 0x4BFA3, offset: 0x4BFA3, size: 0x8, addend: 0x0, symName: __ZNKSt3__117__compressed_pairIPPNS_7__stateIcEENS_9allocatorIS3_EEE5firstB8ue170006Ev, symObjAddr: 0x24888, symBinAddr: 0x100027F90, symSize: 0x24 }
  - { offsetInCU: 0x4BFC9, offset: 0x4BFC9, size: 0x8, addend: 0x0, symName: __ZNKSt3__122__compressed_pair_elemIPPNS_7__stateIcEELi0ELb0EE5__getB8ue170006Ev, symObjAddr: 0x248AC, symBinAddr: 0x100027FB4, symSize: 0x14 }
  - { offsetInCU: 0x4BFFA, offset: 0x4BFFA, size: 0x8, addend: 0x0, symName: __ZNKSt3__123__move_backward_trivialclB8ue170006IPNS_7__stateIcEES4_Li0EEENS_4pairIPT_PT0_EES7_S7_S9_, symObjAddr: 0x24A3C, symBinAddr: 0x100028144, symSize: 0x48 }
  - { offsetInCU: 0x4C062, offset: 0x4C062, size: 0x8, addend: 0x0, symName: __ZNSt3__14pairIPPNS_7__stateIcEES4_EC1B8ue170006IRS4_S7_LPv0EEEOT_OT0_, symObjAddr: 0x24B4C, symBinAddr: 0x100028254, symSize: 0x3C }
  - { offsetInCU: 0x4C0C0, offset: 0x4C0C0, size: 0x8, addend: 0x0, symName: __ZNSt3__14pairIPPNS_7__stateIcEES4_EC2B8ue170006IRS4_S7_LPv0EEEOT_OT0_, symObjAddr: 0x24B88, symBinAddr: 0x100028290, symSize: 0x34 }
  - { offsetInCU: 0x4C11E, offset: 0x4C11E, size: 0x8, addend: 0x0, symName: __ZNKSt3__15dequeINS_7__stateIcEENS_9allocatorIS2_EEE23__annotate_poison_blockB8ue170006EPKvS7_, symObjAddr: 0x24BBC, symBinAddr: 0x1000282C4, symSize: 0x44 }
  - { offsetInCU: 0x4C162, offset: 0x4C162, size: 0x8, addend: 0x0, symName: __ZNSt3__117__compressed_pairIPPNS_7__stateIcEENS_9allocatorIS3_EEE6secondB8ue170006Ev, symObjAddr: 0x24C00, symBinAddr: 0x100028308, symSize: 0x24 }
  - { offsetInCU: 0x4C188, offset: 0x4C188, size: 0x8, addend: 0x0, symName: __ZNSt3__122__compressed_pair_elemINS_9allocatorIPNS_7__stateIcEEEELi1ELb1EE5__getB8ue170006Ev, symObjAddr: 0x24C24, symBinAddr: 0x10002832C, symSize: 0x14 }
  - { offsetInCU: 0x4C1AE, offset: 0x4C1AE, size: 0x8, addend: 0x0, symName: __ZNSt3__114__split_bufferIPNS_7__stateIcEERNS_9allocatorIS3_EEEC2EmmS6_, symObjAddr: 0x24C38, symBinAddr: 0x100028340, symSize: 0xD4 }
  - { offsetInCU: 0x4C221, offset: 0x4C221, size: 0x8, addend: 0x0, symName: __ZNSt3__117__compressed_pairIPPNS_7__stateIcEERNS_9allocatorIS3_EEEC1B8ue170006IDnS7_EEOT_OT0_, symObjAddr: 0x24D0C, symBinAddr: 0x100028414, symSize: 0x3C }
  - { offsetInCU: 0x4C279, offset: 0x4C279, size: 0x8, addend: 0x0, symName: __ZNSt3__117__compressed_pairIPPNS_7__stateIcEERNS_9allocatorIS3_EEEC2B8ue170006IDnS7_EEOT_OT0_, symObjAddr: 0x24D88, symBinAddr: 0x100028490, symSize: 0x48 }
  - { offsetInCU: 0x4C2D1, offset: 0x4C2D1, size: 0x8, addend: 0x0, symName: __ZNSt3__122__compressed_pair_elemIRNS_9allocatorIPNS_7__stateIcEEEELi1ELb0EEC2B8ue170006IS6_vEEOT_, symObjAddr: 0x24DD0, symBinAddr: 0x1000284D8, symSize: 0x20 }
  - { offsetInCU: 0x4C313, offset: 0x4C313, size: 0x8, addend: 0x0, symName: __ZNSt3__19allocatorIPNS_7__stateIcEEE8allocateB8ue170006Em, symObjAddr: 0x24DF0, symBinAddr: 0x1000284F8, symSize: 0x58 }
  - { offsetInCU: 0x4C352, offset: 0x4C352, size: 0x8, addend: 0x0, symName: __ZNSt3__116allocator_traitsINS_9allocatorIPNS_7__stateIcEEEEE8max_sizeB8ue170006IS5_vEEmRKS5_, symObjAddr: 0x24E48, symBinAddr: 0x100028550, symSize: 0x24 }
  - { offsetInCU: 0x4C380, offset: 0x4C380, size: 0x8, addend: 0x0, symName: __ZNKSt3__19allocatorIPNS_7__stateIcEEE8max_sizeB8ue170006Ev, symObjAddr: 0x24E6C, symBinAddr: 0x100028574, symSize: 0x14 }
  - { offsetInCU: 0x4C3A6, offset: 0x4C3A6, size: 0x8, addend: 0x0, symName: __ZNSt3__122__allocator_destructorINS_9allocatorINS_7__stateIcEEEEEC2B8ue170006ERS4_m, symObjAddr: 0x24E80, symBinAddr: 0x100028588, symSize: 0x2C }
  - { offsetInCU: 0x4C3EC, offset: 0x4C3EC, size: 0x8, addend: 0x0, symName: __ZNSt3__110unique_ptrIPNS_7__stateIcEENS_22__allocator_destructorINS_9allocatorIS2_EEEEEC2B8ue170006ILb1EvEES3_NS_16__dependent_typeINS_27__unique_ptr_deleter_sfinaeIS7_EEXT_EE20__good_rval_ref_typeE, symObjAddr: 0x24EAC, symBinAddr: 0x1000285B4, symSize: 0x48 }
  - { offsetInCU: 0x4C43D, offset: 0x4C43D, size: 0x8, addend: 0x0, symName: __ZNSt3__117__compressed_pairIPNS_7__stateIcEENS_22__allocator_destructorINS_9allocatorIS2_EEEEEC1B8ue170006IRS3_S7_EEOT_OT0_, symObjAddr: 0x24EF4, symBinAddr: 0x1000285FC, symSize: 0x3C }
  - { offsetInCU: 0x4C495, offset: 0x4C495, size: 0x8, addend: 0x0, symName: __ZNSt3__117__compressed_pairIPNS_7__stateIcEENS_22__allocator_destructorINS_9allocatorIS2_EEEEEC2B8ue170006IRS3_S7_EEOT_OT0_, symObjAddr: 0x24F30, symBinAddr: 0x100028638, symSize: 0x48 }
  - { offsetInCU: 0x4C4ED, offset: 0x4C4ED, size: 0x8, addend: 0x0, symName: __ZNSt3__122__compressed_pair_elemIPNS_7__stateIcEELi0ELb0EEC2B8ue170006IRS3_vEEOT_, symObjAddr: 0x24F78, symBinAddr: 0x100028680, symSize: 0x24 }
  - { offsetInCU: 0x4C52F, offset: 0x4C52F, size: 0x8, addend: 0x0, symName: __ZNSt3__122__compressed_pair_elemINS_22__allocator_destructorINS_9allocatorINS_7__stateIcEEEEEELi1ELb0EEC2B8ue170006IS6_vEEOT_, symObjAddr: 0x24F9C, symBinAddr: 0x1000286A4, symSize: 0x24 }
  - { offsetInCU: 0x4C571, offset: 0x4C571, size: 0x8, addend: 0x0, symName: __ZNKSt3__117__compressed_pairIPNS_7__stateIcEENS_22__allocator_destructorINS_9allocatorIS2_EEEEE5firstB8ue170006Ev, symObjAddr: 0x24FC0, symBinAddr: 0x1000286C8, symSize: 0x24 }
  - { offsetInCU: 0x4C597, offset: 0x4C597, size: 0x8, addend: 0x0, symName: __ZNSt3__117__compressed_pairIPNS_7__stateIcEENS_22__allocator_destructorINS_9allocatorIS2_EEEEE5firstB8ue170006Ev, symObjAddr: 0x24FE4, symBinAddr: 0x1000286EC, symSize: 0x24 }
  - { offsetInCU: 0x4C5BD, offset: 0x4C5BD, size: 0x8, addend: 0x0, symName: __ZNSt3__117__compressed_pairIPPNS_7__stateIcEENS_9allocatorIS3_EEE5firstB8ue170006Ev, symObjAddr: 0x25008, symBinAddr: 0x100028710, symSize: 0x24 }
  - { offsetInCU: 0x4C5E3, offset: 0x4C5E3, size: 0x8, addend: 0x0, symName: __ZNSt3__122__compressed_pair_elemIPPNS_7__stateIcEELi0ELb0EE5__getB8ue170006Ev, symObjAddr: 0x2502C, symBinAddr: 0x100028734, symSize: 0x14 }
  - { offsetInCU: 0x4C609, offset: 0x4C609, size: 0x8, addend: 0x0, symName: __ZNSt3__117__compressed_pairIPPNS_7__stateIcEERNS_9allocatorIS3_EEE5firstB8ue170006Ev, symObjAddr: 0x25040, symBinAddr: 0x100028748, symSize: 0x24 }
  - { offsetInCU: 0x4C62F, offset: 0x4C62F, size: 0x8, addend: 0x0, symName: __ZNSt3__110unique_ptrIPNS_7__stateIcEENS_22__allocator_destructorINS_9allocatorIS2_EEEEED2B8ue170006Ev, symObjAddr: 0x25064, symBinAddr: 0x10002876C, symSize: 0x30 }
  - { offsetInCU: 0x4C659, offset: 0x4C659, size: 0x8, addend: 0x0, symName: __ZNSt3__110unique_ptrIPNS_7__stateIcEENS_22__allocator_destructorINS_9allocatorIS2_EEEEE5resetB8ue170006ES3_, symObjAddr: 0x25094, symBinAddr: 0x10002879C, symSize: 0x78 }
  - { offsetInCU: 0x4C69D, offset: 0x4C69D, size: 0x8, addend: 0x0, symName: __ZNSt3__117__compressed_pairIPNS_7__stateIcEENS_22__allocator_destructorINS_9allocatorIS2_EEEEE6secondB8ue170006Ev, symObjAddr: 0x2510C, symBinAddr: 0x100028814, symSize: 0x28 }
  - { offsetInCU: 0x4C6C3, offset: 0x4C6C3, size: 0x8, addend: 0x0, symName: __ZNSt3__122__allocator_destructorINS_9allocatorINS_7__stateIcEEEEEclB8ue170006EPS3_, symObjAddr: 0x25134, symBinAddr: 0x10002883C, symSize: 0x34 }
  - { offsetInCU: 0x4C6F7, offset: 0x4C6F7, size: 0x8, addend: 0x0, symName: __ZNSt3__122__compressed_pair_elemINS_22__allocator_destructorINS_9allocatorINS_7__stateIcEEEEEELi1ELb0EE5__getB8ue170006Ev, symObjAddr: 0x25168, symBinAddr: 0x100028870, symSize: 0x14 }
  - { offsetInCU: 0x4C71D, offset: 0x4C71D, size: 0x8, addend: 0x0, symName: __ZNSt3__114__split_bufferIPNS_7__stateIcEERNS_9allocatorIS3_EEED2Ev, symObjAddr: 0x2517C, symBinAddr: 0x100028884, symSize: 0x8C }
  - { offsetInCU: 0x4C749, offset: 0x4C749, size: 0x8, addend: 0x0, symName: __ZNSt3__114__split_bufferIPNS_7__stateIcEERNS_9allocatorIS3_EEE5clearB8ue170006Ev, symObjAddr: 0x25208, symBinAddr: 0x100028910, symSize: 0x28 }
  - { offsetInCU: 0x4C76F, offset: 0x4C76F, size: 0x8, addend: 0x0, symName: __ZNSt3__116allocator_traitsINS_9allocatorIPNS_7__stateIcEEEEE10deallocateB8ue170006ERS5_PS4_m, symObjAddr: 0x25230, symBinAddr: 0x100028938, symSize: 0x34 }
  - { offsetInCU: 0x4C7B1, offset: 0x4C7B1, size: 0x8, addend: 0x0, symName: __ZNKSt3__114__split_bufferIPNS_7__stateIcEERNS_9allocatorIS3_EEE8capacityB8ue170006Ev, symObjAddr: 0x25264, symBinAddr: 0x10002896C, symSize: 0x40 }
  - { offsetInCU: 0x4C7D7, offset: 0x4C7D7, size: 0x8, addend: 0x0, symName: __ZNSt3__114__split_bufferIPNS_7__stateIcEERNS_9allocatorIS3_EEE17__destruct_at_endB8ue170006EPS3_, symObjAddr: 0x252A4, symBinAddr: 0x1000289AC, symSize: 0x2C }
  - { offsetInCU: 0x4C80B, offset: 0x4C80B, size: 0x8, addend: 0x0, symName: __ZNSt3__114__split_bufferIPNS_7__stateIcEERNS_9allocatorIS3_EEE17__destruct_at_endB8ue170006EPS3_NS_17integral_constantIbLb0EEE, symObjAddr: 0x252D0, symBinAddr: 0x1000289D8, symSize: 0x80 }
  - { offsetInCU: 0x4C84B, offset: 0x4C84B, size: 0x8, addend: 0x0, symName: __ZNSt3__116allocator_traitsINS_9allocatorIPNS_7__stateIcEEEEE7destroyB8ue170006IS4_vEEvRS5_PT_, symObjAddr: 0x25350, symBinAddr: 0x100028A58, symSize: 0x2C }
  - { offsetInCU: 0x4C888, offset: 0x4C888, size: 0x8, addend: 0x0, symName: __ZNSt3__19allocatorIPNS_7__stateIcEEE7destroyB8ue170006EPS3_, symObjAddr: 0x2537C, symBinAddr: 0x100028A84, symSize: 0x14 }
  - { offsetInCU: 0x4C8BC, offset: 0x4C8BC, size: 0x8, addend: 0x0, symName: __ZNSt3__19allocatorIPNS_7__stateIcEEE10deallocateB8ue170006EPS3_m, symObjAddr: 0x25390, symBinAddr: 0x100028A98, symSize: 0x40 }
  - { offsetInCU: 0x4C8FE, offset: 0x4C8FE, size: 0x8, addend: 0x0, symName: __ZNKSt3__114__split_bufferIPNS_7__stateIcEERNS_9allocatorIS3_EEE9__end_capB8ue170006Ev, symObjAddr: 0x253D0, symBinAddr: 0x100028AD8, symSize: 0x28 }
  - { offsetInCU: 0x4C924, offset: 0x4C924, size: 0x8, addend: 0x0, symName: __ZNKSt3__117__compressed_pairIPPNS_7__stateIcEERNS_9allocatorIS3_EEE5firstB8ue170006Ev, symObjAddr: 0x253F8, symBinAddr: 0x100028B00, symSize: 0x24 }
  - { offsetInCU: 0x4C94A, offset: 0x4C94A, size: 0x8, addend: 0x0, symName: __ZNKSt3__114__split_bufferIPNS_7__stateIcEENS_9allocatorIS3_EEE5emptyB8ue170006Ev, symObjAddr: 0x2541C, symBinAddr: 0x100028B24, symSize: 0x28 }
  - { offsetInCU: 0x4C970, offset: 0x4C970, size: 0x8, addend: 0x0, symName: __ZNSt3__116__deque_iteratorINS_7__stateIcEEPS2_RS2_PS3_lLl42EEC1B8ue170006ES5_S3_, symObjAddr: 0x25444, symBinAddr: 0x100028B4C, symSize: 0x3C }
  - { offsetInCU: 0x4C9B8, offset: 0x4C9B8, size: 0x8, addend: 0x0, symName: __ZNSt3__116__deque_iteratorINS_7__stateIcEEPS2_RS2_PS3_lLl42EEC2B8ue170006ES5_S3_, symObjAddr: 0x25480, symBinAddr: 0x100028B88, symSize: 0x2C }
  - { offsetInCU: 0x4CA00, offset: 0x4CA00, size: 0x8, addend: 0x0, symName: __ZNSt3__117__compressed_pairImNS_9allocatorINS_7__stateIcEEEEE5firstB8ue170006Ev, symObjAddr: 0x254AC, symBinAddr: 0x100028BB4, symSize: 0x24 }
  - { offsetInCU: 0x4CA26, offset: 0x4CA26, size: 0x8, addend: 0x0, symName: __ZNKSt3__15dequeINS_7__stateIcEENS_9allocatorIS2_EEE22__annotate_shrink_backB8ue170006Emm, symObjAddr: 0x254D0, symBinAddr: 0x100028BD8, symSize: 0x60 }
  - { offsetInCU: 0x4CA6A, offset: 0x4CA6A, size: 0x8, addend: 0x0, symName: __ZNSt3__15dequeINS_7__stateIcEENS_9allocatorIS2_EEE25__maybe_remove_back_spareB8ue170006Eb, symObjAddr: 0x25530, symBinAddr: 0x100028C38, symSize: 0xE8 }
  - { offsetInCU: 0x4CA9F, offset: 0x4CA9F, size: 0x8, addend: 0x0, symName: __ZNKSt3__15dequeINS_7__stateIcEENS_9allocatorIS2_EEE19__back_spare_blocksB8ue170006Ev, symObjAddr: 0x25618, symBinAddr: 0x100028D20, symSize: 0x2C }
  - { offsetInCU: 0x4CAC5, offset: 0x4CAC5, size: 0x8, addend: 0x0, symName: __ZNSt3__114__split_bufferIPNS_7__stateIcEENS_9allocatorIS3_EEE4backB8ue170006Ev, symObjAddr: 0x25644, symBinAddr: 0x100028D4C, symSize: 0x1C }
  - { offsetInCU: 0x4CAEB, offset: 0x4CAEB, size: 0x8, addend: 0x0, symName: __ZNSt3__114__split_bufferIPNS_7__stateIcEENS_9allocatorIS3_EEE8pop_backB8ue170006Ev, symObjAddr: 0x25660, symBinAddr: 0x100028D68, symSize: 0x2C }
  - { offsetInCU: 0x4CB11, offset: 0x4CB11, size: 0x8, addend: 0x0, symName: __ZNSt3__114__split_bufferIPNS_7__stateIcEENS_9allocatorIS3_EEE17__destruct_at_endB8ue170006EPS3_, symObjAddr: 0x2568C, symBinAddr: 0x100028D94, symSize: 0x2C }
  - { offsetInCU: 0x4CB45, offset: 0x4CB45, size: 0x8, addend: 0x0, symName: __ZNSt3__114__split_bufferIPNS_7__stateIcEENS_9allocatorIS3_EEE17__destruct_at_endB8ue170006EPS3_NS_17integral_constantIbLb0EEE, symObjAddr: 0x256B8, symBinAddr: 0x100028DC0, symSize: 0x80 }
  - { offsetInCU: 0x4CB85, offset: 0x4CB85, size: 0x8, addend: 0x0, symName: __ZNKSt3__15dequeINS_7__stateIcEENS_9allocatorIS2_EEE17__annotate_deleteB8ue170006Ev, symObjAddr: 0x25738, symBinAddr: 0x100028E40, symSize: 0xEC }
  - { offsetInCU: 0x4CBC8, offset: 0x4CBC8, size: 0x8, addend: 0x0, symName: __ZNSt3__15dequeINS_7__stateIcEENS_9allocatorIS2_EEE5beginB8ue170006Ev, symObjAddr: 0x25824, symBinAddr: 0x100028F2C, symSize: 0xB0 }
  - { offsetInCU: 0x4CBFD, offset: 0x4CBFD, size: 0x8, addend: 0x0, symName: __ZNSt3__116__deque_iteratorINS_7__stateIcEEPS2_RS2_PS3_lLl42EEppB8ue170006Ev, symObjAddr: 0x25908, symBinAddr: 0x100029010, symSize: 0x70 }
  - { offsetInCU: 0x4CC23, offset: 0x4CC23, size: 0x8, addend: 0x0, symName: __ZNSt3__15dequeINS_7__stateIcEENS_9allocatorIS2_EEE20__add_front_capacityEv, symObjAddr: 0x259A8, symBinAddr: 0x1000290B0, symSize: 0x3A4 }
  - { offsetInCU: 0x4CCD8, offset: 0x4CCD8, size: 0x8, addend: 0x0, symName: __ZNKSt3__15dequeINS_7__stateIcEENS_9allocatorIS2_EEE25__annotate_increase_frontB8ue170006Em, symObjAddr: 0x25D4C, symBinAddr: 0x100029454, symSize: 0x40 }
  - { offsetInCU: 0x4CD0D, offset: 0x4CD0D, size: 0x8, addend: 0x0, symName: __ZNSt3__116__deque_iteratorINS_7__stateIcEEPS2_RS2_PS3_lLl42EEmmB8ue170006Ev, symObjAddr: 0x25D8C, symBinAddr: 0x100029494, symSize: 0x68 }
  - { offsetInCU: 0x4CD33, offset: 0x4CD33, size: 0x8, addend: 0x0, symName: __ZNSt3__114__split_bufferIPNS_7__stateIcEENS_9allocatorIS3_EEE10push_frontERKS3_, symObjAddr: 0x25DF4, symBinAddr: 0x1000294FC, symSize: 0x25C }
  - { offsetInCU: 0x4CDAB, offset: 0x4CDAB, size: 0x8, addend: 0x0, symName: __ZNKSt3__114__split_bufferIPNS_7__stateIcEENS_9allocatorIS3_EEE13__front_spareB8ue170006Ev, symObjAddr: 0x26050, symBinAddr: 0x100029758, symSize: 0x28 }
  - { offsetInCU: 0x4CDD1, offset: 0x4CDD1, size: 0x8, addend: 0x0, symName: __ZNSt3__114__split_bufferIPNS_7__stateIcEERNS_9allocatorIS3_EEE9push_backB8ue170006ERKS3_, symObjAddr: 0x26078, symBinAddr: 0x100029780, symSize: 0x260 }
  - { offsetInCU: 0x4CE49, offset: 0x4CE49, size: 0x8, addend: 0x0, symName: __ZNSt3__15dequeINS_7__stateIcEENS_9allocatorIS2_EEED2B8ue170006Ev, symObjAddr: 0x262D8, symBinAddr: 0x1000299E0, symSize: 0xA4 }
  - { offsetInCU: 0x4CE9F, offset: 0x4CE9F, size: 0x8, addend: 0x0, symName: __ZNSt3__114__split_bufferIPNS_7__stateIcEENS_9allocatorIS3_EEED1Ev, symObjAddr: 0x2637C, symBinAddr: 0x100029A84, symSize: 0x2C }
  - { offsetInCU: 0x4CECB, offset: 0x4CECB, size: 0x8, addend: 0x0, symName: __ZNSt3__114__split_bufferIPNS_7__stateIcEENS_9allocatorIS3_EEED2Ev, symObjAddr: 0x263A8, symBinAddr: 0x100029AB0, symSize: 0x80 }
  - { offsetInCU: 0x4CEF7, offset: 0x4CEF7, size: 0x8, addend: 0x0, symName: __ZNSt3__114__split_bufferIPNS_7__stateIcEENS_9allocatorIS3_EEE5clearB8ue170006Ev, symObjAddr: 0x26428, symBinAddr: 0x100029B30, symSize: 0x28 }
  - { offsetInCU: 0x4CF1D, offset: 0x4CF1D, size: 0x8, addend: 0x0, symName: __ZNSt3__17__stateIcEaSERKS1_, symObjAddr: 0x26450, symBinAddr: 0x100029B58, symSize: 0x78 }
  - { offsetInCU: 0x4CF4F, offset: 0x4CF4F, size: 0x8, addend: 0x0, symName: __ZNSt3__16vectorINS_7__stateIcEENS_9allocatorIS2_EEE5clearB8ue170006Ev, symObjAddr: 0x264C8, symBinAddr: 0x100029BD0, symSize: 0x44 }
  - { offsetInCU: 0x4CF84, offset: 0x4CF84, size: 0x8, addend: 0x0, symName: __ZNSt3__16vectorINS_9sub_matchIPKcEENS_9allocatorIS4_EEEaSB8ue170006ERKS7_, symObjAddr: 0x2650C, symBinAddr: 0x100029C14, symSize: 0x68 }
  - { offsetInCU: 0x4CFBB, offset: 0x4CFBB, size: 0x8, addend: 0x0, symName: __ZNSt3__16vectorINS_4pairImPKcEENS_9allocatorIS4_EEEaSB8ue170006ERKS7_, symObjAddr: 0x26574, symBinAddr: 0x100029C7C, symSize: 0x68 }
  - { offsetInCU: 0x4CFF2, offset: 0x4CFF2, size: 0x8, addend: 0x0, symName: __ZNSt3__16vectorINS_9sub_matchIPKcEENS_9allocatorIS4_EEE19__copy_assign_allocB8ue170006ERKS7_, symObjAddr: 0x265DC, symBinAddr: 0x100029CE4, symSize: 0x2C }
  - { offsetInCU: 0x4D027, offset: 0x4D027, size: 0x8, addend: 0x0, symName: __ZNSt3__16vectorINS_9sub_matchIPKcEENS_9allocatorIS4_EEE6assignIPS4_Li0EEEvT_SA_, symObjAddr: 0x26608, symBinAddr: 0x100029D10, symSize: 0x5C }
  - { offsetInCU: 0x4D07C, offset: 0x4D07C, size: 0x8, addend: 0x0, symName: __ZNSt3__16vectorINS_9sub_matchIPKcEENS_9allocatorIS4_EEE19__copy_assign_allocB8ue170006ERKS7_NS_17integral_constantIbLb0EEE, symObjAddr: 0x26664, symBinAddr: 0x100029D6C, symSize: 0x14 }
  - { offsetInCU: 0x4D0BA, offset: 0x4D0BA, size: 0x8, addend: 0x0, symName: __ZNSt3__16vectorINS_9sub_matchIPKcEENS_9allocatorIS4_EEE18__assign_with_sizeB8ue170006IPS4_S9_EEvT_T0_l, symObjAddr: 0x26678, symBinAddr: 0x100029D80, symSize: 0x164 }
  - { offsetInCU: 0x4D16A, offset: 0x4D16A, size: 0x8, addend: 0x0, symName: __ZNSt3__16vectorINS_9sub_matchIPKcEENS_9allocatorIS4_EEE13__vdeallocateEv, symObjAddr: 0x268C0, symBinAddr: 0x100029FC8, symSize: 0x94 }
  - { offsetInCU: 0x4D19D, offset: 0x4D19D, size: 0x8, addend: 0x0, symName: __ZNKSt3__111__copy_loopINS_17_ClassicAlgPolicyEEclB8ue170006IPNS_9sub_matchIPKcEES8_S8_EENS_4pairIT_T1_EESA_T0_SB_, symObjAddr: 0x26AB4, symBinAddr: 0x10002A1BC, symSize: 0x88 }
  - { offsetInCU: 0x4D208, offset: 0x4D208, size: 0x8, addend: 0x0, symName: __ZNSt3__16vectorINS_4pairImPKcEENS_9allocatorIS4_EEE19__copy_assign_allocB8ue170006ERKS7_, symObjAddr: 0x26B90, symBinAddr: 0x10002A298, symSize: 0x2C }
  - { offsetInCU: 0x4D23D, offset: 0x4D23D, size: 0x8, addend: 0x0, symName: __ZNSt3__16vectorINS_4pairImPKcEENS_9allocatorIS4_EEE6assignIPS4_Li0EEEvT_SA_, symObjAddr: 0x26BBC, symBinAddr: 0x10002A2C4, symSize: 0x5C }
  - { offsetInCU: 0x4D292, offset: 0x4D292, size: 0x8, addend: 0x0, symName: __ZNSt3__16vectorINS_4pairImPKcEENS_9allocatorIS4_EEE19__copy_assign_allocB8ue170006ERKS7_NS_17integral_constantIbLb0EEE, symObjAddr: 0x26C18, symBinAddr: 0x10002A320, symSize: 0x14 }
  - { offsetInCU: 0x4D2D0, offset: 0x4D2D0, size: 0x8, addend: 0x0, symName: __ZNSt3__16vectorINS_4pairImPKcEENS_9allocatorIS4_EEE18__assign_with_sizeB8ue170006IPS4_S9_EEvT_T0_l, symObjAddr: 0x26C2C, symBinAddr: 0x10002A334, symSize: 0x164 }
  - { offsetInCU: 0x4D380, offset: 0x4D380, size: 0x8, addend: 0x0, symName: __ZNSt3__16vectorINS_4pairImPKcEENS_9allocatorIS4_EEE13__vdeallocateEv, symObjAddr: 0x26E74, symBinAddr: 0x10002A57C, symSize: 0x94 }
  - { offsetInCU: 0x4D3A8, offset: 0x4D3A8, size: 0x8, addend: 0x0, symName: __ZNKSt3__111__copy_loopINS_17_ClassicAlgPolicyEEclB8ue170006IPNS_4pairImPKcEES8_S8_EENS4_IT_T1_EES9_T0_SA_, symObjAddr: 0x27060, symBinAddr: 0x10002A768, symSize: 0x88 }
  - { offsetInCU: 0x4D413, offset: 0x4D413, size: 0x8, addend: 0x0, symName: __ZNSt3__14pairImPKcEaSB8ue170006ERKS3_, symObjAddr: 0x27114, symBinAddr: 0x10002A81C, symSize: 0x30 }
  - { offsetInCU: 0x4D448, offset: 0x4D448, size: 0x8, addend: 0x0, symName: __ZNSt3__16vectorINS_4pairImPKcEENS_9allocatorIS4_EEE5clearB8ue170006Ev, symObjAddr: 0x27144, symBinAddr: 0x10002A84C, symSize: 0x44 }
  - { offsetInCU: 0x4D47D, offset: 0x4D47D, size: 0x8, addend: 0x0, symName: __ZNKSt3__16vectorINS_9sub_matchIPKcEENS_9allocatorIS4_EEEixB8ue170006Em, symObjAddr: 0x271B0, symBinAddr: 0x10002A8B8, symSize: 0x2C }
  - { offsetInCU: 0x4D4B4, offset: 0x4D4B4, size: 0x8, addend: 0x0, symName: __ZNKSt3__113match_resultsIPKcNS_9allocatorINS_9sub_matchIS2_EEEEE6prefixB8ue170006Ev, symObjAddr: 0x272A0, symBinAddr: 0x10002A9A8, symSize: 0x18 }
  - { offsetInCU: 0x4D4DA, offset: 0x4D4DA, size: 0x8, addend: 0x0, symName: __ZNSt3__16vectorINS_9sub_matchINS_11__wrap_iterIPKcEEEENS_9allocatorIS6_EEE6resizeEm, symObjAddr: 0x272B8, symBinAddr: 0x10002A9C0, symSize: 0x9C }
  - { offsetInCU: 0x4D520, offset: 0x4D520, size: 0x8, addend: 0x0, symName: __ZNSt3__16vectorINS_9sub_matchINS_11__wrap_iterIPKcEEEENS_9allocatorIS6_EEEixB8ue170006Em, symObjAddr: 0x27390, symBinAddr: 0x10002AA98, symSize: 0x2C }
  - { offsetInCU: 0x4D557, offset: 0x4D557, size: 0x8, addend: 0x0, symName: __ZNKSt3__113match_resultsIPKcNS_9allocatorINS_9sub_matchIS2_EEEEE6suffixB8ue170006Ev, symObjAddr: 0x273BC, symBinAddr: 0x10002AAC4, symSize: 0x18 }
  - { offsetInCU: 0x4D57D, offset: 0x4D57D, size: 0x8, addend: 0x0, symName: __ZNKSt3__113match_resultsIPKcNS_9allocatorINS_9sub_matchIS2_EEEEE5readyB8ue170006Ev, symObjAddr: 0x273D4, symBinAddr: 0x10002AADC, symSize: 0x1C }
  - { offsetInCU: 0x4D5A3, offset: 0x4D5A3, size: 0x8, addend: 0x0, symName: __ZNSt3__16vectorINS_9sub_matchINS_11__wrap_iterIPKcEEEENS_9allocatorIS6_EEE8__appendEm, symObjAddr: 0x273F0, symBinAddr: 0x10002AAF8, symSize: 0x108 }
  - { offsetInCU: 0x4D5FE, offset: 0x4D5FE, size: 0x8, addend: 0x0, symName: __ZNSt3__16vectorINS_9sub_matchINS_11__wrap_iterIPKcEEEENS_9allocatorIS6_EEE17__destruct_at_endB8ue170006EPS6_, symObjAddr: 0x274F8, symBinAddr: 0x10002AC00, symSize: 0x4C }
  - { offsetInCU: 0x4D642, offset: 0x4D642, size: 0x8, addend: 0x0, symName: __ZNSt3__16vectorINS_9sub_matchINS_11__wrap_iterIPKcEEEENS_9allocatorIS6_EEE9__end_capB8ue170006Ev, symObjAddr: 0x27544, symBinAddr: 0x10002AC4C, symSize: 0x28 }
  - { offsetInCU: 0x4D668, offset: 0x4D668, size: 0x8, addend: 0x0, symName: __ZNSt3__16vectorINS_9sub_matchINS_11__wrap_iterIPKcEEEENS_9allocatorIS6_EEE18__construct_at_endEm, symObjAddr: 0x2756C, symBinAddr: 0x10002AC74, symSize: 0xC8 }
  - { offsetInCU: 0x4D6DA, offset: 0x4D6DA, size: 0x8, addend: 0x0, symName: __ZNKSt3__16vectorINS_9sub_matchINS_11__wrap_iterIPKcEEEENS_9allocatorIS6_EEE11__recommendB8ue170006Em, symObjAddr: 0x27634, symBinAddr: 0x10002AD3C, symSize: 0xB4 }
  - { offsetInCU: 0x4D72F, offset: 0x4D72F, size: 0x8, addend: 0x0, symName: __ZNSt3__114__split_bufferINS_9sub_matchINS_11__wrap_iterIPKcEEEERNS_9allocatorIS6_EEEC1EmmS9_, symObjAddr: 0x276E8, symBinAddr: 0x10002ADF0, symSize: 0x44 }
  - { offsetInCU: 0x4D785, offset: 0x4D785, size: 0x8, addend: 0x0, symName: __ZNSt3__114__split_bufferINS_9sub_matchINS_11__wrap_iterIPKcEEEERNS_9allocatorIS6_EEE18__construct_at_endEm, symObjAddr: 0x2772C, symBinAddr: 0x10002AE34, symSize: 0xB4 }
  - { offsetInCU: 0x4D7CA, offset: 0x4D7CA, size: 0x8, addend: 0x0, symName: __ZNSt3__114__split_bufferINS_9sub_matchINS_11__wrap_iterIPKcEEEERNS_9allocatorIS6_EEED1Ev, symObjAddr: 0x278F0, symBinAddr: 0x10002AFF8, symSize: 0x2C }
  - { offsetInCU: 0x4D7F6, offset: 0x4D7F6, size: 0x8, addend: 0x0, symName: __ZNSt3__117__compressed_pairIPNS_9sub_matchINS_11__wrap_iterIPKcEEEENS_9allocatorIS6_EEE5firstB8ue170006Ev, symObjAddr: 0x2791C, symBinAddr: 0x10002B024, symSize: 0x24 }
  - { offsetInCU: 0x4D81C, offset: 0x4D81C, size: 0x8, addend: 0x0, symName: __ZNSt3__122__compressed_pair_elemIPNS_9sub_matchINS_11__wrap_iterIPKcEEEELi0ELb0EE5__getB8ue170006Ev, symObjAddr: 0x27940, symBinAddr: 0x10002B048, symSize: 0x14 }
  - { offsetInCU: 0x4D85E, offset: 0x4D85E, size: 0x8, addend: 0x0, symName: __ZNSt3__16vectorINS_9sub_matchINS_11__wrap_iterIPKcEEEENS_9allocatorIS6_EEE21_ConstructTransactionC1B8ue170006ERS9_m, symObjAddr: 0x27954, symBinAddr: 0x10002B05C, symSize: 0x3C }
  - { offsetInCU: 0x4D8A6, offset: 0x4D8A6, size: 0x8, addend: 0x0, symName: __ZNSt3__116allocator_traitsINS_9allocatorINS_9sub_matchINS_11__wrap_iterIPKcEEEEEEE9constructB8ue170006IS7_JEvEEvRS8_PT_DpOT0_, symObjAddr: 0x27990, symBinAddr: 0x10002B098, symSize: 0x2C }
  - { offsetInCU: 0x4D8E8, offset: 0x4D8E8, size: 0x8, addend: 0x0, symName: __ZNSt3__16vectorINS_9sub_matchINS_11__wrap_iterIPKcEEEENS_9allocatorIS6_EEE21_ConstructTransactionD1B8ue170006Ev, symObjAddr: 0x279BC, symBinAddr: 0x10002B0C4, symSize: 0x2C }
  - { offsetInCU: 0x4D912, offset: 0x4D912, size: 0x8, addend: 0x0, symName: __ZNSt3__16vectorINS_9sub_matchINS_11__wrap_iterIPKcEEEENS_9allocatorIS6_EEE21_ConstructTransactionC2B8ue170006ERS9_m, symObjAddr: 0x279E8, symBinAddr: 0x10002B0F0, symSize: 0x4C }
  - { offsetInCU: 0x4D95A, offset: 0x4D95A, size: 0x8, addend: 0x0, symName: __ZNSt3__19allocatorINS_9sub_matchINS_11__wrap_iterIPKcEEEEE9constructB8ue170006IS6_JEEEvPT_DpOT0_, symObjAddr: 0x27A34, symBinAddr: 0x10002B13C, symSize: 0x28 }
  - { offsetInCU: 0x4D99C, offset: 0x4D99C, size: 0x8, addend: 0x0, symName: __ZNSt3__16vectorINS_9sub_matchINS_11__wrap_iterIPKcEEEENS_9allocatorIS6_EEE21_ConstructTransactionD2B8ue170006Ev, symObjAddr: 0x27A5C, symBinAddr: 0x10002B164, symSize: 0x20 }
  - { offsetInCU: 0x4D9C6, offset: 0x4D9C6, size: 0x8, addend: 0x0, symName: __ZNKSt3__16vectorINS_9sub_matchINS_11__wrap_iterIPKcEEEENS_9allocatorIS6_EEE8max_sizeEv, symObjAddr: 0x27A7C, symBinAddr: 0x10002B184, symSize: 0x60 }
  - { offsetInCU: 0x4D9EE, offset: 0x4D9EE, size: 0x8, addend: 0x0, symName: __ZNKSt3__16vectorINS_9sub_matchINS_11__wrap_iterIPKcEEEENS_9allocatorIS6_EEE20__throw_length_errorB8ue170006Ev, symObjAddr: 0x27ADC, symBinAddr: 0x10002B1E4, symSize: 0x1C }
  - { offsetInCU: 0x4DA1F, offset: 0x4DA1F, size: 0x8, addend: 0x0, symName: __ZNSt3__116allocator_traitsINS_9allocatorINS_9sub_matchINS_11__wrap_iterIPKcEEEEEEE8max_sizeB8ue170006IS8_vEEmRKS8_, symObjAddr: 0x27AF8, symBinAddr: 0x10002B200, symSize: 0x24 }
  - { offsetInCU: 0x4DA4D, offset: 0x4DA4D, size: 0x8, addend: 0x0, symName: __ZNKSt3__16vectorINS_9sub_matchINS_11__wrap_iterIPKcEEEENS_9allocatorIS6_EEE7__allocB8ue170006Ev, symObjAddr: 0x27B1C, symBinAddr: 0x10002B224, symSize: 0x28 }
  - { offsetInCU: 0x4DA73, offset: 0x4DA73, size: 0x8, addend: 0x0, symName: __ZNKSt3__19allocatorINS_9sub_matchINS_11__wrap_iterIPKcEEEEE8max_sizeB8ue170006Ev, symObjAddr: 0x27B44, symBinAddr: 0x10002B24C, symSize: 0x18 }
  - { offsetInCU: 0x4DA99, offset: 0x4DA99, size: 0x8, addend: 0x0, symName: __ZNKSt3__117__compressed_pairIPNS_9sub_matchINS_11__wrap_iterIPKcEEEENS_9allocatorIS6_EEE6secondB8ue170006Ev, symObjAddr: 0x27B5C, symBinAddr: 0x10002B264, symSize: 0x24 }
  - { offsetInCU: 0x4DABF, offset: 0x4DABF, size: 0x8, addend: 0x0, symName: __ZNKSt3__122__compressed_pair_elemINS_9allocatorINS_9sub_matchINS_11__wrap_iterIPKcEEEEEELi1ELb1EE5__getB8ue170006Ev, symObjAddr: 0x27B80, symBinAddr: 0x10002B288, symSize: 0x14 }
  - { offsetInCU: 0x4DAE5, offset: 0x4DAE5, size: 0x8, addend: 0x0, symName: __ZNSt3__114__split_bufferINS_9sub_matchINS_11__wrap_iterIPKcEEEERNS_9allocatorIS6_EEEC2EmmS9_, symObjAddr: 0x27B94, symBinAddr: 0x10002B29C, symSize: 0xE0 }
  - { offsetInCU: 0x4DB58, offset: 0x4DB58, size: 0x8, addend: 0x0, symName: __ZNSt3__117__compressed_pairIPNS_9sub_matchINS_11__wrap_iterIPKcEEEERNS_9allocatorIS6_EEEC1B8ue170006IDnSA_EEOT_OT0_, symObjAddr: 0x27C74, symBinAddr: 0x10002B37C, symSize: 0x3C }
  - { offsetInCU: 0x4DBB0, offset: 0x4DBB0, size: 0x8, addend: 0x0, symName: __ZNSt3__114__split_bufferINS_9sub_matchINS_11__wrap_iterIPKcEEEERNS_9allocatorIS6_EEE7__allocB8ue170006Ev, symObjAddr: 0x27CF0, symBinAddr: 0x10002B3F8, symSize: 0x28 }
  - { offsetInCU: 0x4DBD6, offset: 0x4DBD6, size: 0x8, addend: 0x0, symName: __ZNSt3__114__split_bufferINS_9sub_matchINS_11__wrap_iterIPKcEEEERNS_9allocatorIS6_EEE9__end_capB8ue170006Ev, symObjAddr: 0x27D18, symBinAddr: 0x10002B420, symSize: 0x28 }
  - { offsetInCU: 0x4DBFC, offset: 0x4DBFC, size: 0x8, addend: 0x0, symName: __ZNSt3__117__compressed_pairIPNS_9sub_matchINS_11__wrap_iterIPKcEEEERNS_9allocatorIS6_EEEC2B8ue170006IDnSA_EEOT_OT0_, symObjAddr: 0x27D40, symBinAddr: 0x10002B448, symSize: 0x48 }
  - { offsetInCU: 0x4DC54, offset: 0x4DC54, size: 0x8, addend: 0x0, symName: __ZNSt3__122__compressed_pair_elemIRNS_9allocatorINS_9sub_matchINS_11__wrap_iterIPKcEEEEEELi1ELb0EEC2B8ue170006IS9_vEEOT_, symObjAddr: 0x27D88, symBinAddr: 0x10002B490, symSize: 0x20 }
  - { offsetInCU: 0x4DC96, offset: 0x4DC96, size: 0x8, addend: 0x0, symName: __ZNSt3__19allocatorINS_9sub_matchINS_11__wrap_iterIPKcEEEEE8allocateB8ue170006Em, symObjAddr: 0x27DA8, symBinAddr: 0x10002B4B0, symSize: 0x5C }
  - { offsetInCU: 0x4DCCA, offset: 0x4DCCA, size: 0x8, addend: 0x0, symName: __ZNSt3__117__compressed_pairIPNS_9sub_matchINS_11__wrap_iterIPKcEEEERNS_9allocatorIS6_EEE6secondB8ue170006Ev, symObjAddr: 0x27E04, symBinAddr: 0x10002B50C, symSize: 0x28 }
  - { offsetInCU: 0x4DCF0, offset: 0x4DCF0, size: 0x8, addend: 0x0, symName: __ZNSt3__122__compressed_pair_elemIRNS_9allocatorINS_9sub_matchINS_11__wrap_iterIPKcEEEEEELi1ELb0EE5__getB8ue170006Ev, symObjAddr: 0x27E2C, symBinAddr: 0x10002B534, symSize: 0x18 }
  - { offsetInCU: 0x4DD16, offset: 0x4DD16, size: 0x8, addend: 0x0, symName: __ZNSt3__117__compressed_pairIPNS_9sub_matchINS_11__wrap_iterIPKcEEEERNS_9allocatorIS6_EEE5firstB8ue170006Ev, symObjAddr: 0x27E44, symBinAddr: 0x10002B54C, symSize: 0x24 }
  - { offsetInCU: 0x4DD48, offset: 0x4DD48, size: 0x8, addend: 0x0, symName: __ZNSt3__114__split_bufferINS_9sub_matchINS_11__wrap_iterIPKcEEEERNS_9allocatorIS6_EEE21_ConstructTransactionC1B8ue170006EPPS6_m, symObjAddr: 0x27E68, symBinAddr: 0x10002B570, symSize: 0x3C }
  - { offsetInCU: 0x4DD8E, offset: 0x4DD8E, size: 0x8, addend: 0x0, symName: __ZNSt3__114__split_bufferINS_9sub_matchINS_11__wrap_iterIPKcEEEERNS_9allocatorIS6_EEE21_ConstructTransactionD1B8ue170006Ev, symObjAddr: 0x27EA4, symBinAddr: 0x10002B5AC, symSize: 0x2C }
  - { offsetInCU: 0x4DDB8, offset: 0x4DDB8, size: 0x8, addend: 0x0, symName: __ZNSt3__114__split_bufferINS_9sub_matchINS_11__wrap_iterIPKcEEEERNS_9allocatorIS6_EEE21_ConstructTransactionC2B8ue170006EPPS6_m, symObjAddr: 0x27ED0, symBinAddr: 0x10002B5D8, symSize: 0x4C }
  - { offsetInCU: 0x4DDFE, offset: 0x4DDFE, size: 0x8, addend: 0x0, symName: __ZNSt3__114__split_bufferINS_9sub_matchINS_11__wrap_iterIPKcEEEERNS_9allocatorIS6_EEE21_ConstructTransactionD2B8ue170006Ev, symObjAddr: 0x27F1C, symBinAddr: 0x10002B624, symSize: 0x20 }
  - { offsetInCU: 0x4DE28, offset: 0x4DE28, size: 0x8, addend: 0x0, symName: __ZNSt3__116reverse_iteratorIPNS_9sub_matchINS_11__wrap_iterIPKcEEEEEC1B8ue170006ES7_, symObjAddr: 0x28068, symBinAddr: 0x10002B770, symSize: 0x34 }
  - { offsetInCU: 0x4DE60, offset: 0x4DE60, size: 0x8, addend: 0x0, symName: __ZNKSt3__116reverse_iteratorIPNS_9sub_matchINS_11__wrap_iterIPKcEEEEE4baseB8ue170006Ev, symObjAddr: 0x2809C, symBinAddr: 0x10002B7A4, symSize: 0x18 }
  - { offsetInCU: 0x4DE86, offset: 0x4DE86, size: 0x8, addend: 0x0, symName: __ZNKSt3__16vectorINS_9sub_matchINS_11__wrap_iterIPKcEEEENS_9allocatorIS6_EEE14__annotate_newB8ue170006Em, symObjAddr: 0x280F0, symBinAddr: 0x10002B7F8, symSize: 0xC8 }
  - { offsetInCU: 0x4DEBB, offset: 0x4DEBB, size: 0x8, addend: 0x0, symName: __ZNSt3__129_AllocatorDestroyRangeReverseINS_9allocatorINS_9sub_matchINS_11__wrap_iterIPKcEEEEEENS_16reverse_iteratorIPS7_EEEC1B8ue170006ERS8_RSB_SE_, symObjAddr: 0x28204, symBinAddr: 0x10002B90C, symSize: 0x44 }
  - { offsetInCU: 0x4DF18, offset: 0x4DF18, size: 0x8, addend: 0x0, symName: __ZNSt3__116allocator_traitsINS_9allocatorINS_9sub_matchINS_11__wrap_iterIPKcEEEEEEE9constructB8ue170006IS7_JS7_EvEEvRS8_PT_DpOT0_, symObjAddr: 0x28290, symBinAddr: 0x10002B998, symSize: 0x34 }
  - { offsetInCU: 0x4DF6F, offset: 0x4DF6F, size: 0x8, addend: 0x0, symName: __ZNKSt3__116reverse_iteratorIPNS_9sub_matchINS_11__wrap_iterIPKcEEEEEdeB8ue170006Ev, symObjAddr: 0x282E8, symBinAddr: 0x10002B9F0, symSize: 0x28 }
  - { offsetInCU: 0x4DFA3, offset: 0x4DFA3, size: 0x8, addend: 0x0, symName: __ZNSt3__116reverse_iteratorIPNS_9sub_matchINS_11__wrap_iterIPKcEEEEEppB8ue170006Ev, symObjAddr: 0x28310, symBinAddr: 0x10002BA18, symSize: 0x20 }
  - { offsetInCU: 0x4DFC9, offset: 0x4DFC9, size: 0x8, addend: 0x0, symName: __ZNSt3__128__exception_guard_exceptionsINS_29_AllocatorDestroyRangeReverseINS_9allocatorINS_9sub_matchINS_11__wrap_iterIPKcEEEEEENS_16reverse_iteratorIPS8_EEEEE10__completeB8ue170006Ev, symObjAddr: 0x28330, symBinAddr: 0x10002BA38, symSize: 0x1C }
  - { offsetInCU: 0x4DFEF, offset: 0x4DFEF, size: 0x8, addend: 0x0, symName: __ZNSt3__128__exception_guard_exceptionsINS_29_AllocatorDestroyRangeReverseINS_9allocatorINS_9sub_matchINS_11__wrap_iterIPKcEEEEEENS_16reverse_iteratorIPS8_EEEEED1B8ue170006Ev, symObjAddr: 0x2834C, symBinAddr: 0x10002BA54, symSize: 0x2C }
  - { offsetInCU: 0x4E019, offset: 0x4E019, size: 0x8, addend: 0x0, symName: __ZNSt3__128__exception_guard_exceptionsINS_29_AllocatorDestroyRangeReverseINS_9allocatorINS_9sub_matchINS_11__wrap_iterIPKcEEEEEENS_16reverse_iteratorIPS8_EEEEEC1B8ue170006ESD_, symObjAddr: 0x28378, symBinAddr: 0x10002BA80, symSize: 0x34 }
  - { offsetInCU: 0x4E052, offset: 0x4E052, size: 0x8, addend: 0x0, symName: __ZNSt3__128__exception_guard_exceptionsINS_29_AllocatorDestroyRangeReverseINS_9allocatorINS_9sub_matchINS_11__wrap_iterIPKcEEEEEENS_16reverse_iteratorIPS8_EEEEEC2B8ue170006ESD_, symObjAddr: 0x283AC, symBinAddr: 0x10002BAB4, symSize: 0x30 }
  - { offsetInCU: 0x4E08B, offset: 0x4E08B, size: 0x8, addend: 0x0, symName: __ZNSt3__129_AllocatorDestroyRangeReverseINS_9allocatorINS_9sub_matchINS_11__wrap_iterIPKcEEEEEENS_16reverse_iteratorIPS7_EEEC2B8ue170006ERS8_RSB_SE_, symObjAddr: 0x283DC, symBinAddr: 0x10002BAE4, symSize: 0x38 }
  - { offsetInCU: 0x4E0E2, offset: 0x4E0E2, size: 0x8, addend: 0x0, symName: __ZNSt3__19allocatorINS_9sub_matchINS_11__wrap_iterIPKcEEEEE9constructB8ue170006IS6_JS6_EEEvPT_DpOT0_, symObjAddr: 0x28414, symBinAddr: 0x10002BB1C, symSize: 0x30 }
  - { offsetInCU: 0x4E13E, offset: 0x4E13E, size: 0x8, addend: 0x0, symName: __ZNSt3__119__to_address_helperINS_16reverse_iteratorIPNS_9sub_matchINS_11__wrap_iterIPKcEEEEEEvE6__callB8ue170006ERKS9_, symObjAddr: 0x28444, symBinAddr: 0x10002BB4C, symSize: 0x38 }
  - { offsetInCU: 0x4E161, offset: 0x4E161, size: 0x8, addend: 0x0, symName: __ZNKSt3__116reverse_iteratorIPNS_9sub_matchINS_11__wrap_iterIPKcEEEEEptB8ue170006Ev, symObjAddr: 0x2847C, symBinAddr: 0x10002BB84, symSize: 0x24 }
  - { offsetInCU: 0x4E187, offset: 0x4E187, size: 0x8, addend: 0x0, symName: __ZNSt3__128__exception_guard_exceptionsINS_29_AllocatorDestroyRangeReverseINS_9allocatorINS_9sub_matchINS_11__wrap_iterIPKcEEEEEENS_16reverse_iteratorIPS8_EEEEED2B8ue170006Ev, symObjAddr: 0x284A0, symBinAddr: 0x10002BBA8, symSize: 0x50 }
  - { offsetInCU: 0x4E1B1, offset: 0x4E1B1, size: 0x8, addend: 0x0, symName: __ZNKSt3__129_AllocatorDestroyRangeReverseINS_9allocatorINS_9sub_matchINS_11__wrap_iterIPKcEEEEEENS_16reverse_iteratorIPS7_EEEclB8ue170006Ev, symObjAddr: 0x284F0, symBinAddr: 0x10002BBF8, symSize: 0xB4 }
  - { offsetInCU: 0x4E1D8, offset: 0x4E1D8, size: 0x8, addend: 0x0, symName: __ZNSt3__116reverse_iteratorINS0_IPNS_9sub_matchINS_11__wrap_iterIPKcEEEEEEEC1B8ue170006ES8_, symObjAddr: 0x28614, symBinAddr: 0x10002BD1C, symSize: 0x3C }
  - { offsetInCU: 0x4E210, offset: 0x4E210, size: 0x8, addend: 0x0, symName: __ZNSt3__116reverse_iteratorINS0_IPNS_9sub_matchINS_11__wrap_iterIPKcEEEEEEEppB8ue170006Ev, symObjAddr: 0x286D4, symBinAddr: 0x10002BDDC, symSize: 0x30 }
  - { offsetInCU: 0x4E236, offset: 0x4E236, size: 0x8, addend: 0x0, symName: __ZNKSt3__116reverse_iteratorINS0_IPNS_9sub_matchINS_11__wrap_iterIPKcEEEEEEE4baseB8ue170006Ev, symObjAddr: 0x28704, symBinAddr: 0x10002BE0C, symSize: 0x24 }
  - { offsetInCU: 0x4E262, offset: 0x4E262, size: 0x8, addend: 0x0, symName: __ZNSt3__119__to_address_helperINS_16reverse_iteratorINS1_IPNS_9sub_matchINS_11__wrap_iterIPKcEEEEEEEEvE6__callB8ue170006ERKSA_, symObjAddr: 0x28728, symBinAddr: 0x10002BE30, symSize: 0x38 }
  - { offsetInCU: 0x4E285, offset: 0x4E285, size: 0x8, addend: 0x0, symName: __ZNKSt3__116reverse_iteratorINS0_IPNS_9sub_matchINS_11__wrap_iterIPKcEEEEEEEptB8ue170006Ev, symObjAddr: 0x28760, symBinAddr: 0x10002BE68, symSize: 0x24 }
  - { offsetInCU: 0x4E2AB, offset: 0x4E2AB, size: 0x8, addend: 0x0, symName: __ZNKSt3__116reverse_iteratorINS0_IPNS_9sub_matchINS_11__wrap_iterIPKcEEEEEEEdeB8ue170006Ev, symObjAddr: 0x28784, symBinAddr: 0x10002BE8C, symSize: 0x34 }
  - { offsetInCU: 0x4E2DF, offset: 0x4E2DF, size: 0x8, addend: 0x0, symName: __ZNSt3__116reverse_iteratorIPNS_9sub_matchINS_11__wrap_iterIPKcEEEEEmmB8ue170006Ev, symObjAddr: 0x287B8, symBinAddr: 0x10002BEC0, symSize: 0x20 }
  - { offsetInCU: 0x4E305, offset: 0x4E305, size: 0x8, addend: 0x0, symName: __ZNSt3__116reverse_iteratorINS0_IPNS_9sub_matchINS_11__wrap_iterIPKcEEEEEEEC2B8ue170006ES8_, symObjAddr: 0x287D8, symBinAddr: 0x10002BEE0, symSize: 0x2C }
  - { offsetInCU: 0x4E33D, offset: 0x4E33D, size: 0x8, addend: 0x0, symName: __ZNSt3__116reverse_iteratorIPNS_9sub_matchINS_11__wrap_iterIPKcEEEEEC2B8ue170006ES7_, symObjAddr: 0x28804, symBinAddr: 0x10002BF0C, symSize: 0x28 }
  - { offsetInCU: 0x4E375, offset: 0x4E375, size: 0x8, addend: 0x0, symName: __ZNSt3__114__split_bufferINS_9sub_matchINS_11__wrap_iterIPKcEEEERNS_9allocatorIS6_EEED2Ev, symObjAddr: 0x2882C, symBinAddr: 0x10002BF34, symSize: 0x8C }
  - { offsetInCU: 0x4E3A1, offset: 0x4E3A1, size: 0x8, addend: 0x0, symName: __ZNSt3__114__split_bufferINS_9sub_matchINS_11__wrap_iterIPKcEEEERNS_9allocatorIS6_EEE5clearB8ue170006Ev, symObjAddr: 0x288B8, symBinAddr: 0x10002BFC0, symSize: 0x28 }
  - { offsetInCU: 0x4E3C7, offset: 0x4E3C7, size: 0x8, addend: 0x0, symName: __ZNKSt3__114__split_bufferINS_9sub_matchINS_11__wrap_iterIPKcEEEERNS_9allocatorIS6_EEE8capacityB8ue170006Ev, symObjAddr: 0x288E0, symBinAddr: 0x10002BFE8, symSize: 0x40 }
  - { offsetInCU: 0x4E3ED, offset: 0x4E3ED, size: 0x8, addend: 0x0, symName: __ZNSt3__114__split_bufferINS_9sub_matchINS_11__wrap_iterIPKcEEEERNS_9allocatorIS6_EEE17__destruct_at_endB8ue170006EPS6_, symObjAddr: 0x28920, symBinAddr: 0x10002C028, symSize: 0x2C }
  - { offsetInCU: 0x4E421, offset: 0x4E421, size: 0x8, addend: 0x0, symName: __ZNSt3__114__split_bufferINS_9sub_matchINS_11__wrap_iterIPKcEEEERNS_9allocatorIS6_EEE17__destruct_at_endB8ue170006EPS6_NS_17integral_constantIbLb0EEE, symObjAddr: 0x2894C, symBinAddr: 0x10002C054, symSize: 0x80 }
  - { offsetInCU: 0x4E461, offset: 0x4E461, size: 0x8, addend: 0x0, symName: __ZNKSt3__114__split_bufferINS_9sub_matchINS_11__wrap_iterIPKcEEEERNS_9allocatorIS6_EEE9__end_capB8ue170006Ev, symObjAddr: 0x289CC, symBinAddr: 0x10002C0D4, symSize: 0x28 }
  - { offsetInCU: 0x4E487, offset: 0x4E487, size: 0x8, addend: 0x0, symName: __ZNKSt3__117__compressed_pairIPNS_9sub_matchINS_11__wrap_iterIPKcEEEERNS_9allocatorIS6_EEE5firstB8ue170006Ev, symObjAddr: 0x289F4, symBinAddr: 0x10002C0FC, symSize: 0x24 }
  - { offsetInCU: 0x4E4AD, offset: 0x4E4AD, size: 0x8, addend: 0x0, symName: __ZNKSt3__16vectorINS_9sub_matchINS_11__wrap_iterIPKcEEEENS_9allocatorIS6_EEE17__annotate_shrinkB8ue170006Em, symObjAddr: 0x28A18, symBinAddr: 0x10002C120, symSize: 0xD0 }
  - { offsetInCU: 0x4E4E2, offset: 0x4E4E2, size: 0x8, addend: 0x0, symName: __ZNSt3__111__wrap_iterIPKcEpLB8ue170006El, symObjAddr: 0x28B4C, symBinAddr: 0x10002C254, symSize: 0x28 }
  - { offsetInCU: 0x4E516, offset: 0x4E516, size: 0x8, addend: 0x0, symName: __ZNSt3__113match_resultsIPKcNS_9allocatorINS_9sub_matchIS2_EEEEED2Ev, symObjAddr: 0x28B74, symBinAddr: 0x10002C27C, symSize: 0x2C }
  - { offsetInCU: 0x4E543, offset: 0x4E543, size: 0x8, addend: 0x0, symName: __ZNSt3__16vectorINS_12basic_stringIcNS_11char_traitsIcEENS_9allocatorIcEEEENS4_IS6_EEED2B8ue170006Ev, symObjAddr: 0x28BA0, symBinAddr: 0x10002C2A8, symSize: 0x44 }
  - { offsetInCU: 0x4E56D, offset: 0x4E56D, size: 0x8, addend: 0x0, symName: __ZNSt3__16vectorINS_12basic_stringIcNS_11char_traitsIcEENS_9allocatorIcEEEENS4_IS6_EEE16__destroy_vectorC1B8ue170006ERS8_, symObjAddr: 0x28BE4, symBinAddr: 0x10002C2EC, symSize: 0x34 }
  - { offsetInCU: 0x4E5A6, offset: 0x4E5A6, size: 0x8, addend: 0x0, symName: __ZNSt3__16vectorINS_12basic_stringIcNS_11char_traitsIcEENS_9allocatorIcEEEENS4_IS6_EEE16__destroy_vectorclB8ue170006Ev, symObjAddr: 0x28C18, symBinAddr: 0x10002C320, symSize: 0x90 }
  - { offsetInCU: 0x4E5CC, offset: 0x4E5CC, size: 0x8, addend: 0x0, symName: __ZNSt3__16vectorINS_12basic_stringIcNS_11char_traitsIcEENS_9allocatorIcEEEENS4_IS6_EEE16__destroy_vectorC2B8ue170006ERS8_, symObjAddr: 0x28CA8, symBinAddr: 0x10002C3B0, symSize: 0x20 }
  - { offsetInCU: 0x4E605, offset: 0x4E605, size: 0x8, addend: 0x0, symName: __ZNSt3__16vectorINS_12basic_stringIcNS_11char_traitsIcEENS_9allocatorIcEEEENS4_IS6_EEE7__clearB8ue170006Ev, symObjAddr: 0x28CC8, symBinAddr: 0x10002C3D0, symSize: 0x28 }
  - { offsetInCU: 0x4E62B, offset: 0x4E62B, size: 0x8, addend: 0x0, symName: __ZNKSt3__16vectorINS_12basic_stringIcNS_11char_traitsIcEENS_9allocatorIcEEEENS4_IS6_EEE17__annotate_deleteB8ue170006Ev, symObjAddr: 0x28CF0, symBinAddr: 0x10002C3F8, symSize: 0xD4 }
  - { offsetInCU: 0x4E651, offset: 0x4E651, size: 0x8, addend: 0x0, symName: __ZNSt3__16vectorINS_12basic_stringIcNS_11char_traitsIcEENS_9allocatorIcEEEENS4_IS6_EEE7__allocB8ue170006Ev, symObjAddr: 0x28DC4, symBinAddr: 0x10002C4CC, symSize: 0x28 }
  - { offsetInCU: 0x4E677, offset: 0x4E677, size: 0x8, addend: 0x0, symName: __ZNKSt3__16vectorINS_12basic_stringIcNS_11char_traitsIcEENS_9allocatorIcEEEENS4_IS6_EEE8capacityB8ue170006Ev, symObjAddr: 0x28DEC, symBinAddr: 0x10002C4F4, symSize: 0x40 }
  - { offsetInCU: 0x4E69D, offset: 0x4E69D, size: 0x8, addend: 0x0, symName: __ZNSt3__16vectorINS_12basic_stringIcNS_11char_traitsIcEENS_9allocatorIcEEEENS4_IS6_EEE22__base_destruct_at_endB8ue170006EPS6_, symObjAddr: 0x28E2C, symBinAddr: 0x10002C534, symSize: 0x8C }
  - { offsetInCU: 0x4E6E1, offset: 0x4E6E1, size: 0x8, addend: 0x0, symName: __ZNKSt3__16vectorINS_12basic_stringIcNS_11char_traitsIcEENS_9allocatorIcEEEENS4_IS6_EEE31__annotate_contiguous_containerB8ue170006EPKvSA_SA_SA_, symObjAddr: 0x28EB8, symBinAddr: 0x10002C5C0, symSize: 0x20 }
  - { offsetInCU: 0x4E737, offset: 0x4E737, size: 0x8, addend: 0x0, symName: __ZNKSt3__16vectorINS_12basic_stringIcNS_11char_traitsIcEENS_9allocatorIcEEEENS4_IS6_EEE4dataB8ue170006Ev, symObjAddr: 0x28ED8, symBinAddr: 0x10002C5E0, symSize: 0x28 }
  - { offsetInCU: 0x4E75D, offset: 0x4E75D, size: 0x8, addend: 0x0, symName: __ZNSt3__117__compressed_pairIPNS_12basic_stringIcNS_11char_traitsIcEENS_9allocatorIcEEEENS4_IS6_EEE6secondB8ue170006Ev, symObjAddr: 0x28F00, symBinAddr: 0x10002C608, symSize: 0x24 }
  - { offsetInCU: 0x4E783, offset: 0x4E783, size: 0x8, addend: 0x0, symName: __ZNKSt3__16vectorINS_12basic_stringIcNS_11char_traitsIcEENS_9allocatorIcEEEENS4_IS6_EEE9__end_capB8ue170006Ev, symObjAddr: 0x28F24, symBinAddr: 0x10002C62C, symSize: 0x28 }
  - { offsetInCU: 0x4E7A9, offset: 0x4E7A9, size: 0x8, addend: 0x0, symName: __ZNKSt3__117__compressed_pairIPNS_12basic_stringIcNS_11char_traitsIcEENS_9allocatorIcEEEENS4_IS6_EEE5firstB8ue170006Ev, symObjAddr: 0x28F4C, symBinAddr: 0x10002C654, symSize: 0x24 }
  - { offsetInCU: 0x4E7CF, offset: 0x4E7CF, size: 0x8, addend: 0x0, symName: __ZNKSt3__122__compressed_pair_elemIPNS_12basic_stringIcNS_11char_traitsIcEENS_9allocatorIcEEEELi0ELb0EE5__getB8ue170006Ev, symObjAddr: 0x28F70, symBinAddr: 0x10002C678, symSize: 0x14 }
  - { offsetInCU: 0x4E7F5, offset: 0x4E7F5, size: 0x8, addend: 0x0, symName: __ZNSt3__111basic_regexIcNS_12regex_traitsIcEEEC2B8ue170006Ev, symObjAddr: 0x28F84, symBinAddr: 0x10002C68C, symSize: 0x4C }
  - { offsetInCU: 0x4E81F, offset: 0x4E81F, size: 0x8, addend: 0x0, symName: __ZNSt3__112regex_traitsIcEC1Ev, symObjAddr: 0x28FD0, symBinAddr: 0x10002C6D8, symSize: 0x2C }
  - { offsetInCU: 0x4E84B, offset: 0x4E84B, size: 0x8, addend: 0x0, symName: __ZNSt3__110shared_ptrINS_13__empty_stateIcEEEC1B8ue170006Ev, symObjAddr: 0x28FFC, symBinAddr: 0x10002C704, symSize: 0x2C }
  - { offsetInCU: 0x4E875, offset: 0x4E875, size: 0x8, addend: 0x0, symName: __ZNSt3__112regex_traitsIcEC2Ev, symObjAddr: 0x29028, symBinAddr: 0x10002C730, symSize: 0x5C }
  - { offsetInCU: 0x4E8A1, offset: 0x4E8A1, size: 0x8, addend: 0x0, symName: __ZNSt3__112regex_traitsIcE6__initEv, symObjAddr: 0x29084, symBinAddr: 0x10002C78C, symSize: 0x40 }
  - { offsetInCU: 0x4E8C9, offset: 0x4E8C9, size: 0x8, addend: 0x0, symName: __ZNSt3__110shared_ptrINS_13__empty_stateIcEEEC2B8ue170006Ev, symObjAddr: 0x290F0, symBinAddr: 0x10002C7F8, symSize: 0x1C }
  - { offsetInCU: 0x4E8F3, offset: 0x4E8F3, size: 0x8, addend: 0x0, symName: __ZNSt3__111basic_regexIcNS_12regex_traitsIcEEEC2B8ue170006EPKcNS_15regex_constants18syntax_option_typeE, symObjAddr: 0x2910C, symBinAddr: 0x10002C814, symSize: 0xC8 }
  - { offsetInCU: 0x4E93B, offset: 0x4E93B, size: 0x8, addend: 0x0, symName: __ZNSt3__111basic_regexIcNS_12regex_traitsIcEEE6__initIPKcEEvT_S7_, symObjAddr: 0x291D4, symBinAddr: 0x10002C8DC, symSize: 0x88 }
  - { offsetInCU: 0x4E999, offset: 0x4E999, size: 0x8, addend: 0x0, symName: __ZNSt3__112regex_traitsIcE6lengthB8ue170006EPKc, symObjAddr: 0x2925C, symBinAddr: 0x10002C964, symSize: 0x24 }
  - { offsetInCU: 0x4E9BD, offset: 0x4E9BD, size: 0x8, addend: 0x0, symName: __ZNSt3__111basic_regexIcNS_12regex_traitsIcEEE7__parseIPKcEET_S7_S7_, symObjAddr: 0x292BC, symBinAddr: 0x10002C9C4, symSize: 0x21C }
  - { offsetInCU: 0x4EA38, offset: 0x4EA38, size: 0x8, addend: 0x0, symName: __ZNSt3__111__end_stateIcEC1B8ue170006Ev, symObjAddr: 0x29558, symBinAddr: 0x10002CC60, symSize: 0x2C }
  - { offsetInCU: 0x4EB03, offset: 0x4EB03, size: 0x8, addend: 0x0, symName: __ZNSt3__110unique_ptrINS_6__nodeIcEENS_14default_deleteIS2_EEEC1B8ue170006ILb1EvEEPS2_, symObjAddr: 0x29584, symBinAddr: 0x10002CC8C, symSize: 0x34 }
  - { offsetInCU: 0x4EB4C, offset: 0x4EB4C, size: 0x8, addend: 0x0, symName: __ZNSt3__110shared_ptrINS_13__empty_stateIcEEE5resetB8ue170006IS2_vEEvPT_, symObjAddr: 0x295B8, symBinAddr: 0x10002CCC0, symSize: 0x4C }
  - { offsetInCU: 0x4EB8B, offset: 0x4EB8B, size: 0x8, addend: 0x0, symName: __ZNKSt3__110unique_ptrINS_6__nodeIcEENS_14default_deleteIS2_EEE3getB8ue170006Ev, symObjAddr: 0x29604, symBinAddr: 0x10002CD0C, symSize: 0x28 }
  - { offsetInCU: 0x4EBB1, offset: 0x4EBB1, size: 0x8, addend: 0x0, symName: __ZNSt3__113__empty_stateIcEC1B8ue170006EPNS_6__nodeIcEE, symObjAddr: 0x2962C, symBinAddr: 0x10002CD34, symSize: 0x34 }
  - { offsetInCU: 0x4EBEA, offset: 0x4EBEA, size: 0x8, addend: 0x0, symName: __ZNSt3__110unique_ptrINS_6__nodeIcEENS_14default_deleteIS2_EEE7releaseB8ue170006Ev, symObjAddr: 0x29660, symBinAddr: 0x10002CD68, symSize: 0x44 }
  - { offsetInCU: 0x4EC1F, offset: 0x4EC1F, size: 0x8, addend: 0x0, symName: __ZNSt3__110unique_ptrINS_6__nodeIcEENS_14default_deleteIS2_EEED1B8ue170006Ev, symObjAddr: 0x296A4, symBinAddr: 0x10002CDAC, symSize: 0x2C }
  - { offsetInCU: 0x4EC49, offset: 0x4EC49, size: 0x8, addend: 0x0, symName: __ZNSt3__111basic_regexIcNS_12regex_traitsIcEEE16__parse_ecma_expIPKcEET_S7_S7_, symObjAddr: 0x296D0, symBinAddr: 0x10002CDD8, symSize: 0x124 }
  - { offsetInCU: 0x4ECD3, offset: 0x4ECD3, size: 0x8, addend: 0x0, symName: __ZNSt3__111basic_regexIcNS_12regex_traitsIcEEE21__parse_basic_reg_expIPKcEET_S7_S7_, symObjAddr: 0x297F4, symBinAddr: 0x10002CEFC, symSize: 0x13C }
  - { offsetInCU: 0x4ED3F, offset: 0x4ED3F, size: 0x8, addend: 0x0, symName: __ZNSt3__111basic_regexIcNS_12regex_traitsIcEEE24__parse_extended_reg_expIPKcEET_S7_S7_, symObjAddr: 0x29930, symBinAddr: 0x10002D038, symSize: 0x114 }
  - { offsetInCU: 0x4EDC9, offset: 0x4EDC9, size: 0x8, addend: 0x0, symName: __ZNSt3__111basic_regexIcNS_12regex_traitsIcEEE12__parse_grepIPKcEET_S7_S7_, symObjAddr: 0x29A44, symBinAddr: 0x10002D14C, symSize: 0x17C }
  - { offsetInCU: 0x4EE53, offset: 0x4EE53, size: 0x8, addend: 0x0, symName: __ZNSt3__111basic_regexIcNS_12regex_traitsIcEEE13__parse_egrepIPKcEET_S7_S7_, symObjAddr: 0x29BC0, symBinAddr: 0x10002D2C8, symSize: 0x17C }
  - { offsetInCU: 0x4EEDD, offset: 0x4EEDD, size: 0x8, addend: 0x0, symName: __ZNSt3__111__end_stateIcEC2B8ue170006Ev, symObjAddr: 0x29D9C, symBinAddr: 0x10002D4A4, symSize: 0x44 }
  - { offsetInCU: 0x4EF07, offset: 0x4EF07, size: 0x8, addend: 0x0, symName: __ZNSt3__16__nodeIcEC2B8ue170006Ev, symObjAddr: 0x29DE0, symBinAddr: 0x10002D4E8, symSize: 0x24 }
  - { offsetInCU: 0x4EF31, offset: 0x4EF31, size: 0x8, addend: 0x0, symName: __ZNSt3__111__end_stateIcED1Ev, symObjAddr: 0x29E04, symBinAddr: 0x10002D50C, symSize: 0x2C }
  - { offsetInCU: 0x4EF5E, offset: 0x4EF5E, size: 0x8, addend: 0x0, symName: __ZNSt3__111__end_stateIcED0Ev, symObjAddr: 0x29E30, symBinAddr: 0x10002D538, symSize: 0x30 }
  - { offsetInCU: 0x4EF8B, offset: 0x4EF8B, size: 0x8, addend: 0x0, symName: __ZNKSt3__111__end_stateIcE6__execERNS_7__stateIcEE, symObjAddr: 0x29E60, symBinAddr: 0x10002D568, symSize: 0x20 }
  - { offsetInCU: 0x4EFC2, offset: 0x4EFC2, size: 0x8, addend: 0x0, symName: __ZNKSt3__16__nodeIcE12__exec_splitEbRNS_7__stateIcEE, symObjAddr: 0x29E80, symBinAddr: 0x10002D588, symSize: 0x1C }
  - { offsetInCU: 0x4F000, offset: 0x4F000, size: 0x8, addend: 0x0, symName: __ZNSt3__16__nodeIcED1Ev, symObjAddr: 0x29E9C, symBinAddr: 0x10002D5A4, symSize: 0x2C }
  - { offsetInCU: 0x4F02A, offset: 0x4F02A, size: 0x8, addend: 0x0, symName: __ZNSt3__16__nodeIcED0Ev, symObjAddr: 0x29EC8, symBinAddr: 0x10002D5D0, symSize: 0x30 }
  - { offsetInCU: 0x4F054, offset: 0x4F054, size: 0x8, addend: 0x0, symName: __ZNKSt3__16__nodeIcE6__execERNS_7__stateIcEE, symObjAddr: 0x29EF8, symBinAddr: 0x10002D600, symSize: 0x14 }
  - { offsetInCU: 0x4F086, offset: 0x4F086, size: 0x8, addend: 0x0, symName: __ZNSt3__16__nodeIcED2Ev, symObjAddr: 0x29F0C, symBinAddr: 0x10002D614, symSize: 0x14 }
  - { offsetInCU: 0x4F0B0, offset: 0x4F0B0, size: 0x8, addend: 0x0, symName: __ZNSt3__111__end_stateIcED2Ev, symObjAddr: 0x29F20, symBinAddr: 0x10002D628, symSize: 0x2C }
  - { offsetInCU: 0x4F0DD, offset: 0x4F0DD, size: 0x8, addend: 0x0, symName: __ZNSt3__110unique_ptrINS_6__nodeIcEENS_14default_deleteIS2_EEEC2B8ue170006ILb1EvEEPS2_, symObjAddr: 0x29F4C, symBinAddr: 0x10002D654, symSize: 0x44 }
  - { offsetInCU: 0x4F126, offset: 0x4F126, size: 0x8, addend: 0x0, symName: __ZNSt3__117__compressed_pairIPNS_6__nodeIcEENS_14default_deleteIS2_EEEC1B8ue170006IRS3_NS_16__value_init_tagEEEOT_OT0_, symObjAddr: 0x29F90, symBinAddr: 0x10002D698, symSize: 0x3C }
  - { offsetInCU: 0x4F17E, offset: 0x4F17E, size: 0x8, addend: 0x0, symName: __ZNSt3__117__compressed_pairIPNS_6__nodeIcEENS_14default_deleteIS2_EEEC2B8ue170006IRS3_NS_16__value_init_tagEEEOT_OT0_, symObjAddr: 0x29FCC, symBinAddr: 0x10002D6D4, symSize: 0x40 }
  - { offsetInCU: 0x4F1D6, offset: 0x4F1D6, size: 0x8, addend: 0x0, symName: __ZNSt3__122__compressed_pair_elemIPNS_6__nodeIcEELi0ELb0EEC2B8ue170006IRS3_vEEOT_, symObjAddr: 0x2A00C, symBinAddr: 0x10002D714, symSize: 0x24 }
  - { offsetInCU: 0x4F218, offset: 0x4F218, size: 0x8, addend: 0x0, symName: __ZNSt3__122__compressed_pair_elemINS_14default_deleteINS_6__nodeIcEEEELi1ELb1EEC2B8ue170006ENS_16__value_init_tagE, symObjAddr: 0x2A030, symBinAddr: 0x10002D738, symSize: 0x14 }
  - { offsetInCU: 0x4F24C, offset: 0x4F24C, size: 0x8, addend: 0x0, symName: __ZNSt3__110shared_ptrINS_13__empty_stateIcEEEC1B8ue170006IS2_vEEPT_, symObjAddr: 0x2A044, symBinAddr: 0x10002D74C, symSize: 0x34 }
  - { offsetInCU: 0x4F28F, offset: 0x4F28F, size: 0x8, addend: 0x0, symName: __ZNSt3__110shared_ptrINS_13__empty_stateIcEEEC2B8ue170006IS2_vEEPT_, symObjAddr: 0x2A078, symBinAddr: 0x10002D780, symSize: 0xEC }
  - { offsetInCU: 0x4F38E, offset: 0x4F38E, size: 0x8, addend: 0x0, symName: __ZNSt3__110unique_ptrINS_13__empty_stateIcEENS_14default_deleteIS2_EEEC1B8ue170006ILb1EvEEPS2_, symObjAddr: 0x2A164, symBinAddr: 0x10002D86C, symSize: 0x34 }
  - { offsetInCU: 0x4F3F4, offset: 0x4F3F4, size: 0x8, addend: 0x0, symName: __ZNSt3__19allocatorINS_13__empty_stateIcEEEC1B8ue170006Ev, symObjAddr: 0x2A198, symBinAddr: 0x10002D8A0, symSize: 0x2C }
  - { offsetInCU: 0x4F4D1, offset: 0x4F4D1, size: 0x8, addend: 0x0, symName: __ZNSt3__120__shared_ptr_pointerIPNS_13__empty_stateIcEENS_10shared_ptrIS2_E27__shared_ptr_default_deleteIS2_S2_EENS_9allocatorIS2_EEEC1B8ue170006ES3_S7_S9_, symObjAddr: 0x2A1C4, symBinAddr: 0x10002D8CC, symSize: 0x34 }
  - { offsetInCU: 0x4F525, offset: 0x4F525, size: 0x8, addend: 0x0, symName: __ZNSt3__110unique_ptrINS_13__empty_stateIcEENS_14default_deleteIS2_EEE7releaseB8ue170006Ev, symObjAddr: 0x2A1F8, symBinAddr: 0x10002D900, symSize: 0x44 }
  - { offsetInCU: 0x4F55A, offset: 0x4F55A, size: 0x8, addend: 0x0, symName: __ZNSt3__110shared_ptrINS_13__empty_stateIcEEE18__enable_weak_thisB8ue170006Ez, symObjAddr: 0x2A23C, symBinAddr: 0x10002D944, symSize: 0x10 }
  - { offsetInCU: 0x4F581, offset: 0x4F581, size: 0x8, addend: 0x0, symName: __ZNSt3__110unique_ptrINS_13__empty_stateIcEENS_14default_deleteIS2_EEED1B8ue170006Ev, symObjAddr: 0x2A24C, symBinAddr: 0x10002D954, symSize: 0x2C }
  - { offsetInCU: 0x4F5AB, offset: 0x4F5AB, size: 0x8, addend: 0x0, symName: __ZNSt3__110unique_ptrINS_13__empty_stateIcEENS_14default_deleteIS2_EEEC2B8ue170006ILb1EvEEPS2_, symObjAddr: 0x2A278, symBinAddr: 0x10002D980, symSize: 0x44 }
  - { offsetInCU: 0x4F5EE, offset: 0x4F5EE, size: 0x8, addend: 0x0, symName: __ZNSt3__117__compressed_pairIPNS_13__empty_stateIcEENS_14default_deleteIS2_EEEC1B8ue170006IRS3_NS_16__value_init_tagEEEOT_OT0_, symObjAddr: 0x2A2BC, symBinAddr: 0x10002D9C4, symSize: 0x3C }
  - { offsetInCU: 0x4F646, offset: 0x4F646, size: 0x8, addend: 0x0, symName: __ZNSt3__117__compressed_pairIPNS_13__empty_stateIcEENS_14default_deleteIS2_EEEC2B8ue170006IRS3_NS_16__value_init_tagEEEOT_OT0_, symObjAddr: 0x2A2F8, symBinAddr: 0x10002DA00, symSize: 0x40 }
  - { offsetInCU: 0x4F69E, offset: 0x4F69E, size: 0x8, addend: 0x0, symName: __ZNSt3__122__compressed_pair_elemIPNS_13__empty_stateIcEELi0ELb0EEC2B8ue170006IRS3_vEEOT_, symObjAddr: 0x2A338, symBinAddr: 0x10002DA40, symSize: 0x24 }
  - { offsetInCU: 0x4F6E0, offset: 0x4F6E0, size: 0x8, addend: 0x0, symName: __ZNSt3__122__compressed_pair_elemINS_14default_deleteINS_13__empty_stateIcEEEELi1ELb1EEC2B8ue170006ENS_16__value_init_tagE, symObjAddr: 0x2A35C, symBinAddr: 0x10002DA64, symSize: 0x14 }
  - { offsetInCU: 0x4F714, offset: 0x4F714, size: 0x8, addend: 0x0, symName: __ZNSt3__19allocatorINS_13__empty_stateIcEEEC2B8ue170006Ev, symObjAddr: 0x2A370, symBinAddr: 0x10002DA78, symSize: 0x2C }
  - { offsetInCU: 0x4F73E, offset: 0x4F73E, size: 0x8, addend: 0x0, symName: __ZNSt3__116__non_trivial_ifILb1ENS_9allocatorINS_13__empty_stateIcEEEEEC2B8ue170006Ev, symObjAddr: 0x2A39C, symBinAddr: 0x10002DAA4, symSize: 0x14 }
  - { offsetInCU: 0x4F768, offset: 0x4F768, size: 0x8, addend: 0x0, symName: __ZNSt3__120__shared_ptr_pointerIPNS_13__empty_stateIcEENS_10shared_ptrIS2_E27__shared_ptr_default_deleteIS2_S2_EENS_9allocatorIS2_EEEC2B8ue170006ES3_S7_S9_, symObjAddr: 0x2A3B0, symBinAddr: 0x10002DAB8, symSize: 0xA8 }
  - { offsetInCU: 0x4F7BC, offset: 0x4F7BC, size: 0x8, addend: 0x0, symName: __ZNSt3__119__shared_weak_countC2B8ue170006El, symObjAddr: 0x2A458, symBinAddr: 0x10002DB60, symSize: 0x54 }
  - { offsetInCU: 0x4F7FA, offset: 0x4F7FA, size: 0x8, addend: 0x0, symName: __ZNSt3__117__compressed_pairIPNS_13__empty_stateIcEENS_10shared_ptrIS2_E27__shared_ptr_default_deleteIS2_S2_EEEC1B8ue170006IRS3_S7_EEOT_OT0_, symObjAddr: 0x2A4AC, symBinAddr: 0x10002DBB4, symSize: 0x3C }
  - { offsetInCU: 0x4F85E, offset: 0x4F85E, size: 0x8, addend: 0x0, symName: __ZNSt3__117__compressed_pairINS0_IPNS_13__empty_stateIcEENS_10shared_ptrIS2_E27__shared_ptr_default_deleteIS2_S2_EEEENS_9allocatorIS2_EEEC1B8ue170006IS8_SA_EEOT_OT0_, symObjAddr: 0x2A4E8, symBinAddr: 0x10002DBF0, symSize: 0x3C }
  - { offsetInCU: 0x4F8B6, offset: 0x4F8B6, size: 0x8, addend: 0x0, symName: __ZNSt3__120__shared_ptr_pointerIPNS_13__empty_stateIcEENS_10shared_ptrIS2_E27__shared_ptr_default_deleteIS2_S2_EENS_9allocatorIS2_EEED1Ev, symObjAddr: 0x2A524, symBinAddr: 0x10002DC2C, symSize: 0x2C }
  - { offsetInCU: 0x4F8E2, offset: 0x4F8E2, size: 0x8, addend: 0x0, symName: __ZNSt3__120__shared_ptr_pointerIPNS_13__empty_stateIcEENS_10shared_ptrIS2_E27__shared_ptr_default_deleteIS2_S2_EENS_9allocatorIS2_EEED0Ev, symObjAddr: 0x2A550, symBinAddr: 0x10002DC58, symSize: 0x30 }
  - { offsetInCU: 0x4F90E, offset: 0x4F90E, size: 0x8, addend: 0x0, symName: __ZNSt3__120__shared_ptr_pointerIPNS_13__empty_stateIcEENS_10shared_ptrIS2_E27__shared_ptr_default_deleteIS2_S2_EENS_9allocatorIS2_EEE16__on_zero_sharedEv, symObjAddr: 0x2A580, symBinAddr: 0x10002DC88, symSize: 0x64 }
  - { offsetInCU: 0x4F936, offset: 0x4F936, size: 0x8, addend: 0x0, symName: __ZNKSt3__120__shared_ptr_pointerIPNS_13__empty_stateIcEENS_10shared_ptrIS2_E27__shared_ptr_default_deleteIS2_S2_EENS_9allocatorIS2_EEE13__get_deleterERKSt9type_info, symObjAddr: 0x2A5E4, symBinAddr: 0x10002DCEC, symSize: 0x68 }
  - { offsetInCU: 0x4F96B, offset: 0x4F96B, size: 0x8, addend: 0x0, symName: __ZNSt3__120__shared_ptr_pointerIPNS_13__empty_stateIcEENS_10shared_ptrIS2_E27__shared_ptr_default_deleteIS2_S2_EENS_9allocatorIS2_EEE21__on_zero_shared_weakEv, symObjAddr: 0x2A64C, symBinAddr: 0x10002DD54, symSize: 0x60 }
  - { offsetInCU: 0x4F9AE, offset: 0x4F9AE, size: 0x8, addend: 0x0, symName: __ZNSt3__114__shared_countC2B8ue170006El, symObjAddr: 0x2A6AC, symBinAddr: 0x10002DDB4, symSize: 0x30 }
  - { offsetInCU: 0x4F9E6, offset: 0x4F9E6, size: 0x8, addend: 0x0, symName: __ZNSt3__117__compressed_pairIPNS_13__empty_stateIcEENS_10shared_ptrIS2_E27__shared_ptr_default_deleteIS2_S2_EEEC2B8ue170006IRS3_S7_EEOT_OT0_, symObjAddr: 0x2A6DC, symBinAddr: 0x10002DDE4, symSize: 0x44 }
  - { offsetInCU: 0x4FA3E, offset: 0x4FA3E, size: 0x8, addend: 0x0, symName: __ZNSt3__122__compressed_pair_elemINS_10shared_ptrINS_13__empty_stateIcEEE27__shared_ptr_default_deleteIS3_S3_EELi1ELb1EEC2B8ue170006IS6_vEEOT_, symObjAddr: 0x2A720, symBinAddr: 0x10002DE28, symSize: 0x18 }
  - { offsetInCU: 0x4FA80, offset: 0x4FA80, size: 0x8, addend: 0x0, symName: __ZNSt3__117__compressed_pairINS0_IPNS_13__empty_stateIcEENS_10shared_ptrIS2_E27__shared_ptr_default_deleteIS2_S2_EEEENS_9allocatorIS2_EEEC2B8ue170006IS8_SA_EEOT_OT0_, symObjAddr: 0x2A738, symBinAddr: 0x10002DE40, symSize: 0x44 }
  - { offsetInCU: 0x4FAD8, offset: 0x4FAD8, size: 0x8, addend: 0x0, symName: __ZNSt3__122__compressed_pair_elemINS_17__compressed_pairIPNS_13__empty_stateIcEENS_10shared_ptrIS3_E27__shared_ptr_default_deleteIS3_S3_EEEELi0ELb0EEC2B8ue170006IS9_vEEOT_, symObjAddr: 0x2A77C, symBinAddr: 0x10002DE84, symSize: 0x24 }
  - { offsetInCU: 0x4FB1A, offset: 0x4FB1A, size: 0x8, addend: 0x0, symName: __ZNSt3__122__compressed_pair_elemINS_9allocatorINS_13__empty_stateIcEEEELi1ELb1EEC2B8ue170006IS4_vEEOT_, symObjAddr: 0x2A7A0, symBinAddr: 0x10002DEA8, symSize: 0x18 }
  - { offsetInCU: 0x4FB5C, offset: 0x4FB5C, size: 0x8, addend: 0x0, symName: __ZNSt3__120__shared_ptr_pointerIPNS_13__empty_stateIcEENS_10shared_ptrIS2_E27__shared_ptr_default_deleteIS2_S2_EENS_9allocatorIS2_EEED2Ev, symObjAddr: 0x2A7B8, symBinAddr: 0x10002DEC0, symSize: 0x2C }
  - { offsetInCU: 0x4FB88, offset: 0x4FB88, size: 0x8, addend: 0x0, symName: __ZNSt3__117__compressed_pairINS0_IPNS_13__empty_stateIcEENS_10shared_ptrIS2_E27__shared_ptr_default_deleteIS2_S2_EEEENS_9allocatorIS2_EEE5firstB8ue170006Ev, symObjAddr: 0x2A7E4, symBinAddr: 0x10002DEEC, symSize: 0x24 }
  - { offsetInCU: 0x4FBAE, offset: 0x4FBAE, size: 0x8, addend: 0x0, symName: __ZNSt3__117__compressed_pairIPNS_13__empty_stateIcEENS_10shared_ptrIS2_E27__shared_ptr_default_deleteIS2_S2_EEE6secondB8ue170006Ev, symObjAddr: 0x2A808, symBinAddr: 0x10002DF10, symSize: 0x24 }
  - { offsetInCU: 0x4FBD4, offset: 0x4FBD4, size: 0x8, addend: 0x0, symName: __ZNKSt3__114default_deleteINS_13__empty_stateIcEEEclB8ue170006EPS2_, symObjAddr: 0x2A82C, symBinAddr: 0x10002DF34, symSize: 0x4C }
  - { offsetInCU: 0x4FC08, offset: 0x4FC08, size: 0x8, addend: 0x0, symName: __ZNSt3__117__compressed_pairIPNS_13__empty_stateIcEENS_10shared_ptrIS2_E27__shared_ptr_default_deleteIS2_S2_EEE5firstB8ue170006Ev, symObjAddr: 0x2A878, symBinAddr: 0x10002DF80, symSize: 0x24 }
  - { offsetInCU: 0x4FC2E, offset: 0x4FC2E, size: 0x8, addend: 0x0, symName: __ZNSt3__122__compressed_pair_elemINS_17__compressed_pairIPNS_13__empty_stateIcEENS_10shared_ptrIS3_E27__shared_ptr_default_deleteIS3_S3_EEEELi0ELb0EE5__getB8ue170006Ev, symObjAddr: 0x2A89C, symBinAddr: 0x10002DFA4, symSize: 0x14 }
  - { offsetInCU: 0x4FC54, offset: 0x4FC54, size: 0x8, addend: 0x0, symName: __ZNSt3__122__compressed_pair_elemINS_10shared_ptrINS_13__empty_stateIcEEE27__shared_ptr_default_deleteIS3_S3_EELi1ELb1EE5__getB8ue170006Ev, symObjAddr: 0x2A8B0, symBinAddr: 0x10002DFB8, symSize: 0x14 }
  - { offsetInCU: 0x4FC7A, offset: 0x4FC7A, size: 0x8, addend: 0x0, symName: __ZNSt3__122__compressed_pair_elemIPNS_13__empty_stateIcEELi0ELb0EE5__getB8ue170006Ev, symObjAddr: 0x2A8C4, symBinAddr: 0x10002DFCC, symSize: 0x14 }
  - { offsetInCU: 0x4FCD6, offset: 0x4FCD6, size: 0x8, addend: 0x0, symName: __ZNKSt9type_infoeqB8ue170006ERKS_, symObjAddr: 0x2A8D8, symBinAddr: 0x10002DFE0, symSize: 0xDC }
  - { offsetInCU: 0x4FD74, offset: 0x4FD74, size: 0x8, addend: 0x0, symName: __ZNKSt3__117__compressed_pairINS0_IPNS_13__empty_stateIcEENS_10shared_ptrIS2_E27__shared_ptr_default_deleteIS2_S2_EEEENS_9allocatorIS2_EEE5firstB8ue170006Ev, symObjAddr: 0x2A9B4, symBinAddr: 0x10002E0BC, symSize: 0x24 }
  - { offsetInCU: 0x4FD9A, offset: 0x4FD9A, size: 0x8, addend: 0x0, symName: __ZNKSt3__117__compressed_pairIPNS_13__empty_stateIcEENS_10shared_ptrIS2_E27__shared_ptr_default_deleteIS2_S2_EEE6secondB8ue170006Ev, symObjAddr: 0x2A9D8, symBinAddr: 0x10002E0E0, symSize: 0x24 }
  - { offsetInCU: 0x4FDC0, offset: 0x4FDC0, size: 0x8, addend: 0x0, symName: __ZNSt27__type_info_implementations30__non_unique_arm_rtti_bit_impl21__is_type_name_uniqueB8ue170006Em, symObjAddr: 0x2A9FC, symBinAddr: 0x10002E104, symSize: 0x20 }
  - { offsetInCU: 0x4FDE4, offset: 0x4FDE4, size: 0x8, addend: 0x0, symName: __ZNKSt3__122__compressed_pair_elemINS_17__compressed_pairIPNS_13__empty_stateIcEENS_10shared_ptrIS3_E27__shared_ptr_default_deleteIS3_S3_EEEELi0ELb0EE5__getB8ue170006Ev, symObjAddr: 0x2AA1C, symBinAddr: 0x10002E124, symSize: 0x14 }
  - { offsetInCU: 0x4FE0A, offset: 0x4FE0A, size: 0x8, addend: 0x0, symName: __ZNKSt3__122__compressed_pair_elemINS_10shared_ptrINS_13__empty_stateIcEEE27__shared_ptr_default_deleteIS3_S3_EELi1ELb1EE5__getB8ue170006Ev, symObjAddr: 0x2AA30, symBinAddr: 0x10002E138, symSize: 0x14 }
  - { offsetInCU: 0x4FE30, offset: 0x4FE30, size: 0x8, addend: 0x0, symName: __ZNSt3__117__compressed_pairINS0_IPNS_13__empty_stateIcEENS_10shared_ptrIS2_E27__shared_ptr_default_deleteIS2_S2_EEEENS_9allocatorIS2_EEE6secondB8ue170006Ev, symObjAddr: 0x2AA44, symBinAddr: 0x10002E14C, symSize: 0x24 }
  - { offsetInCU: 0x4FE85, offset: 0x4FE85, size: 0x8, addend: 0x0, symName: __ZNSt3__19allocatorINS_20__shared_ptr_pointerIPNS_13__empty_stateIcEENS_10shared_ptrIS3_E27__shared_ptr_default_deleteIS3_S3_EENS0_IS3_EEEEEC1B8ue170006IS3_EERKNS0_IT_EE, symObjAddr: 0x2AA68, symBinAddr: 0x10002E170, symSize: 0x34 }
  - { offsetInCU: 0x4FEC2, offset: 0x4FEC2, size: 0x8, addend: 0x0, symName: __ZNSt3__19allocatorINS_20__shared_ptr_pointerIPNS_13__empty_stateIcEENS_10shared_ptrIS3_E27__shared_ptr_default_deleteIS3_S3_EENS0_IS3_EEEEE10deallocateB8ue170006EPSA_m, symObjAddr: 0x2AA9C, symBinAddr: 0x10002E1A4, symSize: 0x40 }
  - { offsetInCU: 0x4FF04, offset: 0x4FF04, size: 0x8, addend: 0x0, symName: __ZNSt3__114pointer_traitsIPNS_20__shared_ptr_pointerIPNS_13__empty_stateIcEENS_10shared_ptrIS3_E27__shared_ptr_default_deleteIS3_S3_EENS_9allocatorIS3_EEEEE10pointer_toB8ue170006ERSB_, symObjAddr: 0x2AADC, symBinAddr: 0x10002E1E4, symSize: 0x14 }
  - { offsetInCU: 0x4FF27, offset: 0x4FF27, size: 0x8, addend: 0x0, symName: __ZNSt3__122__compressed_pair_elemINS_9allocatorINS_13__empty_stateIcEEEELi1ELb1EE5__getB8ue170006Ev, symObjAddr: 0x2AAF0, symBinAddr: 0x10002E1F8, symSize: 0x14 }
  - { offsetInCU: 0x4FF4D, offset: 0x4FF4D, size: 0x8, addend: 0x0, symName: __ZNSt3__19allocatorINS_20__shared_ptr_pointerIPNS_13__empty_stateIcEENS_10shared_ptrIS3_E27__shared_ptr_default_deleteIS3_S3_EENS0_IS3_EEEEEC2B8ue170006IS3_EERKNS0_IT_EE, symObjAddr: 0x2AB04, symBinAddr: 0x10002E20C, symSize: 0x30 }
  - { offsetInCU: 0x4FF8A, offset: 0x4FF8A, size: 0x8, addend: 0x0, symName: __ZNSt3__116__non_trivial_ifILb1ENS_9allocatorINS_20__shared_ptr_pointerIPNS_13__empty_stateIcEENS_10shared_ptrIS4_E27__shared_ptr_default_deleteIS4_S4_EENS1_IS4_EEEEEEEC2B8ue170006Ev, symObjAddr: 0x2AB34, symBinAddr: 0x10002E23C, symSize: 0x14 }
  - { offsetInCU: 0x4FFB4, offset: 0x4FFB4, size: 0x8, addend: 0x0, symName: __ZNSt3__117__compressed_pairIPNS_13__empty_stateIcEENS_14default_deleteIS2_EEE5firstB8ue170006Ev, symObjAddr: 0x2AB48, symBinAddr: 0x10002E250, symSize: 0x24 }
  - { offsetInCU: 0x4FFDA, offset: 0x4FFDA, size: 0x8, addend: 0x0, symName: __ZNSt3__110unique_ptrINS_13__empty_stateIcEENS_14default_deleteIS2_EEED2B8ue170006Ev, symObjAddr: 0x2AB6C, symBinAddr: 0x10002E274, symSize: 0x30 }
  - { offsetInCU: 0x50004, offset: 0x50004, size: 0x8, addend: 0x0, symName: __ZNSt3__110unique_ptrINS_13__empty_stateIcEENS_14default_deleteIS2_EEE5resetB8ue170006EPS2_, symObjAddr: 0x2AB9C, symBinAddr: 0x10002E2A4, symSize: 0x78 }
  - { offsetInCU: 0x50048, offset: 0x50048, size: 0x8, addend: 0x0, symName: __ZNSt3__117__compressed_pairIPNS_13__empty_stateIcEENS_14default_deleteIS2_EEE6secondB8ue170006Ev, symObjAddr: 0x2AC14, symBinAddr: 0x10002E31C, symSize: 0x24 }
  - { offsetInCU: 0x5006E, offset: 0x5006E, size: 0x8, addend: 0x0, symName: __ZNSt3__122__compressed_pair_elemINS_14default_deleteINS_13__empty_stateIcEEEELi1ELb1EE5__getB8ue170006Ev, symObjAddr: 0x2AC38, symBinAddr: 0x10002E340, symSize: 0x14 }
  - { offsetInCU: 0x50094, offset: 0x50094, size: 0x8, addend: 0x0, symName: __ZNKSt3__117__compressed_pairIPNS_6__nodeIcEENS_14default_deleteIS2_EEE5firstB8ue170006Ev, symObjAddr: 0x2AC4C, symBinAddr: 0x10002E354, symSize: 0x24 }
  - { offsetInCU: 0x500BA, offset: 0x500BA, size: 0x8, addend: 0x0, symName: __ZNKSt3__122__compressed_pair_elemIPNS_6__nodeIcEELi0ELb0EE5__getB8ue170006Ev, symObjAddr: 0x2AC70, symBinAddr: 0x10002E378, symSize: 0x14 }
  - { offsetInCU: 0x500E0, offset: 0x500E0, size: 0x8, addend: 0x0, symName: __ZNSt3__113__empty_stateIcEC2B8ue170006EPNS_6__nodeIcEE, symObjAddr: 0x2AC84, symBinAddr: 0x10002E38C, symSize: 0x4C }
  - { offsetInCU: 0x50119, offset: 0x50119, size: 0x8, addend: 0x0, symName: __ZNSt3__116__owns_one_stateIcEC2B8ue170006EPNS_6__nodeIcEE, symObjAddr: 0x2ACD0, symBinAddr: 0x10002E3D8, symSize: 0x4C }
  - { offsetInCU: 0x50152, offset: 0x50152, size: 0x8, addend: 0x0, symName: __ZNSt3__113__empty_stateIcED1Ev, symObjAddr: 0x2AD1C, symBinAddr: 0x10002E424, symSize: 0x2C }
  - { offsetInCU: 0x5017F, offset: 0x5017F, size: 0x8, addend: 0x0, symName: __ZNSt3__113__empty_stateIcED0Ev, symObjAddr: 0x2AD48, symBinAddr: 0x10002E450, symSize: 0x30 }
  - { offsetInCU: 0x501AC, offset: 0x501AC, size: 0x8, addend: 0x0, symName: __ZNKSt3__113__empty_stateIcE6__execERNS_7__stateIcEE, symObjAddr: 0x2AD78, symBinAddr: 0x10002E480, symSize: 0x3C }
  - { offsetInCU: 0x501E3, offset: 0x501E3, size: 0x8, addend: 0x0, symName: __ZNSt3__115__has_one_stateIcEC2B8ue170006EPNS_6__nodeIcEE, symObjAddr: 0x2ADB4, symBinAddr: 0x10002E4BC, symSize: 0x50 }
  - { offsetInCU: 0x5021C, offset: 0x5021C, size: 0x8, addend: 0x0, symName: __ZNSt3__116__owns_one_stateIcED1Ev, symObjAddr: 0x2AE04, symBinAddr: 0x10002E50C, symSize: 0x2C }
  - { offsetInCU: 0x50248, offset: 0x50248, size: 0x8, addend: 0x0, symName: __ZNSt3__116__owns_one_stateIcED0Ev, symObjAddr: 0x2AE30, symBinAddr: 0x10002E538, symSize: 0x30 }
  - { offsetInCU: 0x50274, offset: 0x50274, size: 0x8, addend: 0x0, symName: __ZNSt3__115__has_one_stateIcED1Ev, symObjAddr: 0x2AE60, symBinAddr: 0x10002E568, symSize: 0x2C }
  - { offsetInCU: 0x502A1, offset: 0x502A1, size: 0x8, addend: 0x0, symName: __ZNSt3__115__has_one_stateIcED0Ev, symObjAddr: 0x2AE8C, symBinAddr: 0x10002E594, symSize: 0x30 }
  - { offsetInCU: 0x502CE, offset: 0x502CE, size: 0x8, addend: 0x0, symName: __ZNSt3__115__has_one_stateIcED2Ev, symObjAddr: 0x2AEBC, symBinAddr: 0x10002E5C4, symSize: 0x2C }
  - { offsetInCU: 0x502FB, offset: 0x502FB, size: 0x8, addend: 0x0, symName: __ZNSt3__116__owns_one_stateIcED2Ev, symObjAddr: 0x2AEE8, symBinAddr: 0x10002E5F0, symSize: 0x88 }
  - { offsetInCU: 0x50327, offset: 0x50327, size: 0x8, addend: 0x0, symName: __ZNSt3__115__has_one_stateIcE5firstB8ue170006Ev, symObjAddr: 0x2AF70, symBinAddr: 0x10002E678, symSize: 0x18 }
  - { offsetInCU: 0x5034D, offset: 0x5034D, size: 0x8, addend: 0x0, symName: __ZNSt3__113__empty_stateIcED2Ev, symObjAddr: 0x2AF88, symBinAddr: 0x10002E690, symSize: 0x2C }
  - { offsetInCU: 0x5037A, offset: 0x5037A, size: 0x8, addend: 0x0, symName: __ZNKSt3__115__has_one_stateIcE5firstB8ue170006Ev, symObjAddr: 0x2AFB4, symBinAddr: 0x10002E6BC, symSize: 0x18 }
  - { offsetInCU: 0x503A0, offset: 0x503A0, size: 0x8, addend: 0x0, symName: __ZNSt3__117__compressed_pairIPNS_6__nodeIcEENS_14default_deleteIS2_EEE5firstB8ue170006Ev, symObjAddr: 0x2AFCC, symBinAddr: 0x10002E6D4, symSize: 0x24 }
  - { offsetInCU: 0x503C6, offset: 0x503C6, size: 0x8, addend: 0x0, symName: __ZNSt3__122__compressed_pair_elemIPNS_6__nodeIcEELi0ELb0EE5__getB8ue170006Ev, symObjAddr: 0x2AFF0, symBinAddr: 0x10002E6F8, symSize: 0x14 }
  - { offsetInCU: 0x503EC, offset: 0x503EC, size: 0x8, addend: 0x0, symName: __ZNSt3__110unique_ptrINS_6__nodeIcEENS_14default_deleteIS2_EEED2B8ue170006Ev, symObjAddr: 0x2B004, symBinAddr: 0x10002E70C, symSize: 0x30 }
  - { offsetInCU: 0x50416, offset: 0x50416, size: 0x8, addend: 0x0, symName: __ZNSt3__110unique_ptrINS_6__nodeIcEENS_14default_deleteIS2_EEE5resetB8ue170006EPS2_, symObjAddr: 0x2B034, symBinAddr: 0x10002E73C, symSize: 0x78 }
  - { offsetInCU: 0x5045A, offset: 0x5045A, size: 0x8, addend: 0x0, symName: __ZNSt3__117__compressed_pairIPNS_6__nodeIcEENS_14default_deleteIS2_EEE6secondB8ue170006Ev, symObjAddr: 0x2B0AC, symBinAddr: 0x10002E7B4, symSize: 0x24 }
  - { offsetInCU: 0x50480, offset: 0x50480, size: 0x8, addend: 0x0, symName: __ZNKSt3__114default_deleteINS_6__nodeIcEEEclB8ue170006EPS2_, symObjAddr: 0x2B0D0, symBinAddr: 0x10002E7D8, symSize: 0x4C }
  - { offsetInCU: 0x504B4, offset: 0x504B4, size: 0x8, addend: 0x0, symName: __ZNSt3__122__compressed_pair_elemINS_14default_deleteINS_6__nodeIcEEEELi1ELb1EE5__getB8ue170006Ev, symObjAddr: 0x2B11C, symBinAddr: 0x10002E824, symSize: 0x14 }
  - { offsetInCU: 0x504DA, offset: 0x504DA, size: 0x8, addend: 0x0, symName: __ZNSt3__111basic_regexIcNS_12regex_traitsIcEEE19__parse_alternativeIPKcEET_S7_S7_, symObjAddr: 0x2B130, symBinAddr: 0x10002E838, symSize: 0x70 }
  - { offsetInCU: 0x50546, offset: 0x50546, size: 0x8, addend: 0x0, symName: __ZNSt3__111basic_regexIcNS_12regex_traitsIcEEE12__push_emptyEv, symObjAddr: 0x2B1A0, symBinAddr: 0x10002E8A8, symSize: 0xA0 }
  - { offsetInCU: 0x5056E, offset: 0x5056E, size: 0x8, addend: 0x0, symName: __ZNSt3__111basic_regexIcNS_12regex_traitsIcEEE18__push_alternationEPNS_16__owns_one_stateIcEES6_, symObjAddr: 0x2B240, symBinAddr: 0x10002E948, symSize: 0x17C }
  - { offsetInCU: 0x505B4, offset: 0x505B4, size: 0x8, addend: 0x0, symName: __ZNSt3__111basic_regexIcNS_12regex_traitsIcEEE12__parse_termIPKcEET_S7_S7_, symObjAddr: 0x2B3BC, symBinAddr: 0x10002EAC4, symSize: 0xD0 }
  - { offsetInCU: 0x5063E, offset: 0x5063E, size: 0x8, addend: 0x0, symName: __ZNSt3__111basic_regexIcNS_12regex_traitsIcEEE17__parse_assertionIPKcEET_S7_S7_, symObjAddr: 0x2B48C, symBinAddr: 0x10002EB94, symSize: 0x484 }
  - { offsetInCU: 0x5070B, offset: 0x5070B, size: 0x8, addend: 0x0, symName: __ZNSt3__111basic_regexIcNS_12regex_traitsIcEEE12__parse_atomIPKcEET_S7_S7_, symObjAddr: 0x2B910, symBinAddr: 0x10002F018, symSize: 0x2DC }
  - { offsetInCU: 0x50794, offset: 0x50794, size: 0x8, addend: 0x0, symName: __ZNSt3__111basic_regexIcNS_12regex_traitsIcEEE23__parse_ERE_dupl_symbolIPKcEET_S7_S7_PNS_16__owns_one_stateIcEEjj, symObjAddr: 0x2BBEC, symBinAddr: 0x10002F2F4, symSize: 0x63C }
  - { offsetInCU: 0x50876, offset: 0x50876, size: 0x8, addend: 0x0, symName: __ZNSt3__111basic_regexIcNS_12regex_traitsIcEEE15__push_l_anchorEv, symObjAddr: 0x2C228, symBinAddr: 0x10002F930, symSize: 0xBC }
  - { offsetInCU: 0x5089E, offset: 0x5089E, size: 0x8, addend: 0x0, symName: __ZNSt3__111basic_regexIcNS_12regex_traitsIcEEE15__push_r_anchorEv, symObjAddr: 0x2C2E4, symBinAddr: 0x10002F9EC, symSize: 0xBC }
  - { offsetInCU: 0x508C6, offset: 0x508C6, size: 0x8, addend: 0x0, symName: __ZNSt3__111basic_regexIcNS_12regex_traitsIcEEE20__push_word_boundaryEb, symObjAddr: 0x2C3A0, symBinAddr: 0x10002FAA8, symSize: 0xC0 }
  - { offsetInCU: 0x508FD, offset: 0x508FD, size: 0x8, addend: 0x0, symName: __ZNSt3__111basic_regexIcNS_12regex_traitsIcEEE16__push_lookaheadERKS3_bj, symObjAddr: 0x2C460, symBinAddr: 0x10002FB68, symSize: 0xD4 }
  - { offsetInCU: 0x50952, offset: 0x50952, size: 0x8, addend: 0x0, symName: __ZNKSt3__111basic_regexIcNS_12regex_traitsIcEEE15__use_multilineB8ue170006Ev, symObjAddr: 0x2C594, symBinAddr: 0x10002FC9C, symSize: 0x6C }
  - { offsetInCU: 0x5098F, offset: 0x5098F, size: 0x8, addend: 0x0, symName: __ZNSt3__120__l_anchor_multilineIcEC1B8ue170006EbPNS_6__nodeIcEE, symObjAddr: 0x2C600, symBinAddr: 0x10002FD08, symSize: 0x48 }
  - { offsetInCU: 0x509D7, offset: 0x509D7, size: 0x8, addend: 0x0, symName: __ZNSt3__120__l_anchor_multilineIcEC2B8ue170006EbPNS_6__nodeIcEE, symObjAddr: 0x2C668, symBinAddr: 0x10002FD70, symSize: 0x64 }
  - { offsetInCU: 0x50A1F, offset: 0x50A1F, size: 0x8, addend: 0x0, symName: __ZNSt3__120__l_anchor_multilineIcED1Ev, symObjAddr: 0x2C6CC, symBinAddr: 0x10002FDD4, symSize: 0x2C }
  - { offsetInCU: 0x50A4C, offset: 0x50A4C, size: 0x8, addend: 0x0, symName: __ZNSt3__120__l_anchor_multilineIcED0Ev, symObjAddr: 0x2C6F8, symBinAddr: 0x10002FE00, symSize: 0x30 }
  - { offsetInCU: 0x50A79, offset: 0x50A79, size: 0x8, addend: 0x0, symName: __ZNKSt3__120__l_anchor_multilineIcE6__execERNS_7__stateIcEE, symObjAddr: 0x2C728, symBinAddr: 0x10002FE30, symSize: 0x114 }
  - { offsetInCU: 0x50AB0, offset: 0x50AB0, size: 0x8, addend: 0x0, symName: __ZNSt3__120__l_anchor_multilineIcED2Ev, symObjAddr: 0x2C83C, symBinAddr: 0x10002FF44, symSize: 0x2C }
  - { offsetInCU: 0x50AF4, offset: 0x50AF4, size: 0x8, addend: 0x0, symName: __ZNSt3__120__r_anchor_multilineIcEC1B8ue170006EbPNS_6__nodeIcEE, symObjAddr: 0x2C8EC, symBinAddr: 0x10002FFF4, symSize: 0x48 }
  - { offsetInCU: 0x50B3C, offset: 0x50B3C, size: 0x8, addend: 0x0, symName: __ZNSt3__120__r_anchor_multilineIcEC2B8ue170006EbPNS_6__nodeIcEE, symObjAddr: 0x2C934, symBinAddr: 0x10003003C, symSize: 0x64 }
  - { offsetInCU: 0x50B84, offset: 0x50B84, size: 0x8, addend: 0x0, symName: __ZNSt3__120__r_anchor_multilineIcED1Ev, symObjAddr: 0x2C998, symBinAddr: 0x1000300A0, symSize: 0x2C }
  - { offsetInCU: 0x50BB1, offset: 0x50BB1, size: 0x8, addend: 0x0, symName: __ZNSt3__120__r_anchor_multilineIcED0Ev, symObjAddr: 0x2C9C4, symBinAddr: 0x1000300CC, symSize: 0x30 }
  - { offsetInCU: 0x50BDE, offset: 0x50BDE, size: 0x8, addend: 0x0, symName: __ZNKSt3__120__r_anchor_multilineIcE6__execERNS_7__stateIcEE, symObjAddr: 0x2C9F4, symBinAddr: 0x1000300FC, symSize: 0xEC }
  - { offsetInCU: 0x50C15, offset: 0x50C15, size: 0x8, addend: 0x0, symName: __ZNSt3__120__r_anchor_multilineIcED2Ev, symObjAddr: 0x2CAE0, symBinAddr: 0x1000301E8, symSize: 0x2C }
  - { offsetInCU: 0x50C59, offset: 0x50C59, size: 0x8, addend: 0x0, symName: __ZNSt3__115__word_boundaryIcNS_12regex_traitsIcEEEC1B8ue170006ERKS2_bPNS_6__nodeIcEE, symObjAddr: 0x2CB0C, symBinAddr: 0x100030214, symSize: 0x50 }
  - { offsetInCU: 0x50CB0, offset: 0x50CB0, size: 0x8, addend: 0x0, symName: __ZNSt3__115__word_boundaryIcNS_12regex_traitsIcEEEC2B8ue170006ERKS2_bPNS_6__nodeIcEE, symObjAddr: 0x2CB5C, symBinAddr: 0x100030264, symSize: 0x78 }
  - { offsetInCU: 0x50D07, offset: 0x50D07, size: 0x8, addend: 0x0, symName: __ZNSt3__112regex_traitsIcEC1ERKS1_, symObjAddr: 0x2CBD4, symBinAddr: 0x1000302DC, symSize: 0x34 }
  - { offsetInCU: 0x50D3D, offset: 0x50D3D, size: 0x8, addend: 0x0, symName: __ZNSt3__115__word_boundaryIcNS_12regex_traitsIcEEED1Ev, symObjAddr: 0x2CC08, symBinAddr: 0x100030310, symSize: 0x2C }
  - { offsetInCU: 0x50D6A, offset: 0x50D6A, size: 0x8, addend: 0x0, symName: __ZNSt3__115__word_boundaryIcNS_12regex_traitsIcEEED0Ev, symObjAddr: 0x2CC34, symBinAddr: 0x10003033C, symSize: 0x30 }
  - { offsetInCU: 0x50D97, offset: 0x50D97, size: 0x8, addend: 0x0, symName: __ZNKSt3__115__word_boundaryIcNS_12regex_traitsIcEEE6__execERNS_7__stateIcEE, symObjAddr: 0x2CC64, symBinAddr: 0x10003036C, symSize: 0x2E4 }
  - { offsetInCU: 0x50E61, offset: 0x50E61, size: 0x8, addend: 0x0, symName: __ZNSt3__112regex_traitsIcEC2ERKS1_, symObjAddr: 0x2CF48, symBinAddr: 0x100030650, symSize: 0x40 }
  - { offsetInCU: 0x50E97, offset: 0x50E97, size: 0x8, addend: 0x0, symName: __ZNSt3__115__word_boundaryIcNS_12regex_traitsIcEEED2Ev, symObjAddr: 0x2CF88, symBinAddr: 0x100030690, symSize: 0x48 }
  - { offsetInCU: 0x50EC4, offset: 0x50EC4, size: 0x8, addend: 0x0, symName: __ZNKSt3__112regex_traitsIcE7isctypeEcj, symObjAddr: 0x2CFD0, symBinAddr: 0x1000306D8, symSize: 0xA0 }
  - { offsetInCU: 0x50F0A, offset: 0x50F0A, size: 0x8, addend: 0x0, symName: __ZNKSt3__15ctypeIcE2isB8ue170006Ejc, symObjAddr: 0x2D070, symBinAddr: 0x100030778, symSize: 0x7C }
  - { offsetInCU: 0x50F4D, offset: 0x50F4D, size: 0x8, addend: 0x0, symName: __Z7isasciii, symObjAddr: 0x2D0EC, symBinAddr: 0x1000307F4, symSize: 0x24 }
  - { offsetInCU: 0x50F9D, offset: 0x50F9D, size: 0x8, addend: 0x0, symName: __ZNSt3__111__lookaheadIcNS_12regex_traitsIcEEEC1B8ue170006ERKNS_11basic_regexIcS2_EEbPNS_6__nodeIcEEj, symObjAddr: 0x2D110, symBinAddr: 0x100030818, symSize: 0x58 }
  - { offsetInCU: 0x51003, offset: 0x51003, size: 0x8, addend: 0x0, symName: __ZNSt3__111__lookaheadIcNS_12regex_traitsIcEEEC2B8ue170006ERKNS_11basic_regexIcS2_EEbPNS_6__nodeIcEEj, symObjAddr: 0x2D168, symBinAddr: 0x100030870, symSize: 0x84 }
  - { offsetInCU: 0x51069, offset: 0x51069, size: 0x8, addend: 0x0, symName: __ZNSt3__111basic_regexIcNS_12regex_traitsIcEEEC1ERKS3_, symObjAddr: 0x2D1EC, symBinAddr: 0x1000308F4, symSize: 0x34 }
  - { offsetInCU: 0x5109F, offset: 0x5109F, size: 0x8, addend: 0x0, symName: __ZNSt3__111__lookaheadIcNS_12regex_traitsIcEEED1Ev, symObjAddr: 0x2D220, symBinAddr: 0x100030928, symSize: 0x2C }
  - { offsetInCU: 0x510CC, offset: 0x510CC, size: 0x8, addend: 0x0, symName: __ZNSt3__111__lookaheadIcNS_12regex_traitsIcEEED0Ev, symObjAddr: 0x2D24C, symBinAddr: 0x100030954, symSize: 0x30 }
  - { offsetInCU: 0x510F9, offset: 0x510F9, size: 0x8, addend: 0x0, symName: __ZNKSt3__111__lookaheadIcNS_12regex_traitsIcEEE6__execERNS_7__stateIcEE, symObjAddr: 0x2D27C, symBinAddr: 0x100030984, symSize: 0x264 }
  - { offsetInCU: 0x5116E, offset: 0x5116E, size: 0x8, addend: 0x0, symName: __ZNSt3__111basic_regexIcNS_12regex_traitsIcEEEC2ERKS3_, symObjAddr: 0x2D4E0, symBinAddr: 0x100030BE8, symSize: 0x60 }
  - { offsetInCU: 0x511A4, offset: 0x511A4, size: 0x8, addend: 0x0, symName: __ZNSt3__110shared_ptrINS_13__empty_stateIcEEEC1B8ue170006ERKS3_, symObjAddr: 0x2D540, symBinAddr: 0x100030C48, symSize: 0x34 }
  - { offsetInCU: 0x511DD, offset: 0x511DD, size: 0x8, addend: 0x0, symName: __ZNSt3__110shared_ptrINS_13__empty_stateIcEEEC2B8ue170006ERKS3_, symObjAddr: 0x2D574, symBinAddr: 0x100030C7C, symSize: 0x70 }
  - { offsetInCU: 0x51216, offset: 0x51216, size: 0x8, addend: 0x0, symName: __ZNSt3__119__shared_weak_count12__add_sharedB8ue170006Ev, symObjAddr: 0x2D5E4, symBinAddr: 0x100030CEC, symSize: 0x24 }
  - { offsetInCU: 0x5123C, offset: 0x5123C, size: 0x8, addend: 0x0, symName: __ZNSt3__114__shared_count12__add_sharedB8ue170006Ev, symObjAddr: 0x2D608, symBinAddr: 0x100030D10, symSize: 0x28 }
  - { offsetInCU: 0x51262, offset: 0x51262, size: 0x8, addend: 0x0, symName: __ZNSt3__111__lookaheadIcNS_12regex_traitsIcEEED2Ev, symObjAddr: 0x2D660, symBinAddr: 0x100030D68, symSize: 0x48 }
  - { offsetInCU: 0x5128F, offset: 0x5128F, size: 0x8, addend: 0x0, symName: __ZNSt3__111basic_regexIcNS_12regex_traitsIcEEE28__push_match_any_but_newlineEv, symObjAddr: 0x2D6A8, symBinAddr: 0x100030DB0, symSize: 0xA0 }
  - { offsetInCU: 0x512B7, offset: 0x512B7, size: 0x8, addend: 0x0, symName: __ZNSt3__111basic_regexIcNS_12regex_traitsIcEEE19__parse_atom_escapeIPKcEET_S7_S7_, symObjAddr: 0x2D748, symBinAddr: 0x100030E50, symSize: 0x144 }
  - { offsetInCU: 0x51332, offset: 0x51332, size: 0x8, addend: 0x0, symName: __ZNSt3__111basic_regexIcNS_12regex_traitsIcEEE26__parse_bracket_expressionIPKcEET_S7_S7_, symObjAddr: 0x2D88C, symBinAddr: 0x100030F94, symSize: 0x1E8 }
  - { offsetInCU: 0x513AD, offset: 0x513AD, size: 0x8, addend: 0x0, symName: __ZNSt3__111basic_regexIcNS_12regex_traitsIcEEE33__push_begin_marked_subexpressionEv, symObjAddr: 0x2DA74, symBinAddr: 0x10003117C, symSize: 0xD4 }
  - { offsetInCU: 0x513D5, offset: 0x513D5, size: 0x8, addend: 0x0, symName: __ZNSt3__111basic_regexIcNS_12regex_traitsIcEEE31__push_end_marked_subexpressionEj, symObjAddr: 0x2DB48, symBinAddr: 0x100031250, symSize: 0xD0 }
  - { offsetInCU: 0x5140C, offset: 0x5140C, size: 0x8, addend: 0x0, symName: __ZNSt3__111basic_regexIcNS_12regex_traitsIcEEE25__parse_pattern_characterIPKcEET_S7_S7_, symObjAddr: 0x2DC78, symBinAddr: 0x100031380, symSize: 0xA8 }
  - { offsetInCU: 0x51472, offset: 0x51472, size: 0x8, addend: 0x0, symName: __ZNSt3__123__match_any_but_newlineIcEC1B8ue170006EPNS_6__nodeIcEE, symObjAddr: 0x2DE88, symBinAddr: 0x100031590, symSize: 0x34 }
  - { offsetInCU: 0x514AB, offset: 0x514AB, size: 0x8, addend: 0x0, symName: __ZNSt3__123__match_any_but_newlineIcEC2B8ue170006EPNS_6__nodeIcEE, symObjAddr: 0x2DEBC, symBinAddr: 0x1000315C4, symSize: 0x4C }
  - { offsetInCU: 0x514E4, offset: 0x514E4, size: 0x8, addend: 0x0, symName: __ZNSt3__123__match_any_but_newlineIcED1Ev, symObjAddr: 0x2DF08, symBinAddr: 0x100031610, symSize: 0x2C }
  - { offsetInCU: 0x51511, offset: 0x51511, size: 0x8, addend: 0x0, symName: __ZNSt3__123__match_any_but_newlineIcED0Ev, symObjAddr: 0x2DF34, symBinAddr: 0x10003163C, symSize: 0x30 }
  - { offsetInCU: 0x5153E, offset: 0x5153E, size: 0x8, addend: 0x0, symName: __ZNSt3__123__match_any_but_newlineIcED2Ev, symObjAddr: 0x2DF64, symBinAddr: 0x10003166C, symSize: 0x2C }
  - { offsetInCU: 0x5156B, offset: 0x5156B, size: 0x8, addend: 0x0, symName: __ZNSt3__111basic_regexIcNS_12regex_traitsIcEEE22__parse_decimal_escapeIPKcEET_S7_S7_, symObjAddr: 0x2DFF0, symBinAddr: 0x1000316F8, symSize: 0x1EC }
  - { offsetInCU: 0x515D7, offset: 0x515D7, size: 0x8, addend: 0x0, symName: __ZNSt3__111basic_regexIcNS_12regex_traitsIcEEE30__parse_character_class_escapeIPKcEET_S7_S7_, symObjAddr: 0x2E1DC, symBinAddr: 0x1000318E4, symSize: 0x1BC }
  - { offsetInCU: 0x51643, offset: 0x51643, size: 0x8, addend: 0x0, symName: __ZNSt3__111basic_regexIcNS_12regex_traitsIcEEE24__parse_character_escapeIPKcEET_S7_S7_PNS_12basic_stringIcNS_11char_traitsIcEENS_9allocatorIcEEEE, symObjAddr: 0x2E468, symBinAddr: 0x100031B70, symSize: 0x5D4 }
  - { offsetInCU: 0x516DC, offset: 0x516DC, size: 0x8, addend: 0x0, symName: __ZNSt3__111basic_regexIcNS_12regex_traitsIcEEE11__push_charEc, symObjAddr: 0x2EB60, symBinAddr: 0x100032268, symSize: 0x1D4 }
  - { offsetInCU: 0x51713, offset: 0x51713, size: 0x8, addend: 0x0, symName: __ZNSt3__114numeric_limitsIjE3maxB8ue170006Ev, symObjAddr: 0x2ED34, symBinAddr: 0x10003243C, symSize: 0x14 }
  - { offsetInCU: 0x51727, offset: 0x51727, size: 0x8, addend: 0x0, symName: __ZNSt3__111basic_regexIcNS_12regex_traitsIcEEE15__push_back_refEi, symObjAddr: 0x2EDA8, symBinAddr: 0x1000324B0, symSize: 0x1D4 }
  - { offsetInCU: 0x5175E, offset: 0x5175E, size: 0x8, addend: 0x0, symName: __ZNKSt3__111basic_regexIcNS_12regex_traitsIcEEE5flagsB8ue170006Ev, symObjAddr: 0x2EF7C, symBinAddr: 0x100032684, symSize: 0x18 }
  - { offsetInCU: 0x517A7, offset: 0x517A7, size: 0x8, addend: 0x0, symName: __ZNSt3__118__match_char_icaseIcNS_12regex_traitsIcEEEC1B8ue170006ERKS2_cPNS_6__nodeIcEE, symObjAddr: 0x2EF94, symBinAddr: 0x10003269C, symSize: 0x44 }
  - { offsetInCU: 0x51821, offset: 0x51821, size: 0x8, addend: 0x0, symName: __ZNSt3__120__match_char_collateIcNS_12regex_traitsIcEEEC1B8ue170006ERKS2_cPNS_6__nodeIcEE, symObjAddr: 0x2EFD8, symBinAddr: 0x1000326E0, symSize: 0x44 }
  - { offsetInCU: 0x5189B, offset: 0x5189B, size: 0x8, addend: 0x0, symName: __ZNSt3__112__match_charIcEC1B8ue170006EcPNS_6__nodeIcEE, symObjAddr: 0x2F01C, symBinAddr: 0x100032724, symSize: 0x3C }
  - { offsetInCU: 0x518E3, offset: 0x518E3, size: 0x8, addend: 0x0, symName: __ZNSt3__118__match_char_icaseIcNS_12regex_traitsIcEEEC2B8ue170006ERKS2_cPNS_6__nodeIcEE, symObjAddr: 0x2F058, symBinAddr: 0x100032760, symSize: 0xB0 }
  - { offsetInCU: 0x5193A, offset: 0x5193A, size: 0x8, addend: 0x0, symName: __ZNKSt3__112regex_traitsIcE16translate_nocaseEc, symObjAddr: 0x2F108, symBinAddr: 0x100032810, symSize: 0x34 }
  - { offsetInCU: 0x51971, offset: 0x51971, size: 0x8, addend: 0x0, symName: __ZNSt3__118__match_char_icaseIcNS_12regex_traitsIcEEED1Ev, symObjAddr: 0x2F13C, symBinAddr: 0x100032844, symSize: 0x2C }
  - { offsetInCU: 0x5199E, offset: 0x5199E, size: 0x8, addend: 0x0, symName: __ZNSt3__118__match_char_icaseIcNS_12regex_traitsIcEEED0Ev, symObjAddr: 0x2F168, symBinAddr: 0x100032870, symSize: 0x30 }
  - { offsetInCU: 0x519CB, offset: 0x519CB, size: 0x8, addend: 0x0, symName: __ZNKSt3__118__match_char_icaseIcNS_12regex_traitsIcEEE6__execERNS_7__stateIcEE, symObjAddr: 0x2F198, symBinAddr: 0x1000328A0, symSize: 0xC0 }
  - { offsetInCU: 0x51A02, offset: 0x51A02, size: 0x8, addend: 0x0, symName: __ZNKSt3__15ctypeIcE7tolowerB8ue170006Ec, symObjAddr: 0x2F258, symBinAddr: 0x100032960, symSize: 0x38 }
  - { offsetInCU: 0x51A37, offset: 0x51A37, size: 0x8, addend: 0x0, symName: __ZNSt3__118__match_char_icaseIcNS_12regex_traitsIcEEED2Ev, symObjAddr: 0x2F290, symBinAddr: 0x100032998, symSize: 0x48 }
  - { offsetInCU: 0x51A64, offset: 0x51A64, size: 0x8, addend: 0x0, symName: __ZNSt3__120__match_char_collateIcNS_12regex_traitsIcEEEC2B8ue170006ERKS2_cPNS_6__nodeIcEE, symObjAddr: 0x2F2D8, symBinAddr: 0x1000329E0, symSize: 0xB0 }
  - { offsetInCU: 0x51ABB, offset: 0x51ABB, size: 0x8, addend: 0x0, symName: __ZNKSt3__112regex_traitsIcE9translateB8ue170006Ec, symObjAddr: 0x2F388, symBinAddr: 0x100032A90, symSize: 0x18 }
  - { offsetInCU: 0x51AF0, offset: 0x51AF0, size: 0x8, addend: 0x0, symName: __ZNSt3__120__match_char_collateIcNS_12regex_traitsIcEEED1Ev, symObjAddr: 0x2F3A0, symBinAddr: 0x100032AA8, symSize: 0x2C }
  - { offsetInCU: 0x51B1D, offset: 0x51B1D, size: 0x8, addend: 0x0, symName: __ZNSt3__120__match_char_collateIcNS_12regex_traitsIcEEED0Ev, symObjAddr: 0x2F3CC, symBinAddr: 0x100032AD4, symSize: 0x30 }
  - { offsetInCU: 0x51B4A, offset: 0x51B4A, size: 0x8, addend: 0x0, symName: __ZNKSt3__120__match_char_collateIcNS_12regex_traitsIcEEE6__execERNS_7__stateIcEE, symObjAddr: 0x2F3FC, symBinAddr: 0x100032B04, symSize: 0xC0 }
  - { offsetInCU: 0x51B81, offset: 0x51B81, size: 0x8, addend: 0x0, symName: __ZNSt3__120__match_char_collateIcNS_12regex_traitsIcEEED2Ev, symObjAddr: 0x2F4BC, symBinAddr: 0x100032BC4, symSize: 0x48 }
  - { offsetInCU: 0x51BAE, offset: 0x51BAE, size: 0x8, addend: 0x0, symName: __ZNSt3__112__match_charIcEC2B8ue170006EcPNS_6__nodeIcEE, symObjAddr: 0x2F504, symBinAddr: 0x100032C0C, symSize: 0x58 }
  - { offsetInCU: 0x51BF6, offset: 0x51BF6, size: 0x8, addend: 0x0, symName: __ZNSt3__112__match_charIcED1Ev, symObjAddr: 0x2F55C, symBinAddr: 0x100032C64, symSize: 0x2C }
  - { offsetInCU: 0x51C23, offset: 0x51C23, size: 0x8, addend: 0x0, symName: __ZNSt3__112__match_charIcED0Ev, symObjAddr: 0x2F588, symBinAddr: 0x100032C90, symSize: 0x30 }
  - { offsetInCU: 0x51C50, offset: 0x51C50, size: 0x8, addend: 0x0, symName: __ZNKSt3__112__match_charIcE6__execERNS_7__stateIcEE, symObjAddr: 0x2F5B8, symBinAddr: 0x100032CC0, symSize: 0xB4 }
  - { offsetInCU: 0x51C87, offset: 0x51C87, size: 0x8, addend: 0x0, symName: __ZNSt3__112__match_charIcED2Ev, symObjAddr: 0x2F66C, symBinAddr: 0x100032D74, symSize: 0x2C }
  - { offsetInCU: 0x51CB4, offset: 0x51CB4, size: 0x8, addend: 0x0, symName: __ZNSt3__123__libcpp_numeric_limitsIjLb1EE3maxB8ue170006Ev, symObjAddr: 0x2F698, symBinAddr: 0x100032DA0, symSize: 0x8 }
  - { offsetInCU: 0x51CDF, offset: 0x51CDF, size: 0x8, addend: 0x0, symName: __ZNSt3__116__back_ref_icaseIcNS_12regex_traitsIcEEEC1B8ue170006ERKS2_jPNS_6__nodeIcEE, symObjAddr: 0x2F6A0, symBinAddr: 0x100032DA8, symSize: 0x44 }
  - { offsetInCU: 0x51D4D, offset: 0x51D4D, size: 0x8, addend: 0x0, symName: __ZNSt3__118__back_ref_collateIcNS_12regex_traitsIcEEEC1B8ue170006ERKS2_jPNS_6__nodeIcEE, symObjAddr: 0x2F6E4, symBinAddr: 0x100032DEC, symSize: 0x44 }
  - { offsetInCU: 0x51DBB, offset: 0x51DBB, size: 0x8, addend: 0x0, symName: __ZNSt3__110__back_refIcEC1B8ue170006EjPNS_6__nodeIcEE, symObjAddr: 0x2F728, symBinAddr: 0x100032E30, symSize: 0x3C }
  - { offsetInCU: 0x51E03, offset: 0x51E03, size: 0x8, addend: 0x0, symName: __ZNSt3__116__back_ref_icaseIcNS_12regex_traitsIcEEEC2B8ue170006ERKS2_jPNS_6__nodeIcEE, symObjAddr: 0x2F764, symBinAddr: 0x100032E6C, symSize: 0x6C }
  - { offsetInCU: 0x51E5A, offset: 0x51E5A, size: 0x8, addend: 0x0, symName: __ZNSt3__116__back_ref_icaseIcNS_12regex_traitsIcEEED1Ev, symObjAddr: 0x2F7D0, symBinAddr: 0x100032ED8, symSize: 0x2C }
  - { offsetInCU: 0x51E87, offset: 0x51E87, size: 0x8, addend: 0x0, symName: __ZNSt3__116__back_ref_icaseIcNS_12regex_traitsIcEEED0Ev, symObjAddr: 0x2F7FC, symBinAddr: 0x100032F04, symSize: 0x30 }
  - { offsetInCU: 0x51EB4, offset: 0x51EB4, size: 0x8, addend: 0x0, symName: __ZNKSt3__116__back_ref_icaseIcNS_12regex_traitsIcEEE6__execERNS_7__stateIcEE, symObjAddr: 0x2F82C, symBinAddr: 0x100032F34, symSize: 0x18C }
  - { offsetInCU: 0x51F45, offset: 0x51F45, size: 0x8, addend: 0x0, symName: __ZNSt3__116__back_ref_icaseIcNS_12regex_traitsIcEEED2Ev, symObjAddr: 0x2F9B8, symBinAddr: 0x1000330C0, symSize: 0x48 }
  - { offsetInCU: 0x51F72, offset: 0x51F72, size: 0x8, addend: 0x0, symName: __ZNSt3__118__back_ref_collateIcNS_12regex_traitsIcEEEC2B8ue170006ERKS2_jPNS_6__nodeIcEE, symObjAddr: 0x2FA00, symBinAddr: 0x100033108, symSize: 0x6C }
  - { offsetInCU: 0x51FC9, offset: 0x51FC9, size: 0x8, addend: 0x0, symName: __ZNSt3__118__back_ref_collateIcNS_12regex_traitsIcEEED1Ev, symObjAddr: 0x2FA6C, symBinAddr: 0x100033174, symSize: 0x2C }
  - { offsetInCU: 0x51FF6, offset: 0x51FF6, size: 0x8, addend: 0x0, symName: __ZNSt3__118__back_ref_collateIcNS_12regex_traitsIcEEED0Ev, symObjAddr: 0x2FA98, symBinAddr: 0x1000331A0, symSize: 0x30 }
  - { offsetInCU: 0x52023, offset: 0x52023, size: 0x8, addend: 0x0, symName: __ZNKSt3__118__back_ref_collateIcNS_12regex_traitsIcEEE6__execERNS_7__stateIcEE, symObjAddr: 0x2FAC8, symBinAddr: 0x1000331D0, symSize: 0x18C }
  - { offsetInCU: 0x520B4, offset: 0x520B4, size: 0x8, addend: 0x0, symName: __ZNSt3__118__back_ref_collateIcNS_12regex_traitsIcEEED2Ev, symObjAddr: 0x2FC54, symBinAddr: 0x10003335C, symSize: 0x48 }
  - { offsetInCU: 0x520E1, offset: 0x520E1, size: 0x8, addend: 0x0, symName: __ZNSt3__110__back_refIcEC2B8ue170006EjPNS_6__nodeIcEE, symObjAddr: 0x2FC9C, symBinAddr: 0x1000333A4, symSize: 0x58 }
  - { offsetInCU: 0x52129, offset: 0x52129, size: 0x8, addend: 0x0, symName: __ZNSt3__110__back_refIcED1Ev, symObjAddr: 0x2FCF4, symBinAddr: 0x1000333FC, symSize: 0x2C }
  - { offsetInCU: 0x52156, offset: 0x52156, size: 0x8, addend: 0x0, symName: __ZNSt3__110__back_refIcED0Ev, symObjAddr: 0x2FD20, symBinAddr: 0x100033428, symSize: 0x30 }
  - { offsetInCU: 0x52183, offset: 0x52183, size: 0x8, addend: 0x0, symName: __ZNKSt3__110__back_refIcE6__execERNS_7__stateIcEE, symObjAddr: 0x2FD50, symBinAddr: 0x100033458, symSize: 0x150 }
  - { offsetInCU: 0x521E6, offset: 0x521E6, size: 0x8, addend: 0x0, symName: __ZNSt3__110__back_refIcED2Ev, symObjAddr: 0x2FEA0, symBinAddr: 0x1000335A8, symSize: 0x2C }
  - { offsetInCU: 0x52213, offset: 0x52213, size: 0x8, addend: 0x0, symName: __ZNSt3__118__unwrap_iter_implIPKcLb1EE8__unwrapB8ue170006ES2_, symObjAddr: 0x30014, symBinAddr: 0x10003371C, symSize: 0x24 }
  - { offsetInCU: 0x52236, offset: 0x52236, size: 0x8, addend: 0x0, symName: __ZNSt3__111basic_regexIcNS_12regex_traitsIcEEE21__start_matching_listEb, symObjAddr: 0x30038, symBinAddr: 0x100033740, symSize: 0x114 }
  - { offsetInCU: 0x5227C, offset: 0x5227C, size: 0x8, addend: 0x0, symName: __ZNSt3__120__bracket_expressionIcNS_12regex_traitsIcEEE11__add_classB8ue170006Ej, symObjAddr: 0x3014C, symBinAddr: 0x100033854, symSize: 0x28 }
  - { offsetInCU: 0x522B1, offset: 0x522B1, size: 0x8, addend: 0x0, symName: __ZNSt3__120__bracket_expressionIcNS_12regex_traitsIcEEE10__add_charB8ue170006Ec, symObjAddr: 0x30174, symBinAddr: 0x10003387C, symSize: 0xBC }
  - { offsetInCU: 0x522E6, offset: 0x522E6, size: 0x8, addend: 0x0, symName: __ZNSt3__120__bracket_expressionIcNS_12regex_traitsIcEEEC1B8ue170006ERKS2_PNS_6__nodeIcEEbbb, symObjAddr: 0x30230, symBinAddr: 0x100033938, symSize: 0x70 }
  - { offsetInCU: 0x5235B, offset: 0x5235B, size: 0x8, addend: 0x0, symName: __ZNSt3__120__bracket_expressionIcNS_12regex_traitsIcEEEC2B8ue170006ERKS2_PNS_6__nodeIcEEbbb, symObjAddr: 0x302A0, symBinAddr: 0x1000339A8, symSize: 0x1CC }
  - { offsetInCU: 0x523D0, offset: 0x523D0, size: 0x8, addend: 0x0, symName: __ZNSt3__16vectorIcNS_9allocatorIcEEEC1B8ue170006Ev, symObjAddr: 0x3046C, symBinAddr: 0x100033B74, symSize: 0x2C }
  - { offsetInCU: 0x523FA, offset: 0x523FA, size: 0x8, addend: 0x0, symName: __ZNSt3__16vectorINS_4pairINS_12basic_stringIcNS_11char_traitsIcEENS_9allocatorIcEEEES7_EENS5_IS8_EEEC1B8ue170006Ev, symObjAddr: 0x30498, symBinAddr: 0x100033BA0, symSize: 0x2C }
  - { offsetInCU: 0x52424, offset: 0x52424, size: 0x8, addend: 0x0, symName: __ZNSt3__16vectorINS_4pairIccEENS_9allocatorIS2_EEEC1B8ue170006Ev, symObjAddr: 0x304C4, symBinAddr: 0x100033BCC, symSize: 0x2C }
  - { offsetInCU: 0x5244E, offset: 0x5244E, size: 0x8, addend: 0x0, symName: __ZNSt3__16vectorINS_12basic_stringIcNS_11char_traitsIcEENS_9allocatorIcEEEENS4_IS6_EEEC1B8ue170006Ev, symObjAddr: 0x304F0, symBinAddr: 0x100033BF8, symSize: 0x2C }
  - { offsetInCU: 0x52478, offset: 0x52478, size: 0x8, addend: 0x0, symName: __ZNKSt3__112regex_traitsIcE6getlocB8ue170006Ev, symObjAddr: 0x30550, symBinAddr: 0x100033C58, symSize: 0x38 }
  - { offsetInCU: 0x5249E, offset: 0x5249E, size: 0x8, addend: 0x0, symName: __ZNSt3__16vectorINS_4pairIccEENS_9allocatorIS2_EEED1B8ue170006Ev, symObjAddr: 0x30588, symBinAddr: 0x100033C90, symSize: 0x2C }
  - { offsetInCU: 0x524C8, offset: 0x524C8, size: 0x8, addend: 0x0, symName: __ZNSt3__16vectorINS_4pairINS_12basic_stringIcNS_11char_traitsIcEENS_9allocatorIcEEEES7_EENS5_IS8_EEED1B8ue170006Ev, symObjAddr: 0x305B4, symBinAddr: 0x100033CBC, symSize: 0x2C }
  - { offsetInCU: 0x524F2, offset: 0x524F2, size: 0x8, addend: 0x0, symName: __ZNSt3__16vectorIcNS_9allocatorIcEEED1B8ue170006Ev, symObjAddr: 0x305E0, symBinAddr: 0x100033CE8, symSize: 0x2C }
  - { offsetInCU: 0x5251C, offset: 0x5251C, size: 0x8, addend: 0x0, symName: __ZNSt3__120__bracket_expressionIcNS_12regex_traitsIcEEED1Ev, symObjAddr: 0x3060C, symBinAddr: 0x100033D14, symSize: 0x2C }
  - { offsetInCU: 0x52549, offset: 0x52549, size: 0x8, addend: 0x0, symName: __ZNSt3__120__bracket_expressionIcNS_12regex_traitsIcEEED0Ev, symObjAddr: 0x30638, symBinAddr: 0x100033D40, symSize: 0x30 }
  - { offsetInCU: 0x52576, offset: 0x52576, size: 0x8, addend: 0x0, symName: __ZNKSt3__120__bracket_expressionIcNS_12regex_traitsIcEEE6__execERNS_7__stateIcEE, symObjAddr: 0x30668, symBinAddr: 0x100033D70, symSize: 0x8D4 }
  - { offsetInCU: 0x5276E, offset: 0x5276E, size: 0x8, addend: 0x0, symName: __ZNSt3__16vectorIcNS_9allocatorIcEEEC2B8ue170006Ev, symObjAddr: 0x30F3C, symBinAddr: 0x100034644, symSize: 0x4C }
  - { offsetInCU: 0x52798, offset: 0x52798, size: 0x8, addend: 0x0, symName: __ZNSt3__117__compressed_pairIPcNS_9allocatorIcEEEC1B8ue170006IDnNS_18__default_init_tagEEEOT_OT0_, symObjAddr: 0x30F88, symBinAddr: 0x100034690, symSize: 0x3C }
  - { offsetInCU: 0x527F0, offset: 0x527F0, size: 0x8, addend: 0x0, symName: __ZNSt3__117__compressed_pairIPcNS_9allocatorIcEEEC2B8ue170006IDnNS_18__default_init_tagEEEOT_OT0_, symObjAddr: 0x30FC4, symBinAddr: 0x1000346CC, symSize: 0x40 }
  - { offsetInCU: 0x52848, offset: 0x52848, size: 0x8, addend: 0x0, symName: __ZNSt3__122__compressed_pair_elemIPcLi0ELb0EEC2B8ue170006IDnvEEOT_, symObjAddr: 0x31004, symBinAddr: 0x10003470C, symSize: 0x1C }
  - { offsetInCU: 0x5288A, offset: 0x5288A, size: 0x8, addend: 0x0, symName: __ZNSt3__16vectorINS_4pairINS_12basic_stringIcNS_11char_traitsIcEENS_9allocatorIcEEEES7_EENS5_IS8_EEEC2B8ue170006Ev, symObjAddr: 0x31020, symBinAddr: 0x100034728, symSize: 0x4C }
  - { offsetInCU: 0x528B4, offset: 0x528B4, size: 0x8, addend: 0x0, symName: __ZNSt3__117__compressed_pairIPNS_4pairINS_12basic_stringIcNS_11char_traitsIcEENS_9allocatorIcEEEES7_EENS5_IS8_EEEC1B8ue170006IDnNS_18__default_init_tagEEEOT_OT0_, symObjAddr: 0x3106C, symBinAddr: 0x100034774, symSize: 0x3C }
  - { offsetInCU: 0x5290C, offset: 0x5290C, size: 0x8, addend: 0x0, symName: __ZNSt3__117__compressed_pairIPNS_4pairINS_12basic_stringIcNS_11char_traitsIcEENS_9allocatorIcEEEES7_EENS5_IS8_EEEC2B8ue170006IDnNS_18__default_init_tagEEEOT_OT0_, symObjAddr: 0x310A8, symBinAddr: 0x1000347B0, symSize: 0x40 }
  - { offsetInCU: 0x52964, offset: 0x52964, size: 0x8, addend: 0x0, symName: __ZNSt3__122__compressed_pair_elemIPNS_4pairINS_12basic_stringIcNS_11char_traitsIcEENS_9allocatorIcEEEES7_EELi0ELb0EEC2B8ue170006IDnvEEOT_, symObjAddr: 0x310E8, symBinAddr: 0x1000347F0, symSize: 0x1C }
  - { offsetInCU: 0x529A6, offset: 0x529A6, size: 0x8, addend: 0x0, symName: __ZNSt3__122__compressed_pair_elemINS_9allocatorINS_4pairINS_12basic_stringIcNS_11char_traitsIcEENS1_IcEEEES7_EEEELi1ELb1EEC2B8ue170006ENS_18__default_init_tagE, symObjAddr: 0x31104, symBinAddr: 0x10003480C, symSize: 0x2C }
  - { offsetInCU: 0x529DA, offset: 0x529DA, size: 0x8, addend: 0x0, symName: __ZNSt3__19allocatorINS_4pairINS_12basic_stringIcNS_11char_traitsIcEENS0_IcEEEES6_EEEC2B8ue170006Ev, symObjAddr: 0x31130, symBinAddr: 0x100034838, symSize: 0x2C }
  - { offsetInCU: 0x52A04, offset: 0x52A04, size: 0x8, addend: 0x0, symName: __ZNSt3__116__non_trivial_ifILb1ENS_9allocatorINS_4pairINS_12basic_stringIcNS_11char_traitsIcEENS1_IcEEEES7_EEEEEC2B8ue170006Ev, symObjAddr: 0x3115C, symBinAddr: 0x100034864, symSize: 0x14 }
  - { offsetInCU: 0x52A2E, offset: 0x52A2E, size: 0x8, addend: 0x0, symName: __ZNSt3__16vectorINS_4pairIccEENS_9allocatorIS2_EEEC2B8ue170006Ev, symObjAddr: 0x31170, symBinAddr: 0x100034878, symSize: 0x4C }
  - { offsetInCU: 0x52A58, offset: 0x52A58, size: 0x8, addend: 0x0, symName: __ZNSt3__117__compressed_pairIPNS_4pairIccEENS_9allocatorIS2_EEEC1B8ue170006IDnNS_18__default_init_tagEEEOT_OT0_, symObjAddr: 0x311BC, symBinAddr: 0x1000348C4, symSize: 0x3C }
  - { offsetInCU: 0x52AB0, offset: 0x52AB0, size: 0x8, addend: 0x0, symName: __ZNSt3__117__compressed_pairIPNS_4pairIccEENS_9allocatorIS2_EEEC2B8ue170006IDnNS_18__default_init_tagEEEOT_OT0_, symObjAddr: 0x311F8, symBinAddr: 0x100034900, symSize: 0x40 }
  - { offsetInCU: 0x52B08, offset: 0x52B08, size: 0x8, addend: 0x0, symName: __ZNSt3__122__compressed_pair_elemIPNS_4pairIccEELi0ELb0EEC2B8ue170006IDnvEEOT_, symObjAddr: 0x31238, symBinAddr: 0x100034940, symSize: 0x1C }
  - { offsetInCU: 0x52B4A, offset: 0x52B4A, size: 0x8, addend: 0x0, symName: __ZNSt3__122__compressed_pair_elemINS_9allocatorINS_4pairIccEEEELi1ELb1EEC2B8ue170006ENS_18__default_init_tagE, symObjAddr: 0x31254, symBinAddr: 0x10003495C, symSize: 0x2C }
  - { offsetInCU: 0x52B7E, offset: 0x52B7E, size: 0x8, addend: 0x0, symName: __ZNSt3__19allocatorINS_4pairIccEEEC2B8ue170006Ev, symObjAddr: 0x31280, symBinAddr: 0x100034988, symSize: 0x2C }
  - { offsetInCU: 0x52BA8, offset: 0x52BA8, size: 0x8, addend: 0x0, symName: __ZNSt3__116__non_trivial_ifILb1ENS_9allocatorINS_4pairIccEEEEEC2B8ue170006Ev, symObjAddr: 0x312AC, symBinAddr: 0x1000349B4, symSize: 0x14 }
  - { offsetInCU: 0x52BD2, offset: 0x52BD2, size: 0x8, addend: 0x0, symName: __ZNSt3__16vectorINS_12basic_stringIcNS_11char_traitsIcEENS_9allocatorIcEEEENS4_IS6_EEEC2B8ue170006Ev, symObjAddr: 0x312C0, symBinAddr: 0x1000349C8, symSize: 0x4C }
  - { offsetInCU: 0x52BFC, offset: 0x52BFC, size: 0x8, addend: 0x0, symName: __ZNSt3__117__compressed_pairIPNS_12basic_stringIcNS_11char_traitsIcEENS_9allocatorIcEEEENS4_IS6_EEEC1B8ue170006IDnNS_18__default_init_tagEEEOT_OT0_, symObjAddr: 0x3130C, symBinAddr: 0x100034A14, symSize: 0x3C }
  - { offsetInCU: 0x52C54, offset: 0x52C54, size: 0x8, addend: 0x0, symName: __ZNSt3__117__compressed_pairIPNS_12basic_stringIcNS_11char_traitsIcEENS_9allocatorIcEEEENS4_IS6_EEEC2B8ue170006IDnNS_18__default_init_tagEEEOT_OT0_, symObjAddr: 0x31348, symBinAddr: 0x100034A50, symSize: 0x40 }
  - { offsetInCU: 0x52CAC, offset: 0x52CAC, size: 0x8, addend: 0x0, symName: __ZNSt3__122__compressed_pair_elemIPNS_12basic_stringIcNS_11char_traitsIcEENS_9allocatorIcEEEELi0ELb0EEC2B8ue170006IDnvEEOT_, symObjAddr: 0x31388, symBinAddr: 0x100034A90, symSize: 0x1C }
  - { offsetInCU: 0x52CEE, offset: 0x52CEE, size: 0x8, addend: 0x0, symName: __ZNSt3__122__compressed_pair_elemINS_9allocatorINS_12basic_stringIcNS_11char_traitsIcEENS1_IcEEEEEELi1ELb1EEC2B8ue170006ENS_18__default_init_tagE, symObjAddr: 0x313A4, symBinAddr: 0x100034AAC, symSize: 0x2C }
  - { offsetInCU: 0x52D22, offset: 0x52D22, size: 0x8, addend: 0x0, symName: __ZNSt3__19allocatorINS_12basic_stringIcNS_11char_traitsIcEENS0_IcEEEEEC2B8ue170006Ev, symObjAddr: 0x313D0, symBinAddr: 0x100034AD8, symSize: 0x2C }
  - { offsetInCU: 0x52D4C, offset: 0x52D4C, size: 0x8, addend: 0x0, symName: __ZNSt3__116__non_trivial_ifILb1ENS_9allocatorINS_12basic_stringIcNS_11char_traitsIcEENS1_IcEEEEEEEC2B8ue170006Ev, symObjAddr: 0x313FC, symBinAddr: 0x100034B04, symSize: 0x14 }
  - { offsetInCU: 0x52D76, offset: 0x52D76, size: 0x8, addend: 0x0, symName: __ZNSt3__16vectorINS_4pairIccEENS_9allocatorIS2_EEED2B8ue170006Ev, symObjAddr: 0x31410, symBinAddr: 0x100034B18, symSize: 0x44 }
  - { offsetInCU: 0x52DA0, offset: 0x52DA0, size: 0x8, addend: 0x0, symName: __ZNSt3__16vectorINS_4pairIccEENS_9allocatorIS2_EEE16__destroy_vectorC1B8ue170006ERS5_, symObjAddr: 0x31454, symBinAddr: 0x100034B5C, symSize: 0x34 }
  - { offsetInCU: 0x52DD9, offset: 0x52DD9, size: 0x8, addend: 0x0, symName: __ZNSt3__16vectorINS_4pairIccEENS_9allocatorIS2_EEE16__destroy_vectorclB8ue170006Ev, symObjAddr: 0x31488, symBinAddr: 0x100034B90, symSize: 0x90 }
  - { offsetInCU: 0x52DFF, offset: 0x52DFF, size: 0x8, addend: 0x0, symName: __ZNSt3__16vectorINS_4pairIccEENS_9allocatorIS2_EEE16__destroy_vectorC2B8ue170006ERS5_, symObjAddr: 0x31518, symBinAddr: 0x100034C20, symSize: 0x20 }
  - { offsetInCU: 0x52E38, offset: 0x52E38, size: 0x8, addend: 0x0, symName: __ZNSt3__16vectorINS_4pairIccEENS_9allocatorIS2_EEE7__clearB8ue170006Ev, symObjAddr: 0x31538, symBinAddr: 0x100034C40, symSize: 0x28 }
  - { offsetInCU: 0x52E5E, offset: 0x52E5E, size: 0x8, addend: 0x0, symName: __ZNKSt3__16vectorINS_4pairIccEENS_9allocatorIS2_EEE17__annotate_deleteB8ue170006Ev, symObjAddr: 0x31560, symBinAddr: 0x100034C68, symSize: 0xB8 }
  - { offsetInCU: 0x52E84, offset: 0x52E84, size: 0x8, addend: 0x0, symName: __ZNSt3__116allocator_traitsINS_9allocatorINS_4pairIccEEEEE10deallocateB8ue170006ERS4_PS3_m, symObjAddr: 0x31618, symBinAddr: 0x100034D20, symSize: 0x34 }
  - { offsetInCU: 0x52EC6, offset: 0x52EC6, size: 0x8, addend: 0x0, symName: __ZNSt3__16vectorINS_4pairIccEENS_9allocatorIS2_EEE7__allocB8ue170006Ev, symObjAddr: 0x3164C, symBinAddr: 0x100034D54, symSize: 0x28 }
  - { offsetInCU: 0x52EEC, offset: 0x52EEC, size: 0x8, addend: 0x0, symName: __ZNKSt3__16vectorINS_4pairIccEENS_9allocatorIS2_EEE8capacityB8ue170006Ev, symObjAddr: 0x31674, symBinAddr: 0x100034D7C, symSize: 0x40 }
  - { offsetInCU: 0x52F12, offset: 0x52F12, size: 0x8, addend: 0x0, symName: __ZNSt3__16vectorINS_4pairIccEENS_9allocatorIS2_EEE22__base_destruct_at_endB8ue170006EPS2_, symObjAddr: 0x316B4, symBinAddr: 0x100034DBC, symSize: 0x8C }
  - { offsetInCU: 0x52F56, offset: 0x52F56, size: 0x8, addend: 0x0, symName: __ZNSt3__116allocator_traitsINS_9allocatorINS_4pairIccEEEEE7destroyB8ue170006IS3_vEEvRS4_PT_, symObjAddr: 0x31740, symBinAddr: 0x100034E48, symSize: 0x2C }
  - { offsetInCU: 0x52F93, offset: 0x52F93, size: 0x8, addend: 0x0, symName: __ZNSt3__19allocatorINS_4pairIccEEE7destroyB8ue170006EPS2_, symObjAddr: 0x31780, symBinAddr: 0x100034E88, symSize: 0x14 }
  - { offsetInCU: 0x52FC7, offset: 0x52FC7, size: 0x8, addend: 0x0, symName: __ZNKSt3__16vectorINS_4pairIccEENS_9allocatorIS2_EEE31__annotate_contiguous_containerB8ue170006EPKvS7_S7_S7_, symObjAddr: 0x31794, symBinAddr: 0x100034E9C, symSize: 0x20 }
  - { offsetInCU: 0x5301D, offset: 0x5301D, size: 0x8, addend: 0x0, symName: __ZNKSt3__16vectorINS_4pairIccEENS_9allocatorIS2_EEE4dataB8ue170006Ev, symObjAddr: 0x317B4, symBinAddr: 0x100034EBC, symSize: 0x28 }
  - { offsetInCU: 0x53043, offset: 0x53043, size: 0x8, addend: 0x0, symName: __ZNKSt3__16vectorINS_4pairIccEENS_9allocatorIS2_EEE4sizeB8ue170006Ev, symObjAddr: 0x317DC, symBinAddr: 0x100034EE4, symSize: 0x28 }
  - { offsetInCU: 0x53069, offset: 0x53069, size: 0x8, addend: 0x0, symName: __ZNSt3__19allocatorINS_4pairIccEEE10deallocateB8ue170006EPS2_m, symObjAddr: 0x31804, symBinAddr: 0x100034F0C, symSize: 0x40 }
  - { offsetInCU: 0x530AB, offset: 0x530AB, size: 0x8, addend: 0x0, symName: __ZNSt3__117__compressed_pairIPNS_4pairIccEENS_9allocatorIS2_EEE6secondB8ue170006Ev, symObjAddr: 0x31844, symBinAddr: 0x100034F4C, symSize: 0x24 }
  - { offsetInCU: 0x530D1, offset: 0x530D1, size: 0x8, addend: 0x0, symName: __ZNSt3__122__compressed_pair_elemINS_9allocatorINS_4pairIccEEEELi1ELb1EE5__getB8ue170006Ev, symObjAddr: 0x31868, symBinAddr: 0x100034F70, symSize: 0x14 }
  - { offsetInCU: 0x530F7, offset: 0x530F7, size: 0x8, addend: 0x0, symName: __ZNKSt3__16vectorINS_4pairIccEENS_9allocatorIS2_EEE9__end_capB8ue170006Ev, symObjAddr: 0x3187C, symBinAddr: 0x100034F84, symSize: 0x28 }
  - { offsetInCU: 0x5311D, offset: 0x5311D, size: 0x8, addend: 0x0, symName: __ZNKSt3__117__compressed_pairIPNS_4pairIccEENS_9allocatorIS2_EEE5firstB8ue170006Ev, symObjAddr: 0x318A4, symBinAddr: 0x100034FAC, symSize: 0x24 }
  - { offsetInCU: 0x53143, offset: 0x53143, size: 0x8, addend: 0x0, symName: __ZNKSt3__122__compressed_pair_elemIPNS_4pairIccEELi0ELb0EE5__getB8ue170006Ev, symObjAddr: 0x318C8, symBinAddr: 0x100034FD0, symSize: 0x14 }
  - { offsetInCU: 0x53169, offset: 0x53169, size: 0x8, addend: 0x0, symName: __ZNSt3__16vectorINS_4pairINS_12basic_stringIcNS_11char_traitsIcEENS_9allocatorIcEEEES7_EENS5_IS8_EEED2B8ue170006Ev, symObjAddr: 0x318DC, symBinAddr: 0x100034FE4, symSize: 0x44 }
  - { offsetInCU: 0x53193, offset: 0x53193, size: 0x8, addend: 0x0, symName: __ZNSt3__16vectorINS_4pairINS_12basic_stringIcNS_11char_traitsIcEENS_9allocatorIcEEEES7_EENS5_IS8_EEE16__destroy_vectorC1B8ue170006ERSA_, symObjAddr: 0x31920, symBinAddr: 0x100035028, symSize: 0x34 }
  - { offsetInCU: 0x531CC, offset: 0x531CC, size: 0x8, addend: 0x0, symName: __ZNSt3__16vectorINS_4pairINS_12basic_stringIcNS_11char_traitsIcEENS_9allocatorIcEEEES7_EENS5_IS8_EEE16__destroy_vectorclB8ue170006Ev, symObjAddr: 0x31954, symBinAddr: 0x10003505C, symSize: 0x90 }
  - { offsetInCU: 0x531F2, offset: 0x531F2, size: 0x8, addend: 0x0, symName: __ZNSt3__16vectorINS_4pairINS_12basic_stringIcNS_11char_traitsIcEENS_9allocatorIcEEEES7_EENS5_IS8_EEE16__destroy_vectorC2B8ue170006ERSA_, symObjAddr: 0x319E4, symBinAddr: 0x1000350EC, symSize: 0x20 }
  - { offsetInCU: 0x5322B, offset: 0x5322B, size: 0x8, addend: 0x0, symName: __ZNSt3__16vectorINS_4pairINS_12basic_stringIcNS_11char_traitsIcEENS_9allocatorIcEEEES7_EENS5_IS8_EEE7__clearB8ue170006Ev, symObjAddr: 0x31A04, symBinAddr: 0x10003510C, symSize: 0x28 }
  - { offsetInCU: 0x53251, offset: 0x53251, size: 0x8, addend: 0x0, symName: __ZNKSt3__16vectorINS_4pairINS_12basic_stringIcNS_11char_traitsIcEENS_9allocatorIcEEEES7_EENS5_IS8_EEE17__annotate_deleteB8ue170006Ev, symObjAddr: 0x31A2C, symBinAddr: 0x100035134, symSize: 0xD4 }
  - { offsetInCU: 0x53277, offset: 0x53277, size: 0x8, addend: 0x0, symName: __ZNSt3__116allocator_traitsINS_9allocatorINS_4pairINS_12basic_stringIcNS_11char_traitsIcEENS1_IcEEEES7_EEEEE10deallocateB8ue170006ERS9_PS8_m, symObjAddr: 0x31B00, symBinAddr: 0x100035208, symSize: 0x34 }
  - { offsetInCU: 0x532B9, offset: 0x532B9, size: 0x8, addend: 0x0, symName: __ZNSt3__16vectorINS_4pairINS_12basic_stringIcNS_11char_traitsIcEENS_9allocatorIcEEEES7_EENS5_IS8_EEE7__allocB8ue170006Ev, symObjAddr: 0x31B34, symBinAddr: 0x10003523C, symSize: 0x28 }
  - { offsetInCU: 0x532DF, offset: 0x532DF, size: 0x8, addend: 0x0, symName: __ZNKSt3__16vectorINS_4pairINS_12basic_stringIcNS_11char_traitsIcEENS_9allocatorIcEEEES7_EENS5_IS8_EEE8capacityB8ue170006Ev, symObjAddr: 0x31B5C, symBinAddr: 0x100035264, symSize: 0x40 }
  - { offsetInCU: 0x53305, offset: 0x53305, size: 0x8, addend: 0x0, symName: __ZNSt3__16vectorINS_4pairINS_12basic_stringIcNS_11char_traitsIcEENS_9allocatorIcEEEES7_EENS5_IS8_EEE22__base_destruct_at_endB8ue170006EPS8_, symObjAddr: 0x31B9C, symBinAddr: 0x1000352A4, symSize: 0x8C }
  - { offsetInCU: 0x53349, offset: 0x53349, size: 0x8, addend: 0x0, symName: __ZNSt3__116allocator_traitsINS_9allocatorINS_4pairINS_12basic_stringIcNS_11char_traitsIcEENS1_IcEEEES7_EEEEE7destroyB8ue170006IS8_vEEvRS9_PT_, symObjAddr: 0x31C28, symBinAddr: 0x100035330, symSize: 0x2C }
  - { offsetInCU: 0x53386, offset: 0x53386, size: 0x8, addend: 0x0, symName: __ZNSt3__19allocatorINS_4pairINS_12basic_stringIcNS_11char_traitsIcEENS0_IcEEEES6_EEE7destroyB8ue170006EPS7_, symObjAddr: 0x31C68, symBinAddr: 0x100035370, symSize: 0x28 }
  - { offsetInCU: 0x533BA, offset: 0x533BA, size: 0x8, addend: 0x0, symName: __ZNSt3__14pairINS_12basic_stringIcNS_11char_traitsIcEENS_9allocatorIcEEEES6_ED1Ev, symObjAddr: 0x31C90, symBinAddr: 0x100035398, symSize: 0x2C }
  - { offsetInCU: 0x533E6, offset: 0x533E6, size: 0x8, addend: 0x0, symName: __ZNSt3__14pairINS_12basic_stringIcNS_11char_traitsIcEENS_9allocatorIcEEEES6_ED2Ev, symObjAddr: 0x31CBC, symBinAddr: 0x1000353C4, symSize: 0x38 }
  - { offsetInCU: 0x53412, offset: 0x53412, size: 0x8, addend: 0x0, symName: __ZNKSt3__16vectorINS_4pairINS_12basic_stringIcNS_11char_traitsIcEENS_9allocatorIcEEEES7_EENS5_IS8_EEE31__annotate_contiguous_containerB8ue170006EPKvSC_SC_SC_, symObjAddr: 0x31CF4, symBinAddr: 0x1000353FC, symSize: 0x20 }
  - { offsetInCU: 0x53468, offset: 0x53468, size: 0x8, addend: 0x0, symName: __ZNKSt3__16vectorINS_4pairINS_12basic_stringIcNS_11char_traitsIcEENS_9allocatorIcEEEES7_EENS5_IS8_EEE4dataB8ue170006Ev, symObjAddr: 0x31D14, symBinAddr: 0x10003541C, symSize: 0x28 }
  - { offsetInCU: 0x5348E, offset: 0x5348E, size: 0x8, addend: 0x0, symName: __ZNKSt3__16vectorINS_4pairINS_12basic_stringIcNS_11char_traitsIcEENS_9allocatorIcEEEES7_EENS5_IS8_EEE4sizeB8ue170006Ev, symObjAddr: 0x31D3C, symBinAddr: 0x100035444, symSize: 0x28 }
  - { offsetInCU: 0x534B4, offset: 0x534B4, size: 0x8, addend: 0x0, symName: __ZNSt3__19allocatorINS_4pairINS_12basic_stringIcNS_11char_traitsIcEENS0_IcEEEES6_EEE10deallocateB8ue170006EPS7_m, symObjAddr: 0x31D64, symBinAddr: 0x10003546C, symSize: 0x44 }
  - { offsetInCU: 0x534F6, offset: 0x534F6, size: 0x8, addend: 0x0, symName: __ZNSt3__117__compressed_pairIPNS_4pairINS_12basic_stringIcNS_11char_traitsIcEENS_9allocatorIcEEEES7_EENS5_IS8_EEE6secondB8ue170006Ev, symObjAddr: 0x31DA8, symBinAddr: 0x1000354B0, symSize: 0x24 }
  - { offsetInCU: 0x5351C, offset: 0x5351C, size: 0x8, addend: 0x0, symName: __ZNSt3__122__compressed_pair_elemINS_9allocatorINS_4pairINS_12basic_stringIcNS_11char_traitsIcEENS1_IcEEEES7_EEEELi1ELb1EE5__getB8ue170006Ev, symObjAddr: 0x31DCC, symBinAddr: 0x1000354D4, symSize: 0x14 }
  - { offsetInCU: 0x53542, offset: 0x53542, size: 0x8, addend: 0x0, symName: __ZNKSt3__16vectorINS_4pairINS_12basic_stringIcNS_11char_traitsIcEENS_9allocatorIcEEEES7_EENS5_IS8_EEE9__end_capB8ue170006Ev, symObjAddr: 0x31DE0, symBinAddr: 0x1000354E8, symSize: 0x28 }
  - { offsetInCU: 0x53568, offset: 0x53568, size: 0x8, addend: 0x0, symName: __ZNKSt3__117__compressed_pairIPNS_4pairINS_12basic_stringIcNS_11char_traitsIcEENS_9allocatorIcEEEES7_EENS5_IS8_EEE5firstB8ue170006Ev, symObjAddr: 0x31E08, symBinAddr: 0x100035510, symSize: 0x24 }
  - { offsetInCU: 0x5358E, offset: 0x5358E, size: 0x8, addend: 0x0, symName: __ZNKSt3__122__compressed_pair_elemIPNS_4pairINS_12basic_stringIcNS_11char_traitsIcEENS_9allocatorIcEEEES7_EELi0ELb0EE5__getB8ue170006Ev, symObjAddr: 0x31E2C, symBinAddr: 0x100035534, symSize: 0x14 }
  - { offsetInCU: 0x535B4, offset: 0x535B4, size: 0x8, addend: 0x0, symName: __ZNSt3__16vectorIcNS_9allocatorIcEEED2B8ue170006Ev, symObjAddr: 0x31E40, symBinAddr: 0x100035548, symSize: 0x44 }
  - { offsetInCU: 0x535DE, offset: 0x535DE, size: 0x8, addend: 0x0, symName: __ZNSt3__16vectorIcNS_9allocatorIcEEE16__destroy_vectorC1B8ue170006ERS3_, symObjAddr: 0x31E84, symBinAddr: 0x10003558C, symSize: 0x34 }
  - { offsetInCU: 0x53617, offset: 0x53617, size: 0x8, addend: 0x0, symName: __ZNSt3__16vectorIcNS_9allocatorIcEEE16__destroy_vectorclB8ue170006Ev, symObjAddr: 0x31EB8, symBinAddr: 0x1000355C0, symSize: 0x90 }
  - { offsetInCU: 0x5363D, offset: 0x5363D, size: 0x8, addend: 0x0, symName: __ZNSt3__16vectorIcNS_9allocatorIcEEE16__destroy_vectorC2B8ue170006ERS3_, symObjAddr: 0x31F48, symBinAddr: 0x100035650, symSize: 0x20 }
  - { offsetInCU: 0x53676, offset: 0x53676, size: 0x8, addend: 0x0, symName: __ZNSt3__16vectorIcNS_9allocatorIcEEE7__clearB8ue170006Ev, symObjAddr: 0x31F68, symBinAddr: 0x100035670, symSize: 0x28 }
  - { offsetInCU: 0x5369C, offset: 0x5369C, size: 0x8, addend: 0x0, symName: __ZNKSt3__16vectorIcNS_9allocatorIcEEE17__annotate_deleteB8ue170006Ev, symObjAddr: 0x31F90, symBinAddr: 0x100035698, symSize: 0xB8 }
  - { offsetInCU: 0x536C2, offset: 0x536C2, size: 0x8, addend: 0x0, symName: __ZNSt3__116allocator_traitsINS_9allocatorIcEEE10deallocateB8ue170006ERS2_Pcm, symObjAddr: 0x32048, symBinAddr: 0x100035750, symSize: 0x34 }
  - { offsetInCU: 0x53704, offset: 0x53704, size: 0x8, addend: 0x0, symName: __ZNSt3__16vectorIcNS_9allocatorIcEEE7__allocB8ue170006Ev, symObjAddr: 0x3207C, symBinAddr: 0x100035784, symSize: 0x28 }
  - { offsetInCU: 0x5372A, offset: 0x5372A, size: 0x8, addend: 0x0, symName: __ZNKSt3__16vectorIcNS_9allocatorIcEEE8capacityB8ue170006Ev, symObjAddr: 0x320A4, symBinAddr: 0x1000357AC, symSize: 0x38 }
  - { offsetInCU: 0x53750, offset: 0x53750, size: 0x8, addend: 0x0, symName: __ZNSt3__16vectorIcNS_9allocatorIcEEE22__base_destruct_at_endB8ue170006EPc, symObjAddr: 0x320DC, symBinAddr: 0x1000357E4, symSize: 0x8C }
  - { offsetInCU: 0x53794, offset: 0x53794, size: 0x8, addend: 0x0, symName: __ZNSt3__116allocator_traitsINS_9allocatorIcEEE7destroyB8ue170006IcvEEvRS2_PT_, symObjAddr: 0x32168, symBinAddr: 0x100035870, symSize: 0x2C }
  - { offsetInCU: 0x537D1, offset: 0x537D1, size: 0x8, addend: 0x0, symName: __ZNSt3__19allocatorIcE7destroyB8ue170006EPc, symObjAddr: 0x321A8, symBinAddr: 0x1000358B0, symSize: 0x14 }
  - { offsetInCU: 0x53805, offset: 0x53805, size: 0x8, addend: 0x0, symName: __ZNKSt3__16vectorIcNS_9allocatorIcEEE31__annotate_contiguous_containerB8ue170006EPKvS5_S5_S5_, symObjAddr: 0x321BC, symBinAddr: 0x1000358C4, symSize: 0x20 }
  - { offsetInCU: 0x5385B, offset: 0x5385B, size: 0x8, addend: 0x0, symName: __ZNKSt3__16vectorIcNS_9allocatorIcEEE4dataB8ue170006Ev, symObjAddr: 0x321DC, symBinAddr: 0x1000358E4, symSize: 0x28 }
  - { offsetInCU: 0x53881, offset: 0x53881, size: 0x8, addend: 0x0, symName: __ZNKSt3__16vectorIcNS_9allocatorIcEEE4sizeB8ue170006Ev, symObjAddr: 0x32204, symBinAddr: 0x10003590C, symSize: 0x20 }
  - { offsetInCU: 0x538A7, offset: 0x538A7, size: 0x8, addend: 0x0, symName: __ZNSt3__19allocatorIcE10deallocateB8ue170006EPcm, symObjAddr: 0x32224, symBinAddr: 0x10003592C, symSize: 0x40 }
  - { offsetInCU: 0x538E9, offset: 0x538E9, size: 0x8, addend: 0x0, symName: __ZNSt3__117__compressed_pairIPcNS_9allocatorIcEEE6secondB8ue170006Ev, symObjAddr: 0x32264, symBinAddr: 0x10003596C, symSize: 0x24 }
  - { offsetInCU: 0x5390F, offset: 0x5390F, size: 0x8, addend: 0x0, symName: __ZNSt3__122__compressed_pair_elemINS_9allocatorIcEELi1ELb1EE5__getB8ue170006Ev, symObjAddr: 0x32288, symBinAddr: 0x100035990, symSize: 0x14 }
  - { offsetInCU: 0x53935, offset: 0x53935, size: 0x8, addend: 0x0, symName: __ZNKSt3__16vectorIcNS_9allocatorIcEEE9__end_capB8ue170006Ev, symObjAddr: 0x3229C, symBinAddr: 0x1000359A4, symSize: 0x28 }
  - { offsetInCU: 0x5395B, offset: 0x5395B, size: 0x8, addend: 0x0, symName: __ZNKSt3__117__compressed_pairIPcNS_9allocatorIcEEE5firstB8ue170006Ev, symObjAddr: 0x322C4, symBinAddr: 0x1000359CC, symSize: 0x24 }
  - { offsetInCU: 0x53981, offset: 0x53981, size: 0x8, addend: 0x0, symName: __ZNKSt3__122__compressed_pair_elemIPcLi0ELb0EE5__getB8ue170006Ev, symObjAddr: 0x322E8, symBinAddr: 0x1000359F0, symSize: 0x14 }
  - { offsetInCU: 0x539A7, offset: 0x539A7, size: 0x8, addend: 0x0, symName: __ZNSt3__120__bracket_expressionIcNS_12regex_traitsIcEEED2Ev, symObjAddr: 0x322FC, symBinAddr: 0x100035A04, symSize: 0x84 }
  - { offsetInCU: 0x539D4, offset: 0x539D4, size: 0x8, addend: 0x0, symName: __ZNSt3__14pairIccEC1B8ue170006ILb1ELPv0EEERKcS5_, symObjAddr: 0x32380, symBinAddr: 0x100035A88, symSize: 0x3C }
  - { offsetInCU: 0x53A2A, offset: 0x53A2A, size: 0x8, addend: 0x0, symName: __ZNKSt3__112regex_traitsIcE18lookup_collatenameB8ue170006IPcEENS_12basic_stringIcNS_11char_traitsIcEENS_9allocatorIcEEEET_SA_, symObjAddr: 0x323BC, symBinAddr: 0x100035AC4, symSize: 0x40 }
  - { offsetInCU: 0x53A77, offset: 0x53A77, size: 0x8, addend: 0x0, symName: __ZNKSt3__112basic_stringIcNS_11char_traitsIcEENS_9allocatorIcEEE5emptyB8ue170006Ev, symObjAddr: 0x323FC, symBinAddr: 0x100035B04, symSize: 0x30 }
  - { offsetInCU: 0x53A9D, offset: 0x53A9D, size: 0x8, addend: 0x0, symName: __ZNKSt3__16vectorINS_4pairIccEENS_9allocatorIS2_EEEixB8ue170006Em, symObjAddr: 0x32490, symBinAddr: 0x100035B98, symSize: 0x24 }
  - { offsetInCU: 0x53AD4, offset: 0x53AD4, size: 0x8, addend: 0x0, symName: __ZNKSt3__16vectorINS_4pairINS_12basic_stringIcNS_11char_traitsIcEENS_9allocatorIcEEEES7_EENS5_IS8_EEE5emptyB8ue170006Ev, symObjAddr: 0x324B4, symBinAddr: 0x100035BBC, symSize: 0x28 }
  - { offsetInCU: 0x53B28, offset: 0x53B28, size: 0x8, addend: 0x0, symName: __ZNKSt3__112regex_traitsIcE9transformIPcEENS_12basic_stringIcNS_11char_traitsIcEENS_9allocatorIcEEEET_SA_, symObjAddr: 0x324DC, symBinAddr: 0x100035BE4, symSize: 0xF0 }
  - { offsetInCU: 0x53BB9, offset: 0x53BB9, size: 0x8, addend: 0x0, symName: __ZNKSt3__16vectorINS_4pairINS_12basic_stringIcNS_11char_traitsIcEENS_9allocatorIcEEEES7_EENS5_IS8_EEEixB8ue170006Em, symObjAddr: 0x32600, symBinAddr: 0x100035D08, symSize: 0x2C }
  - { offsetInCU: 0x53BF0, offset: 0x53BF0, size: 0x8, addend: 0x0, symName: __ZNKSt3__16vectorINS_12basic_stringIcNS_11char_traitsIcEENS_9allocatorIcEEEENS4_IS6_EEE5emptyB8ue170006Ev, symObjAddr: 0x3262C, symBinAddr: 0x100035D34, symSize: 0x28 }
  - { offsetInCU: 0x53C16, offset: 0x53C16, size: 0x8, addend: 0x0, symName: __ZNKSt3__112regex_traitsIcE17transform_primaryB8ue170006IPcEENS_12basic_stringIcNS_11char_traitsIcEENS_9allocatorIcEEEET_SA_, symObjAddr: 0x32654, symBinAddr: 0x100035D5C, symSize: 0x40 }
  - { offsetInCU: 0x53C63, offset: 0x53C63, size: 0x8, addend: 0x0, symName: __ZNKSt3__16vectorINS_12basic_stringIcNS_11char_traitsIcEENS_9allocatorIcEEEENS4_IS6_EEEixB8ue170006Em, symObjAddr: 0x327DC, symBinAddr: 0x100035EE4, symSize: 0x2C }
  - { offsetInCU: 0x53C9A, offset: 0x53C9A, size: 0x8, addend: 0x0, symName: __ZNKSt3__16vectorIcNS_9allocatorIcEEEixB8ue170006Em, symObjAddr: 0x32808, symBinAddr: 0x100035F10, symSize: 0x24 }
  - { offsetInCU: 0x53CD1, offset: 0x53CD1, size: 0x8, addend: 0x0, symName: __ZNKSt3__16vectorIcNS_9allocatorIcEEE5emptyB8ue170006Ev, symObjAddr: 0x3282C, symBinAddr: 0x100035F34, symSize: 0x28 }
  - { offsetInCU: 0x53CF7, offset: 0x53CF7, size: 0x8, addend: 0x0, symName: __ZNKSt3__16vectorIcNS_9allocatorIcEEE5beginB8ue170006Ev, symObjAddr: 0x32900, symBinAddr: 0x100036008, symSize: 0x30 }
  - { offsetInCU: 0x53D1F, offset: 0x53D1F, size: 0x8, addend: 0x0, symName: __ZNKSt3__16vectorIcNS_9allocatorIcEEE3endB8ue170006Ev, symObjAddr: 0x32930, symBinAddr: 0x100036038, symSize: 0x30 }
  - { offsetInCU: 0x53D47, offset: 0x53D47, size: 0x8, addend: 0x0, symName: __ZNSt3__14pairIccEC2B8ue170006ILb1ELPv0EEERKcS5_, symObjAddr: 0x32960, symBinAddr: 0x100036068, symSize: 0x34 }
  - { offsetInCU: 0x53D9D, offset: 0x53D9D, size: 0x8, addend: 0x0, symName: __ZNKSt3__112regex_traitsIcE20__lookup_collatenameIPcEENS_12basic_stringIcNS_11char_traitsIcEENS_9allocatorIcEEEET_SA_c, symObjAddr: 0x32994, symBinAddr: 0x10003609C, symSize: 0x220 }
  - { offsetInCU: 0x53E4D, offset: 0x53E4D, size: 0x8, addend: 0x0, symName: __ZNSt3__112basic_stringIcNS_11char_traitsIcEENS_9allocatorIcEEEC1B8ue170006IPcLi0EEET_S8_, symObjAddr: 0x32BB4, symBinAddr: 0x1000362BC, symSize: 0x3C }
  - { offsetInCU: 0x53EA4, offset: 0x53EA4, size: 0x8, addend: 0x0, symName: __ZNSt3__112basic_stringIcNS_11char_traitsIcEENS_9allocatorIcEEE5clearB8ue170006Ev, symObjAddr: 0x32BF0, symBinAddr: 0x1000362F8, symSize: 0x78 }
  - { offsetInCU: 0x53ECC, offset: 0x53ECC, size: 0x8, addend: 0x0, symName: __ZNSt3__112basic_stringIcNS_11char_traitsIcEENS_9allocatorIcEEEC2B8ue170006IPcLi0EEET_S8_, symObjAddr: 0x32C68, symBinAddr: 0x100036370, symSize: 0x4C }
  - { offsetInCU: 0x53F23, offset: 0x53F23, size: 0x8, addend: 0x0, symName: __ZNSt3__112basic_stringIcNS_11char_traitsIcEENS_9allocatorIcEEE6__initIPcLi0EEEvT_S8_, symObjAddr: 0x32CB4, symBinAddr: 0x1000363BC, symSize: 0x54 }
  - { offsetInCU: 0x53F87, offset: 0x53F87, size: 0x8, addend: 0x0, symName: __ZNSt3__112basic_stringIcNS_11char_traitsIcEENS_9allocatorIcEEE16__init_with_sizeB8ue170006IPcS7_EEvT_T0_m, symObjAddr: 0x32D34, symBinAddr: 0x10003643C, symSize: 0x144 }
  - { offsetInCU: 0x5401A, offset: 0x5401A, size: 0x8, addend: 0x0, symName: __ZNKSt3__112basic_stringIcNS_11char_traitsIcEENS_9allocatorIcEEE8max_sizeB8ue170006Ev, symObjAddr: 0x32E98, symBinAddr: 0x1000365A0, symSize: 0xAC }
  - { offsetInCU: 0x5406C, offset: 0x5406C, size: 0x8, addend: 0x0, symName: __ZNKSt3__112basic_stringIcNS_11char_traitsIcEENS_9allocatorIcEEE20__throw_length_errorB8ue170006Ev, symObjAddr: 0x32F44, symBinAddr: 0x10003664C, symSize: 0x1C }
  - { offsetInCU: 0x54092, offset: 0x54092, size: 0x8, addend: 0x0, symName: __ZNSt3__112basic_stringIcNS_11char_traitsIcEENS_9allocatorIcEEE13__fits_in_ssoB8ue170006Em, symObjAddr: 0x32F60, symBinAddr: 0x100036668, symSize: 0x20 }
  - { offsetInCU: 0x540B6, offset: 0x540B6, size: 0x8, addend: 0x0, symName: __ZNSt3__112basic_stringIcNS_11char_traitsIcEENS_9allocatorIcEEE16__set_short_sizeB8ue170006Em, symObjAddr: 0x32F80, symBinAddr: 0x100036688, symSize: 0x78 }
  - { offsetInCU: 0x540EB, offset: 0x540EB, size: 0x8, addend: 0x0, symName: __ZNSt3__112basic_stringIcNS_11char_traitsIcEENS_9allocatorIcEEE19__get_short_pointerB8ue170006Ev, symObjAddr: 0x32FF8, symBinAddr: 0x100036700, symSize: 0x28 }
  - { offsetInCU: 0x54111, offset: 0x54111, size: 0x8, addend: 0x0, symName: __ZNSt3__112basic_stringIcNS_11char_traitsIcEENS_9allocatorIcEEE7__allocB8ue170006Ev, symObjAddr: 0x33060, symBinAddr: 0x100036768, symSize: 0x24 }
  - { offsetInCU: 0x54137, offset: 0x54137, size: 0x8, addend: 0x0, symName: __ZNSt3__112basic_stringIcNS_11char_traitsIcEENS_9allocatorIcEEE11__recommendB8ue170006Em, symObjAddr: 0x33084, symBinAddr: 0x10003678C, symSize: 0x84 }
  - { offsetInCU: 0x5416A, offset: 0x5416A, size: 0x8, addend: 0x0, symName: __ZNSt3__112basic_stringIcNS_11char_traitsIcEENS_9allocatorIcEEE16__begin_lifetimeB8ue170006EPcm, symObjAddr: 0x33108, symBinAddr: 0x100036810, symSize: 0x14 }
  - { offsetInCU: 0x5419D, offset: 0x5419D, size: 0x8, addend: 0x0, symName: __ZNSt3__112basic_stringIcNS_11char_traitsIcEENS_9allocatorIcEEE18__set_long_pointerB8ue170006EPc, symObjAddr: 0x3311C, symBinAddr: 0x100036824, symSize: 0x38 }
  - { offsetInCU: 0x541D2, offset: 0x541D2, size: 0x8, addend: 0x0, symName: __ZNSt3__112basic_stringIcNS_11char_traitsIcEENS_9allocatorIcEEE14__set_long_capB8ue170006Em, symObjAddr: 0x33154, symBinAddr: 0x10003685C, symSize: 0x70 }
  - { offsetInCU: 0x54207, offset: 0x54207, size: 0x8, addend: 0x0, symName: __ZNSt3__112basic_stringIcNS_11char_traitsIcEENS_9allocatorIcEEE15__set_long_sizeB8ue170006Em, symObjAddr: 0x331C4, symBinAddr: 0x1000368CC, symSize: 0x38 }
  - { offsetInCU: 0x5423C, offset: 0x5423C, size: 0x8, addend: 0x0, symName: __ZNSt3__111char_traitsIcE6assignB8ue170006ERcRKc, symObjAddr: 0x331FC, symBinAddr: 0x100036904, symSize: 0x24 }
  - { offsetInCU: 0x54278, offset: 0x54278, size: 0x8, addend: 0x0, symName: __ZNSt3__116allocator_traitsINS_9allocatorIcEEE8max_sizeB8ue170006IS2_vEEmRKS2_, symObjAddr: 0x33220, symBinAddr: 0x100036928, symSize: 0x24 }
  - { offsetInCU: 0x542A6, offset: 0x542A6, size: 0x8, addend: 0x0, symName: __ZNKSt3__112basic_stringIcNS_11char_traitsIcEENS_9allocatorIcEEE7__allocB8ue170006Ev, symObjAddr: 0x33244, symBinAddr: 0x10003694C, symSize: 0x24 }
  - { offsetInCU: 0x542CC, offset: 0x542CC, size: 0x8, addend: 0x0, symName: __ZNSt3__114numeric_limitsImE3maxB8ue170006Ev, symObjAddr: 0x33268, symBinAddr: 0x100036970, symSize: 0x14 }
  - { offsetInCU: 0x542E0, offset: 0x542E0, size: 0x8, addend: 0x0, symName: __ZNKSt3__19allocatorIcE8max_sizeB8ue170006Ev, symObjAddr: 0x3327C, symBinAddr: 0x100036984, symSize: 0x14 }
  - { offsetInCU: 0x54306, offset: 0x54306, size: 0x8, addend: 0x0, symName: __ZNKSt3__117__compressed_pairINS_12basic_stringIcNS_11char_traitsIcEENS_9allocatorIcEEE5__repES5_E6secondB8ue170006Ev, symObjAddr: 0x33290, symBinAddr: 0x100036998, symSize: 0x24 }
  - { offsetInCU: 0x5432C, offset: 0x5432C, size: 0x8, addend: 0x0, symName: __ZNKSt3__122__compressed_pair_elemINS_9allocatorIcEELi1ELb1EE5__getB8ue170006Ev, symObjAddr: 0x332B4, symBinAddr: 0x1000369BC, symSize: 0x14 }
  - { offsetInCU: 0x54352, offset: 0x54352, size: 0x8, addend: 0x0, symName: __ZNSt3__123__libcpp_numeric_limitsImLb1EE3maxB8ue170006Ev, symObjAddr: 0x332C8, symBinAddr: 0x1000369D0, symSize: 0x8 }
  - { offsetInCU: 0x54366, offset: 0x54366, size: 0x8, addend: 0x0, symName: __ZNSt3__117__compressed_pairINS_12basic_stringIcNS_11char_traitsIcEENS_9allocatorIcEEE5__repES5_E5firstB8ue170006Ev, symObjAddr: 0x332D0, symBinAddr: 0x1000369D8, symSize: 0x24 }
  - { offsetInCU: 0x5438C, offset: 0x5438C, size: 0x8, addend: 0x0, symName: __ZNSt3__122__compressed_pair_elemINS_12basic_stringIcNS_11char_traitsIcEENS_9allocatorIcEEE5__repELi0ELb0EE5__getB8ue170006Ev, symObjAddr: 0x332F4, symBinAddr: 0x1000369FC, symSize: 0x14 }
  - { offsetInCU: 0x543B2, offset: 0x543B2, size: 0x8, addend: 0x0, symName: __ZNSt3__114pointer_traitsIPcE10pointer_toB8ue170006ERc, symObjAddr: 0x33308, symBinAddr: 0x100036A10, symSize: 0x14 }
  - { offsetInCU: 0x543D5, offset: 0x543D5, size: 0x8, addend: 0x0, symName: __ZNSt3__19allocatorIcE8allocateB8ue170006Em, symObjAddr: 0x3331C, symBinAddr: 0x100036A24, symSize: 0x58 }
  - { offsetInCU: 0x54409, offset: 0x54409, size: 0x8, addend: 0x0, symName: __ZNSt3__117__compressed_pairINS_12basic_stringIcNS_11char_traitsIcEENS_9allocatorIcEEE5__repES5_E6secondB8ue170006Ev, symObjAddr: 0x33374, symBinAddr: 0x100036A7C, symSize: 0x24 }
  - { offsetInCU: 0x5442F, offset: 0x5442F, size: 0x8, addend: 0x0, symName: __ZNSt3__112basic_stringIcNS_11char_traitsIcEENS_9allocatorIcEEE10__align_itB8ue170006ILm16EEEmm, symObjAddr: 0x33398, symBinAddr: 0x100036AA0, symSize: 0x1C }
  - { offsetInCU: 0x5445D, offset: 0x5445D, size: 0x8, addend: 0x0, symName: __ZNSt3__112basic_stringIcNS_11char_traitsIcEENS_9allocatorIcEEE18__get_long_pointerB8ue170006Ev, symObjAddr: 0x333B4, symBinAddr: 0x100036ABC, symSize: 0x28 }
  - { offsetInCU: 0x54483, offset: 0x54483, size: 0x8, addend: 0x0, symName: __ZNKSt3__112basic_stringIcNS_11char_traitsIcEENS_9allocatorIcEEE7compareB8ue170006ERKS5_, symObjAddr: 0x33414, symBinAddr: 0x100036B1C, symSize: 0x4C }
  - { offsetInCU: 0x544BA, offset: 0x544BA, size: 0x8, addend: 0x0, symName: __ZNKSt3__112basic_stringIcNS_11char_traitsIcEENS_9allocatorIcEEE7compareINS_17basic_string_viewIcS2_EELi0EEEiRKT_, symObjAddr: 0x33460, symBinAddr: 0x100036B68, symSize: 0x12C }
  - { offsetInCU: 0x5453D, offset: 0x5453D, size: 0x8, addend: 0x0, symName: __ZNKSt3__112basic_stringIcNS_11char_traitsIcEENS_9allocatorIcEEEcvNS_17basic_string_viewIcS2_EEB8ue170006Ev, symObjAddr: 0x3358C, symBinAddr: 0x100036C94, symSize: 0x50 }
  - { offsetInCU: 0x54563, offset: 0x54563, size: 0x8, addend: 0x0, symName: __ZNKSt3__117basic_string_viewIcNS_11char_traitsIcEEE4sizeB8ue170006Ev, symObjAddr: 0x335DC, symBinAddr: 0x100036CE4, symSize: 0x18 }
  - { offsetInCU: 0x54589, offset: 0x54589, size: 0x8, addend: 0x0, symName: __ZNSt3__111char_traitsIcE7compareB8ue170006EPKcS3_m, symObjAddr: 0x335F4, symBinAddr: 0x100036CFC, symSize: 0x34 }
  - { offsetInCU: 0x545C8, offset: 0x545C8, size: 0x8, addend: 0x0, symName: __ZNKSt3__117basic_string_viewIcNS_11char_traitsIcEEE4dataB8ue170006Ev, symObjAddr: 0x33628, symBinAddr: 0x100036D30, symSize: 0x18 }
  - { offsetInCU: 0x545EE, offset: 0x545EE, size: 0x8, addend: 0x0, symName: __ZNSt3__117basic_string_viewIcNS_11char_traitsIcEEEC1B8ue170006EPKcm, symObjAddr: 0x33640, symBinAddr: 0x100036D48, symSize: 0x3C }
  - { offsetInCU: 0x54636, offset: 0x54636, size: 0x8, addend: 0x0, symName: __ZNSt3__117basic_string_viewIcNS_11char_traitsIcEEEC2B8ue170006EPKcm, symObjAddr: 0x3367C, symBinAddr: 0x100036D84, symSize: 0x2C }
  - { offsetInCU: 0x5467E, offset: 0x5467E, size: 0x8, addend: 0x0, symName: __ZNKSt3__112regex_traitsIcE19__transform_primaryIPcEENS_12basic_stringIcNS_11char_traitsIcEENS_9allocatorIcEEEET_SA_c, symObjAddr: 0x336A8, symBinAddr: 0x100036DB0, symSize: 0x19C }
  - { offsetInCU: 0x5472C, offset: 0x5472C, size: 0x8, addend: 0x0, symName: __ZNSt3__112basic_stringIcNS_11char_traitsIcEENS_9allocatorIcEEEixB8ue170006Em, symObjAddr: 0x33844, symBinAddr: 0x100036F4C, symSize: 0x30 }
  - { offsetInCU: 0x54761, offset: 0x54761, size: 0x8, addend: 0x0, symName: __ZNSt3__112basic_stringIcNS_11char_traitsIcEENS_9allocatorIcEEE13__get_pointerB8ue170006Ev, symObjAddr: 0x33874, symBinAddr: 0x100036F7C, symSize: 0x54 }
  - { offsetInCU: 0x54787, offset: 0x54787, size: 0x8, addend: 0x0, symName: __ZNSt3__118__unwrap_iter_implINS_11__wrap_iterIPKcEELb1EE8__rewrapB8ue170006ES4_S3_, symObjAddr: 0x33A00, symBinAddr: 0x100037108, symSize: 0x54 }
  - { offsetInCU: 0x547B8, offset: 0x547B8, size: 0x8, addend: 0x0, symName: __ZNKSt3__111__wrap_iterIPKcEplB8ue170006El, symObjAddr: 0x33A54, symBinAddr: 0x10003715C, symSize: 0x3C }
  - { offsetInCU: 0x54806, offset: 0x54806, size: 0x8, addend: 0x0, symName: __ZNSt3__119__to_address_helperINS_11__wrap_iterIPKcEEvE6__callB8ue170006ERKS4_, symObjAddr: 0x33AB4, symBinAddr: 0x1000371BC, symSize: 0x30 }
  - { offsetInCU: 0x54829, offset: 0x54829, size: 0x8, addend: 0x0, symName: __ZNSt3__114pointer_traitsINS_11__wrap_iterIPKcEEE10to_addressB8ue170006ES4_, symObjAddr: 0x33AE4, symBinAddr: 0x1000371EC, symSize: 0x2C }
  - { offsetInCU: 0x5484C, offset: 0x5484C, size: 0x8, addend: 0x0, symName: __ZNSt3__118__unwrap_iter_implINS_11__wrap_iterIPKcEELb1EE8__unwrapB8ue170006ES4_, symObjAddr: 0x33B50, symBinAddr: 0x100037258, symSize: 0x28 }
  - { offsetInCU: 0x5486F, offset: 0x5486F, size: 0x8, addend: 0x0, symName: __ZNKSt3__16vectorIcNS_9allocatorIcEEE11__make_iterB8ue170006EPKc, symObjAddr: 0x33B78, symBinAddr: 0x100037280, symSize: 0x30 }
  - { offsetInCU: 0x548A4, offset: 0x548A4, size: 0x8, addend: 0x0, symName: __ZNSt3__111__wrap_iterIPKcEC1B8ue170006ES2_, symObjAddr: 0x33BA8, symBinAddr: 0x1000372B0, symSize: 0x34 }
  - { offsetInCU: 0x548DC, offset: 0x548DC, size: 0x8, addend: 0x0, symName: __ZNSt3__111__wrap_iterIPKcEC2B8ue170006ES2_, symObjAddr: 0x33BDC, symBinAddr: 0x1000372E4, symSize: 0x20 }
  - { offsetInCU: 0x54914, offset: 0x54914, size: 0x8, addend: 0x0, symName: __ZNSt3__16vectorIcNS_9allocatorIcEEE9push_backB8ue170006EOc, symObjAddr: 0x33BFC, symBinAddr: 0x100037304, symSize: 0x6C }
  - { offsetInCU: 0x5494B, offset: 0x5494B, size: 0x8, addend: 0x0, symName: __ZNSt3__16vectorIcNS_9allocatorIcEEE9push_backB8ue170006ERKc, symObjAddr: 0x33C68, symBinAddr: 0x100037370, symSize: 0x6C }
  - { offsetInCU: 0x54982, offset: 0x54982, size: 0x8, addend: 0x0, symName: __ZNSt3__16vectorIcNS_9allocatorIcEEE9__end_capB8ue170006Ev, symObjAddr: 0x33CD4, symBinAddr: 0x1000373DC, symSize: 0x28 }
  - { offsetInCU: 0x549AE, offset: 0x549AE, size: 0x8, addend: 0x0, symName: __ZNSt3__16vectorIcNS_9allocatorIcEEE22__construct_one_at_endB8ue170006IJcEEEvDpOT_, symObjAddr: 0x33CFC, symBinAddr: 0x100037404, symSize: 0x90 }
  - { offsetInCU: 0x549FD, offset: 0x549FD, size: 0x8, addend: 0x0, symName: __ZNSt3__16vectorIcNS_9allocatorIcEEE21__push_back_slow_pathIcEEvOT_, symObjAddr: 0x33D8C, symBinAddr: 0x100037494, symSize: 0xD8 }
  - { offsetInCU: 0x54A5B, offset: 0x54A5B, size: 0x8, addend: 0x0, symName: __ZNSt3__117__compressed_pairIPcNS_9allocatorIcEEE5firstB8ue170006Ev, symObjAddr: 0x33E64, symBinAddr: 0x10003756C, symSize: 0x24 }
  - { offsetInCU: 0x54A81, offset: 0x54A81, size: 0x8, addend: 0x0, symName: __ZNSt3__122__compressed_pair_elemIPcLi0ELb0EE5__getB8ue170006Ev, symObjAddr: 0x33E88, symBinAddr: 0x100037590, symSize: 0x14 }
  - { offsetInCU: 0x54AC3, offset: 0x54AC3, size: 0x8, addend: 0x0, symName: __ZNSt3__16vectorIcNS_9allocatorIcEEE21_ConstructTransactionC1B8ue170006ERS3_m, symObjAddr: 0x33E9C, symBinAddr: 0x1000375A4, symSize: 0x3C }
  - { offsetInCU: 0x54B0B, offset: 0x54B0B, size: 0x8, addend: 0x0, symName: __ZNSt3__116allocator_traitsINS_9allocatorIcEEE9constructB8ue170006IcJcEvEEvRS2_PT_DpOT0_, symObjAddr: 0x33ED8, symBinAddr: 0x1000375E0, symSize: 0x34 }
  - { offsetInCU: 0x54B62, offset: 0x54B62, size: 0x8, addend: 0x0, symName: __ZNSt3__16vectorIcNS_9allocatorIcEEE21_ConstructTransactionD1B8ue170006Ev, symObjAddr: 0x33F0C, symBinAddr: 0x100037614, symSize: 0x2C }
  - { offsetInCU: 0x54B8C, offset: 0x54B8C, size: 0x8, addend: 0x0, symName: __ZNSt3__16vectorIcNS_9allocatorIcEEE21_ConstructTransactionC2B8ue170006ERS3_m, symObjAddr: 0x33F38, symBinAddr: 0x100037640, symSize: 0x44 }
  - { offsetInCU: 0x54BD4, offset: 0x54BD4, size: 0x8, addend: 0x0, symName: __ZNSt3__19allocatorIcE9constructB8ue170006IcJcEEEvPT_DpOT0_, symObjAddr: 0x33F7C, symBinAddr: 0x100037684, symSize: 0x28 }
  - { offsetInCU: 0x54C2A, offset: 0x54C2A, size: 0x8, addend: 0x0, symName: __ZNSt3__16vectorIcNS_9allocatorIcEEE21_ConstructTransactionD2B8ue170006Ev, symObjAddr: 0x33FA4, symBinAddr: 0x1000376AC, symSize: 0x20 }
  - { offsetInCU: 0x54C54, offset: 0x54C54, size: 0x8, addend: 0x0, symName: __ZNKSt3__16vectorIcNS_9allocatorIcEEE11__recommendB8ue170006Em, symObjAddr: 0x33FC4, symBinAddr: 0x1000376CC, symSize: 0xB4 }
  - { offsetInCU: 0x54CA9, offset: 0x54CA9, size: 0x8, addend: 0x0, symName: __ZNSt3__114__split_bufferIcRNS_9allocatorIcEEEC1EmmS3_, symObjAddr: 0x34078, symBinAddr: 0x100037780, symSize: 0x44 }
  - { offsetInCU: 0x54CFF, offset: 0x54CFF, size: 0x8, addend: 0x0, symName: __ZNSt3__114__split_bufferIcRNS_9allocatorIcEEED1Ev, symObjAddr: 0x341CC, symBinAddr: 0x1000378D4, symSize: 0x2C }
  - { offsetInCU: 0x54D2B, offset: 0x54D2B, size: 0x8, addend: 0x0, symName: __ZNKSt3__16vectorIcNS_9allocatorIcEEE8max_sizeEv, symObjAddr: 0x341F8, symBinAddr: 0x100037900, symSize: 0x60 }
  - { offsetInCU: 0x54D53, offset: 0x54D53, size: 0x8, addend: 0x0, symName: __ZNKSt3__16vectorIcNS_9allocatorIcEEE20__throw_length_errorB8ue170006Ev, symObjAddr: 0x34258, symBinAddr: 0x100037960, symSize: 0x1C }
  - { offsetInCU: 0x54D79, offset: 0x54D79, size: 0x8, addend: 0x0, symName: __ZNKSt3__16vectorIcNS_9allocatorIcEEE7__allocB8ue170006Ev, symObjAddr: 0x34274, symBinAddr: 0x10003797C, symSize: 0x28 }
  - { offsetInCU: 0x54D9F, offset: 0x54D9F, size: 0x8, addend: 0x0, symName: __ZNKSt3__117__compressed_pairIPcNS_9allocatorIcEEE6secondB8ue170006Ev, symObjAddr: 0x3429C, symBinAddr: 0x1000379A4, symSize: 0x24 }
  - { offsetInCU: 0x54DC5, offset: 0x54DC5, size: 0x8, addend: 0x0, symName: __ZNSt3__114__split_bufferIcRNS_9allocatorIcEEEC2EmmS3_, symObjAddr: 0x342C0, symBinAddr: 0x1000379C8, symSize: 0xD4 }
  - { offsetInCU: 0x54E38, offset: 0x54E38, size: 0x8, addend: 0x0, symName: __ZNSt3__117__compressed_pairIPcRNS_9allocatorIcEEEC1B8ue170006IDnS4_EEOT_OT0_, symObjAddr: 0x34394, symBinAddr: 0x100037A9C, symSize: 0x3C }
  - { offsetInCU: 0x54E90, offset: 0x54E90, size: 0x8, addend: 0x0, symName: __ZNSt3__114__split_bufferIcRNS_9allocatorIcEEE7__allocB8ue170006Ev, symObjAddr: 0x343D0, symBinAddr: 0x100037AD8, symSize: 0x28 }
  - { offsetInCU: 0x54EB6, offset: 0x54EB6, size: 0x8, addend: 0x0, symName: __ZNSt3__114__split_bufferIcRNS_9allocatorIcEEE9__end_capB8ue170006Ev, symObjAddr: 0x343F8, symBinAddr: 0x100037B00, symSize: 0x28 }
  - { offsetInCU: 0x54EDC, offset: 0x54EDC, size: 0x8, addend: 0x0, symName: __ZNSt3__117__compressed_pairIPcRNS_9allocatorIcEEEC2B8ue170006IDnS4_EEOT_OT0_, symObjAddr: 0x34420, symBinAddr: 0x100037B28, symSize: 0x48 }
  - { offsetInCU: 0x54F34, offset: 0x54F34, size: 0x8, addend: 0x0, symName: __ZNSt3__122__compressed_pair_elemIRNS_9allocatorIcEELi1ELb0EEC2B8ue170006IS3_vEEOT_, symObjAddr: 0x34468, symBinAddr: 0x100037B70, symSize: 0x20 }
  - { offsetInCU: 0x54F76, offset: 0x54F76, size: 0x8, addend: 0x0, symName: __ZNSt3__117__compressed_pairIPcRNS_9allocatorIcEEE6secondB8ue170006Ev, symObjAddr: 0x34488, symBinAddr: 0x100037B90, symSize: 0x28 }
